TN:
SF:/mnt/d/emhash/include/emhash/hash_table8.hpp
FN:153,_ZN7emhash87HashMapIii12const_hasherSt8equal_toIiESaISt4pairIiiEENS_13DefaultPolicyEE16hashmap_iteratorILb0ES8_EC2EPS8_j
FNDA:345189,_ZN7emhash87HashMapIii12const_hasherSt8equal_toIiESaISt4pairIiiEENS_13DefaultPolicyEE16hashmap_iteratorILb0ES8_EC2EPS8_j
FN:153,_ZN7emhash87HashMapIii13range4_hasherSt8equal_toIiESaISt4pairIiiEENS_13DefaultPolicyEE16hashmap_iteratorILb0ES8_EC2EPS8_j
FNDA:225289,_ZN7emhash87HashMapIii13range4_hasherSt8equal_toIiESaISt4pairIiiEENS_13DefaultPolicyEE16hashmap_iteratorILb0ES8_EC2EPS8_j
FN:153,_ZN7emhash87HashMapIii13linear_hasherSt8equal_toIiESaISt4pairIiiEENS_13DefaultPolicyEE16hashmap_iteratorILb0ES8_EC2EPS8_j
FNDA:225289,_ZN7emhash87HashMapIii13linear_hasherSt8equal_toIiESaISt4pairIiiEENS_13DefaultPolicyEE16hashmap_iteratorILb0ES8_EC2EPS8_j
FN:198,_ZNK7emhash87HashMapIii12const_hasherSt8equal_toIiESaISt4pairIiiEENS_13DefaultPolicyEE16hashmap_iteratorILb0ES8_EptEv
FNDA:48850,_ZNK7emhash87HashMapIii12const_hasherSt8equal_toIiESaISt4pairIiiEENS_13DefaultPolicyEE16hashmap_iteratorILb0ES8_EptEv
FN:201,_ZNK7emhash87HashMapIii13range4_hasherSt8equal_toIiESaISt4pairIiiEENS_13DefaultPolicyEE16hashmap_iteratorILb0ES8_EeqILb0EEEbRKNS9_IXT_ES8_EE
FNDA:111000,_ZNK7emhash87HashMapIii13range4_hasherSt8equal_toIiESaISt4pairIiiEENS_13DefaultPolicyEE16hashmap_iteratorILb0ES8_EeqILb0EEEbRKNS9_IXT_ES8_EE
FN:201,_ZNK7emhash87HashMapIii12const_hasherSt8equal_toIiESaISt4pairIiiEENS_13DefaultPolicyEE16hashmap_iteratorILb0ES8_EeqILb0EEEbRKNS9_IXT_ES8_EE
FNDA:176500,_ZNK7emhash87HashMapIii12const_hasherSt8equal_toIiESaISt4pairIiiEENS_13DefaultPolicyEE16hashmap_iteratorILb0ES8_EeqILb0EEEbRKNS9_IXT_ES8_EE
FN:201,_ZNK7emhash87HashMapIii13linear_hasherSt8equal_toIiESaISt4pairIiiEENS_13DefaultPolicyEE16hashmap_iteratorILb0ES8_EeqILb0EEEbRKNS9_IXT_ES8_EE
FNDA:111000,_ZNK7emhash87HashMapIii13linear_hasherSt8equal_toIiESaISt4pairIiiEENS_13DefaultPolicyEE16hashmap_iteratorILb0ES8_EeqILb0EEEbRKNS9_IXT_ES8_EE
FN:206,_ZNK7emhash87HashMapIii12const_hasherSt8equal_toIiESaISt4pairIiiEENS_13DefaultPolicyEE16hashmap_iteratorILb0ES8_EneILb0EEEbRKNS9_IXT_ES8_EE
FNDA:122100,_ZNK7emhash87HashMapIii12const_hasherSt8equal_toIiESaISt4pairIiiEENS_13DefaultPolicyEE16hashmap_iteratorILb0ES8_EneILb0EEEbRKNS9_IXT_ES8_EE
FN:206,_ZNK7emhash87HashMapIii13linear_hasherSt8equal_toIiESaISt4pairIiiEENS_13DefaultPolicyEE16hashmap_iteratorILb0ES8_EneILb0EEEbRKNS9_IXT_ES8_EE
FNDA:111000,_ZNK7emhash87HashMapIii13linear_hasherSt8equal_toIiESaISt4pairIiiEENS_13DefaultPolicyEE16hashmap_iteratorILb0ES8_EneILb0EEEbRKNS9_IXT_ES8_EE
FN:206,_ZNK7emhash87HashMapIii13range4_hasherSt8equal_toIiESaISt4pairIiiEENS_13DefaultPolicyEE16hashmap_iteratorILb0ES8_EneILb0EEEbRKNS9_IXT_ES8_EE
FNDA:111000,_ZNK7emhash87HashMapIii13range4_hasherSt8equal_toIiESaISt4pairIiiEENS_13DefaultPolicyEE16hashmap_iteratorILb0ES8_EneILb0EEEbRKNS9_IXT_ES8_EE
FN:219,_ZN7emhash87HashMapIii12const_hasherSt8equal_toIiESaISt4pairIiiEENS_13DefaultPolicyEE4initEjf
FNDA:23,_ZN7emhash87HashMapIii12const_hasherSt8equal_toIiESaISt4pairIiiEENS_13DefaultPolicyEE4initEjf
FN:219,_ZN7emhash87HashMapIii13linear_hasherSt8equal_toIiESaISt4pairIiiEENS_13DefaultPolicyEE4initEjf
FNDA:12,_ZN7emhash87HashMapIii13linear_hasherSt8equal_toIiESaISt4pairIiiEENS_13DefaultPolicyEE4initEjf
FN:219,_ZN7emhash87HashMapIii13range4_hasherSt8equal_toIiESaISt4pairIiiEENS_13DefaultPolicyEE4initEjf
FNDA:12,_ZN7emhash87HashMapIii13range4_hasherSt8equal_toIiESaISt4pairIiiEENS_13DefaultPolicyEE4initEjf
FN:230,_ZN7emhash87HashMapIii12const_hasherSt8equal_toIiESaISt4pairIiiEENS_13DefaultPolicyEEC2Ejf
FNDA:23,_ZN7emhash87HashMapIii12const_hasherSt8equal_toIiESaISt4pairIiiEENS_13DefaultPolicyEEC2Ejf
FN:230,_ZN7emhash87HashMapIii13range4_hasherSt8equal_toIiESaISt4pairIiiEENS_13DefaultPolicyEEC2Ejf
FNDA:12,_ZN7emhash87HashMapIii13range4_hasherSt8equal_toIiESaISt4pairIiiEENS_13DefaultPolicyEEC2Ejf
FN:230,_ZN7emhash87HashMapIii13linear_hasherSt8equal_toIiESaISt4pairIiiEENS_13DefaultPolicyEEC2Ejf
FNDA:12,_ZN7emhash87HashMapIii13linear_hasherSt8equal_toIiESaISt4pairIiiEENS_13DefaultPolicyEEC2Ejf
FN:346,_ZN7emhash87HashMapIii13linear_hasherSt8equal_toIiESaISt4pairIiiEENS_13DefaultPolicyEED2Ev
FNDA:12,_ZN7emhash87HashMapIii13linear_hasherSt8equal_toIiESaISt4pairIiiEENS_13DefaultPolicyEED2Ev
FN:346,_ZN7emhash87HashMapIii12const_hasherSt8equal_toIiESaISt4pairIiiEENS_13DefaultPolicyEED2Ev
FNDA:23,_ZN7emhash87HashMapIii12const_hasherSt8equal_toIiESaISt4pairIiiEENS_13DefaultPolicyEED2Ev
FN:346,_ZN7emhash87HashMapIii13range4_hasherSt8equal_toIiESaISt4pairIiiEENS_13DefaultPolicyEED2Ev
FNDA:12,_ZN7emhash87HashMapIii13range4_hasherSt8equal_toIiESaISt4pairIiiEENS_13DefaultPolicyEED2Ev
FN:418,_ZN7emhash87HashMapIii13range4_hasherSt8equal_toIiESaISt4pairIiiEENS_13DefaultPolicyEE3endEv
FNDA:111000,_ZN7emhash87HashMapIii13range4_hasherSt8equal_toIiESaISt4pairIiiEENS_13DefaultPolicyEE3endEv
FN:418,_ZN7emhash87HashMapIii12const_hasherSt8equal_toIiESaISt4pairIiiEENS_13DefaultPolicyEE3endEv
FNDA:176500,_ZN7emhash87HashMapIii12const_hasherSt8equal_toIiESaISt4pairIiiEENS_13DefaultPolicyEE3endEv
FN:418,_ZN7emhash87HashMapIii13linear_hasherSt8equal_toIiESaISt4pairIiiEENS_13DefaultPolicyEE3endEv
FNDA:111000,_ZN7emhash87HashMapIii13linear_hasherSt8equal_toIiESaISt4pairIiiEENS_13DefaultPolicyEE3endEv
FN:425,_ZNK7emhash87HashMapIii12const_hasherSt8equal_toIiESaISt4pairIiiEENS_13DefaultPolicyEE4sizeEv
FNDA:4,_ZNK7emhash87HashMapIii12const_hasherSt8equal_toIiESaISt4pairIiiEENS_13DefaultPolicyEE4sizeEv
FN:427,_ZNK7emhash87HashMapIii13range4_hasherSt8equal_toIiESaISt4pairIiiEENS_13DefaultPolicyEE12bucket_countEv
FNDA:3,_ZNK7emhash87HashMapIii13range4_hasherSt8equal_toIiESaISt4pairIiiEENS_13DefaultPolicyEE12bucket_countEv
FN:427,_ZNK7emhash87HashMapIii12const_hasherSt8equal_toIiESaISt4pairIiiEENS_13DefaultPolicyEE12bucket_countEv
FNDA:4,_ZNK7emhash87HashMapIii12const_hasherSt8equal_toIiESaISt4pairIiiEENS_13DefaultPolicyEE12bucket_countEv
FN:427,_ZNK7emhash87HashMapIii13linear_hasherSt8equal_toIiESaISt4pairIiiEENS_13DefaultPolicyEE12bucket_countEv
FNDA:3,_ZNK7emhash87HashMapIii13linear_hasherSt8equal_toIiESaISt4pairIiiEENS_13DefaultPolicyEE12bucket_countEv
FN:428,_ZNK7emhash87HashMapIii13range4_hasherSt8equal_toIiESaISt4pairIiiEENS_13DefaultPolicyEE11load_factorEv
FNDA:3,_ZNK7emhash87HashMapIii13range4_hasherSt8equal_toIiESaISt4pairIiiEENS_13DefaultPolicyEE11load_factorEv
FN:428,_ZNK7emhash87HashMapIii12const_hasherSt8equal_toIiESaISt4pairIiiEENS_13DefaultPolicyEE11load_factorEv
FNDA:4,_ZNK7emhash87HashMapIii12const_hasherSt8equal_toIiESaISt4pairIiiEENS_13DefaultPolicyEE11load_factorEv
FN:428,_ZNK7emhash87HashMapIii13linear_hasherSt8equal_toIiESaISt4pairIiiEENS_13DefaultPolicyEE11load_factorEv
FNDA:3,_ZNK7emhash87HashMapIii13linear_hasherSt8equal_toIiESaISt4pairIiiEENS_13DefaultPolicyEE11load_factorEv
FN:434,_ZN7emhash87HashMapIii13range4_hasherSt8equal_toIiESaISt4pairIiiEENS_13DefaultPolicyEE15max_load_factorEf
FNDA:12,_ZN7emhash87HashMapIii13range4_hasherSt8equal_toIiESaISt4pairIiiEENS_13DefaultPolicyEE15max_load_factorEf
FN:434,_ZN7emhash87HashMapIii12const_hasherSt8equal_toIiESaISt4pairIiiEENS_13DefaultPolicyEE15max_load_factorEf
FNDA:23,_ZN7emhash87HashMapIii12const_hasherSt8equal_toIiESaISt4pairIiiEENS_13DefaultPolicyEE15max_load_factorEf
FN:434,_ZN7emhash87HashMapIii13linear_hasherSt8equal_toIiESaISt4pairIiiEENS_13DefaultPolicyEE15max_load_factorEf
FNDA:12,_ZN7emhash87HashMapIii13linear_hasherSt8equal_toIiESaISt4pairIiiEENS_13DefaultPolicyEE15max_load_factorEf
FN:441,_ZNK7emhash87HashMapIii13range4_hasherSt8equal_toIiESaISt4pairIiiEENS_13DefaultPolicyEE15max_load_factorEv
FNDA:104,_ZNK7emhash87HashMapIii13range4_hasherSt8equal_toIiESaISt4pairIiiEENS_13DefaultPolicyEE15max_load_factorEv
FN:441,_ZNK7emhash87HashMapIii12const_hasherSt8equal_toIiESaISt4pairIiiEENS_13DefaultPolicyEE15max_load_factorEv
FNDA:199,_ZNK7emhash87HashMapIii12const_hasherSt8equal_toIiESaISt4pairIiiEENS_13DefaultPolicyEE15max_load_factorEv
FN:441,_ZNK7emhash87HashMapIii13linear_hasherSt8equal_toIiESaISt4pairIiiEENS_13DefaultPolicyEE15max_load_factorEv
FNDA:104,_ZNK7emhash87HashMapIii13linear_hasherSt8equal_toIiESaISt4pairIiiEENS_13DefaultPolicyEE15max_load_factorEv
FN:442,_ZNK7emhash87HashMapIii13linear_hasherSt8equal_toIiESaISt4pairIiiEENS_13DefaultPolicyEE8max_sizeEv
FNDA:760,_ZNK7emhash87HashMapIii13linear_hasherSt8equal_toIiESaISt4pairIiiEENS_13DefaultPolicyEE8max_sizeEv
FN:442,_ZNK7emhash87HashMapIii12const_hasherSt8equal_toIiESaISt4pairIiiEENS_13DefaultPolicyEE8max_sizeEv
FNDA:1492,_ZNK7emhash87HashMapIii12const_hasherSt8equal_toIiESaISt4pairIiiEENS_13DefaultPolicyEE8max_sizeEv
FN:442,_ZNK7emhash87HashMapIii13range4_hasherSt8equal_toIiESaISt4pairIiiEENS_13DefaultPolicyEE8max_sizeEv
FNDA:760,_ZNK7emhash87HashMapIii13range4_hasherSt8equal_toIiESaISt4pairIiiEENS_13DefaultPolicyEE8max_sizeEv
FN:571,_ZN7emhash87HashMapIii13linear_hasherSt8equal_toIiESaISt4pairIiiEENS_13DefaultPolicyEE4findIiEENS8_16hashmap_iteratorILb0ES8_EERKT_
FNDA:114289,_ZN7emhash87HashMapIii13linear_hasherSt8equal_toIiESaISt4pairIiiEENS_13DefaultPolicyEE4findIiEENS8_16hashmap_iteratorILb0ES8_EERKT_
FN:571,_ZN7emhash87HashMapIii13range4_hasherSt8equal_toIiESaISt4pairIiiEENS_13DefaultPolicyEE4findIiEENS8_16hashmap_iteratorILb0ES8_EERKT_
FNDA:114289,_ZN7emhash87HashMapIii13range4_hasherSt8equal_toIiESaISt4pairIiiEENS_13DefaultPolicyEE4findIiEENS8_16hashmap_iteratorILb0ES8_EERKT_
FN:571,_ZN7emhash87HashMapIii12const_hasherSt8equal_toIiESaISt4pairIiiEENS_13DefaultPolicyEE4findIiEENS8_16hashmap_iteratorILb0ES8_EERKT_
FNDA:168689,_ZN7emhash87HashMapIii12const_hasherSt8equal_toIiESaISt4pairIiiEENS_13DefaultPolicyEE4findIiEENS8_16hashmap_iteratorILb0ES8_EERKT_
FN:850,_ZN7emhash87HashMapIii13linear_hasherSt8equal_toIiESaISt4pairIiiEENS_13DefaultPolicyEEixERKi
FNDA:50032,_ZN7emhash87HashMapIii13linear_hasherSt8equal_toIiESaISt4pairIiiEENS_13DefaultPolicyEEixERKi
FN:850,_ZN7emhash87HashMapIii12const_hasherSt8equal_toIiESaISt4pairIiiEENS_13DefaultPolicyEEixERKi
FNDA:134982,_ZN7emhash87HashMapIii12const_hasherSt8equal_toIiESaISt4pairIiiEENS_13DefaultPolicyEEixERKi
FN:850,_ZN7emhash87HashMapIii13range4_hasherSt8equal_toIiESaISt4pairIiiEENS_13DefaultPolicyEEixERKi
FNDA:50032,_ZN7emhash87HashMapIii13range4_hasherSt8equal_toIiESaISt4pairIiiEENS_13DefaultPolicyEEixERKi
FN:880,_ZN7emhash87HashMapIii13linear_hasherSt8equal_toIiESaISt4pairIiiEENS_13DefaultPolicyEE5eraseERKi
FNDA:13279,_ZN7emhash87HashMapIii13linear_hasherSt8equal_toIiESaISt4pairIiiEENS_13DefaultPolicyEE5eraseERKi
FN:880,_ZN7emhash87HashMapIii13range4_hasherSt8equal_toIiESaISt4pairIiiEENS_13DefaultPolicyEE5eraseERKi
FNDA:13279,_ZN7emhash87HashMapIii13range4_hasherSt8equal_toIiESaISt4pairIiiEENS_13DefaultPolicyEE5eraseERKi
FN:880,_ZN7emhash87HashMapIii12const_hasherSt8equal_toIiESaISt4pairIiiEENS_13DefaultPolicyEE5eraseERKi
FNDA:23829,_ZN7emhash87HashMapIii12const_hasherSt8equal_toIiESaISt4pairIiiEENS_13DefaultPolicyEE5eraseERKi
FN:930,_ZN7emhash87HashMapIii13linear_hasherSt8equal_toIiESaISt4pairIiiEENS_13DefaultPolicyEE18need_explicit_dtorEv
FNDA:13121,_ZN7emhash87HashMapIii13linear_hasherSt8equal_toIiESaISt4pairIiiEENS_13DefaultPolicyEE18need_explicit_dtorEv
FN:930,_ZN7emhash87HashMapIii13range4_hasherSt8equal_toIiESaISt4pairIiiEENS_13DefaultPolicyEE18need_explicit_dtorEv
FNDA:13121,_ZN7emhash87HashMapIii13range4_hasherSt8equal_toIiESaISt4pairIiiEENS_13DefaultPolicyEE18need_explicit_dtorEv
FN:930,_ZN7emhash87HashMapIii12const_hasherSt8equal_toIiESaISt4pairIiiEENS_13DefaultPolicyEE18need_explicit_dtorEv
FNDA:23683,_ZN7emhash87HashMapIii12const_hasherSt8equal_toIiESaISt4pairIiiEENS_13DefaultPolicyEE18need_explicit_dtorEv
FN:938,_ZN7emhash87HashMapIii12const_hasherSt8equal_toIiESaISt4pairIiiEENS_13DefaultPolicyEE21is_trivially_copyableEv
FNDA:199,_ZN7emhash87HashMapIii12const_hasherSt8equal_toIiESaISt4pairIiiEENS_13DefaultPolicyEE21is_trivially_copyableEv
FN:938,_ZN7emhash87HashMapIii13range4_hasherSt8equal_toIiESaISt4pairIiiEENS_13DefaultPolicyEE21is_trivially_copyableEv
FNDA:104,_ZN7emhash87HashMapIii13range4_hasherSt8equal_toIiESaISt4pairIiiEENS_13DefaultPolicyEE21is_trivially_copyableEv
FN:938,_ZN7emhash87HashMapIii13linear_hasherSt8equal_toIiESaISt4pairIiiEENS_13DefaultPolicyEE21is_trivially_copyableEv
FNDA:104,_ZN7emhash87HashMapIii13linear_hasherSt8equal_toIiESaISt4pairIiiEENS_13DefaultPolicyEE21is_trivially_copyableEv
FN:946,_ZN7emhash87HashMapIii12const_hasherSt8equal_toIiESaISt4pairIiiEENS_13DefaultPolicyEE7clearkvEv
FNDA:24,_ZN7emhash87HashMapIii12const_hasherSt8equal_toIiESaISt4pairIiiEENS_13DefaultPolicyEE7clearkvEv
FN:946,_ZN7emhash87HashMapIii13range4_hasherSt8equal_toIiESaISt4pairIiiEENS_13DefaultPolicyEE7clearkvEv
FNDA:12,_ZN7emhash87HashMapIii13range4_hasherSt8equal_toIiESaISt4pairIiiEENS_13DefaultPolicyEE7clearkvEv
FN:946,_ZN7emhash87HashMapIii13linear_hasherSt8equal_toIiESaISt4pairIiiEENS_13DefaultPolicyEE7clearkvEv
FNDA:12,_ZN7emhash87HashMapIii13linear_hasherSt8equal_toIiESaISt4pairIiiEENS_13DefaultPolicyEE7clearkvEv
FN:954,_ZN7emhash87HashMapIii12const_hasherSt8equal_toIiESaISt4pairIiiEENS_13DefaultPolicyEE5clearEv
FNDA:1,_ZN7emhash87HashMapIii12const_hasherSt8equal_toIiESaISt4pairIiiEENS_13DefaultPolicyEE5clearEv
FN:1037,_ZN7emhash87HashMapIii13linear_hasherSt8equal_toIiESaISt4pairIiiEENS_13DefaultPolicyEE7reserveEmb
FNDA:50032,_ZN7emhash87HashMapIii13linear_hasherSt8equal_toIiESaISt4pairIiiEENS_13DefaultPolicyEE7reserveEmb
FN:1037,_ZN7emhash87HashMapIii13range4_hasherSt8equal_toIiESaISt4pairIiiEENS_13DefaultPolicyEE7reserveEmb
FNDA:50032,_ZN7emhash87HashMapIii13range4_hasherSt8equal_toIiESaISt4pairIiiEENS_13DefaultPolicyEE7reserveEmb
FN:1037,_ZN7emhash87HashMapIii12const_hasherSt8equal_toIiESaISt4pairIiiEENS_13DefaultPolicyEE7reserveEmb
FNDA:134982,_ZN7emhash87HashMapIii12const_hasherSt8equal_toIiESaISt4pairIiiEENS_13DefaultPolicyEE7reserveEmb
FN:1070,_ZN7emhash87HashMapIii13linear_hasherSt8equal_toIiESaISt4pairIiiEENS_13DefaultPolicyEE12alloc_bucketEj
FNDA:104,_ZN7emhash87HashMapIii13linear_hasherSt8equal_toIiESaISt4pairIiiEENS_13DefaultPolicyEE12alloc_bucketEj
FN:1070,_ZN7emhash87HashMapIii12const_hasherSt8equal_toIiESaISt4pairIiiEENS_13DefaultPolicyEE12alloc_bucketEj
FNDA:199,_ZN7emhash87HashMapIii12const_hasherSt8equal_toIiESaISt4pairIiiEENS_13DefaultPolicyEE12alloc_bucketEj
FN:1070,_ZN7emhash87HashMapIii13range4_hasherSt8equal_toIiESaISt4pairIiiEENS_13DefaultPolicyEE12alloc_bucketEj
FNDA:104,_ZN7emhash87HashMapIii13range4_hasherSt8equal_toIiESaISt4pairIiiEENS_13DefaultPolicyEE12alloc_bucketEj
FN:1079,_ZN7emhash87HashMapIii13linear_hasherSt8equal_toIiESaISt4pairIiiEENS_13DefaultPolicyEE14dealloc_bucketEPS5_j
FNDA:116,_ZN7emhash87HashMapIii13linear_hasherSt8equal_toIiESaISt4pairIiiEENS_13DefaultPolicyEE14dealloc_bucketEPS5_j
FN:1079,_ZN7emhash87HashMapIii13range4_hasherSt8equal_toIiESaISt4pairIiiEENS_13DefaultPolicyEE14dealloc_bucketEPS5_j
FNDA:116,_ZN7emhash87HashMapIii13range4_hasherSt8equal_toIiESaISt4pairIiiEENS_13DefaultPolicyEE14dealloc_bucketEPS5_j
FN:1079,_ZN7emhash87HashMapIii12const_hasherSt8equal_toIiESaISt4pairIiiEENS_13DefaultPolicyEE14dealloc_bucketEPS5_j
FNDA:222,_ZN7emhash87HashMapIii12const_hasherSt8equal_toIiESaISt4pairIiiEENS_13DefaultPolicyEE14dealloc_bucketEPS5_j
FN:1084,_ZN7emhash87HashMapIii13linear_hasherSt8equal_toIiESaISt4pairIiiEENS_13DefaultPolicyEE11alloc_indexEj
FNDA:104,_ZN7emhash87HashMapIii13linear_hasherSt8equal_toIiESaISt4pairIiiEENS_13DefaultPolicyEE11alloc_indexEj
FN:1084,_ZN7emhash87HashMapIii12const_hasherSt8equal_toIiESaISt4pairIiiEENS_13DefaultPolicyEE11alloc_indexEj
FNDA:199,_ZN7emhash87HashMapIii12const_hasherSt8equal_toIiESaISt4pairIiiEENS_13DefaultPolicyEE11alloc_indexEj
FN:1084,_ZN7emhash87HashMapIii13range4_hasherSt8equal_toIiESaISt4pairIiiEENS_13DefaultPolicyEE11alloc_indexEj
FNDA:104,_ZN7emhash87HashMapIii13range4_hasherSt8equal_toIiESaISt4pairIiiEENS_13DefaultPolicyEE11alloc_indexEj
FN:1094,_ZN7emhash87HashMapIii12const_hasherSt8equal_toIiESaISt4pairIiiEENS_13DefaultPolicyEE13dealloc_indexEPNS8_5IndexEj
FNDA:222,_ZN7emhash87HashMapIii12const_hasherSt8equal_toIiESaISt4pairIiiEENS_13DefaultPolicyEE13dealloc_indexEPNS8_5IndexEj
FN:1094,_ZN7emhash87HashMapIii13range4_hasherSt8equal_toIiESaISt4pairIiiEENS_13DefaultPolicyEE13dealloc_indexEPNS8_5IndexEj
FNDA:116,_ZN7emhash87HashMapIii13range4_hasherSt8equal_toIiESaISt4pairIiiEENS_13DefaultPolicyEE13dealloc_indexEPNS8_5IndexEj
FN:1094,_ZN7emhash87HashMapIii13linear_hasherSt8equal_toIiESaISt4pairIiiEENS_13DefaultPolicyEE13dealloc_indexEPNS8_5IndexEj
FNDA:116,_ZN7emhash87HashMapIii13linear_hasherSt8equal_toIiESaISt4pairIiiEENS_13DefaultPolicyEE13dealloc_indexEPNS8_5IndexEj
FN:1118,_ZN7emhash87HashMapIii12const_hasherSt8equal_toIiESaISt4pairIiiEENS_13DefaultPolicyEE7rebuildEjjj
FNDA:199,_ZN7emhash87HashMapIii12const_hasherSt8equal_toIiESaISt4pairIiiEENS_13DefaultPolicyEE7rebuildEjjj
FN:1118,_ZN7emhash87HashMapIii13range4_hasherSt8equal_toIiESaISt4pairIiiEENS_13DefaultPolicyEE7rebuildEjjj
FNDA:104,_ZN7emhash87HashMapIii13range4_hasherSt8equal_toIiESaISt4pairIiiEENS_13DefaultPolicyEE7rebuildEjjj
FN:1118,_ZN7emhash87HashMapIii13linear_hasherSt8equal_toIiESaISt4pairIiiEENS_13DefaultPolicyEE7rebuildEjjj
FNDA:104,_ZN7emhash87HashMapIii13linear_hasherSt8equal_toIiESaISt4pairIiiEENS_13DefaultPolicyEE7rebuildEjjj
FN:1144,_ZN7emhash87HashMapIii12const_hasherSt8equal_toIiESaISt4pairIiiEENS_13DefaultPolicyEE6rehashEm
FNDA:199,_ZN7emhash87HashMapIii12const_hasherSt8equal_toIiESaISt4pairIiiEENS_13DefaultPolicyEE6rehashEm
FN:1144,_ZN7emhash87HashMapIii13range4_hasherSt8equal_toIiESaISt4pairIiiEENS_13DefaultPolicyEE6rehashEm
FNDA:104,_ZN7emhash87HashMapIii13range4_hasherSt8equal_toIiESaISt4pairIiiEENS_13DefaultPolicyEE6rehashEm
FN:1144,_ZN7emhash87HashMapIii13linear_hasherSt8equal_toIiESaISt4pairIiiEENS_13DefaultPolicyEE6rehashEm
FNDA:104,_ZN7emhash87HashMapIii13linear_hasherSt8equal_toIiESaISt4pairIiiEENS_13DefaultPolicyEE6rehashEm
FN:1225,_ZN7emhash87HashMapIii12const_hasherSt8equal_toIiESaISt4pairIiiEENS_13DefaultPolicyEE17check_expand_needEv
FNDA:134982,_ZN7emhash87HashMapIii12const_hasherSt8equal_toIiESaISt4pairIiiEENS_13DefaultPolicyEE17check_expand_needEv
FN:1225,_ZN7emhash87HashMapIii13range4_hasherSt8equal_toIiESaISt4pairIiiEENS_13DefaultPolicyEE17check_expand_needEv
FNDA:50032,_ZN7emhash87HashMapIii13range4_hasherSt8equal_toIiESaISt4pairIiiEENS_13DefaultPolicyEE17check_expand_needEv
FN:1225,_ZN7emhash87HashMapIii13linear_hasherSt8equal_toIiESaISt4pairIiiEENS_13DefaultPolicyEE17check_expand_needEv
FNDA:50032,_ZN7emhash87HashMapIii13linear_hasherSt8equal_toIiESaISt4pairIiiEENS_13DefaultPolicyEE17check_expand_needEv
FN:1227,_ZN7emhash87HashMapIii13range4_hasherSt8equal_toIiESaISt4pairIiiEENS_13DefaultPolicyEE19prefetch_heap_blockEPc
FNDA:132417632,_ZN7emhash87HashMapIii13range4_hasherSt8equal_toIiESaISt4pairIiiEENS_13DefaultPolicyEE19prefetch_heap_blockEPc
FN:1227,_ZN7emhash87HashMapIii12const_hasherSt8equal_toIiESaISt4pairIiiEENS_13DefaultPolicyEE19prefetch_heap_blockEPc
FNDA:794161209,_ZN7emhash87HashMapIii12const_hasherSt8equal_toIiESaISt4pairIiiEENS_13DefaultPolicyEE19prefetch_heap_blockEPc
FN:1227,_ZN7emhash87HashMapIii13linear_hasherSt8equal_toIiESaISt4pairIiiEENS_13DefaultPolicyEE19prefetch_heap_blockEPc
FNDA:177182,_ZN7emhash87HashMapIii13linear_hasherSt8equal_toIiESaISt4pairIiiEENS_13DefaultPolicyEE19prefetch_heap_blockEPc
FN:1243,_ZNK7emhash87HashMapIii13range4_hasherSt8equal_toIiESaISt4pairIiiEENS_13DefaultPolicyEE14slot_to_bucketEj
FNDA:7558,_ZNK7emhash87HashMapIii13range4_hasherSt8equal_toIiESaISt4pairIiiEENS_13DefaultPolicyEE14slot_to_bucketEj
FN:1243,_ZNK7emhash87HashMapIii13linear_hasherSt8equal_toIiESaISt4pairIiiEENS_13DefaultPolicyEE14slot_to_bucketEj
FNDA:7558,_ZNK7emhash87HashMapIii13linear_hasherSt8equal_toIiESaISt4pairIiiEENS_13DefaultPolicyEE14slot_to_bucketEj
FN:1243,_ZNK7emhash87HashMapIii12const_hasherSt8equal_toIiESaISt4pairIiiEENS_13DefaultPolicyEE14slot_to_bucketEj
FNDA:18104,_ZNK7emhash87HashMapIii12const_hasherSt8equal_toIiESaISt4pairIiiEENS_13DefaultPolicyEE14slot_to_bucketEj
FN:1249,_ZN7emhash87HashMapIii12const_hasherSt8equal_toIiESaISt4pairIiiEENS_13DefaultPolicyEE10erase_slotEjj
FNDA:23659,_ZN7emhash87HashMapIii12const_hasherSt8equal_toIiESaISt4pairIiiEENS_13DefaultPolicyEE10erase_slotEjj
FN:1249,_ZN7emhash87HashMapIii13linear_hasherSt8equal_toIiESaISt4pairIiiEENS_13DefaultPolicyEE10erase_slotEjj
FNDA:13109,_ZN7emhash87HashMapIii13linear_hasherSt8equal_toIiESaISt4pairIiiEENS_13DefaultPolicyEE10erase_slotEjj
FN:1249,_ZN7emhash87HashMapIii13range4_hasherSt8equal_toIiESaISt4pairIiiEENS_13DefaultPolicyEE10erase_slotEjj
FNDA:13109,_ZN7emhash87HashMapIii13range4_hasherSt8equal_toIiESaISt4pairIiiEENS_13DefaultPolicyEE10erase_slotEjj
FN:1282,_ZN7emhash87HashMapIii12const_hasherSt8equal_toIiESaISt4pairIiiEENS_13DefaultPolicyEE12erase_bucketEjj
FNDA:23659,_ZN7emhash87HashMapIii12const_hasherSt8equal_toIiESaISt4pairIiiEENS_13DefaultPolicyEE12erase_bucketEjj
FN:1282,_ZN7emhash87HashMapIii13linear_hasherSt8equal_toIiESaISt4pairIiiEENS_13DefaultPolicyEE12erase_bucketEjj
FNDA:13109,_ZN7emhash87HashMapIii13linear_hasherSt8equal_toIiESaISt4pairIiiEENS_13DefaultPolicyEE12erase_bucketEjj
FN:1282,_ZN7emhash87HashMapIii13range4_hasherSt8equal_toIiESaISt4pairIiiEENS_13DefaultPolicyEE12erase_bucketEjj
FNDA:13109,_ZN7emhash87HashMapIii13range4_hasherSt8equal_toIiESaISt4pairIiiEENS_13DefaultPolicyEE12erase_bucketEjj
FN:1298,_ZNK7emhash87HashMapIii13range4_hasherSt8equal_toIiESaISt4pairIiiEENS_13DefaultPolicyEE16find_slot_bucketEjRj
FNDA:7558,_ZNK7emhash87HashMapIii13range4_hasherSt8equal_toIiESaISt4pairIiiEENS_13DefaultPolicyEE16find_slot_bucketEjRj
FN:1298,_ZNK7emhash87HashMapIii12const_hasherSt8equal_toIiESaISt4pairIiiEENS_13DefaultPolicyEE16find_slot_bucketEjRj
FNDA:18104,_ZNK7emhash87HashMapIii12const_hasherSt8equal_toIiESaISt4pairIiiEENS_13DefaultPolicyEE16find_slot_bucketEjRj
FN:1298,_ZNK7emhash87HashMapIii13linear_hasherSt8equal_toIiESaISt4pairIiiEENS_13DefaultPolicyEE16find_slot_bucketEjRj
FNDA:7558,_ZNK7emhash87HashMapIii13linear_hasherSt8equal_toIiESaISt4pairIiiEENS_13DefaultPolicyEE16find_slot_bucketEjRj
FN:1315,_ZNK7emhash87HashMapIii13range4_hasherSt8equal_toIiESaISt4pairIiiEENS_13DefaultPolicyEE18find_filled_bucketERKim
FNDA:13279,_ZNK7emhash87HashMapIii13range4_hasherSt8equal_toIiESaISt4pairIiiEENS_13DefaultPolicyEE18find_filled_bucketERKim
FN:1315,_ZNK7emhash87HashMapIii13linear_hasherSt8equal_toIiESaISt4pairIiiEENS_13DefaultPolicyEE18find_filled_bucketERKim
FNDA:13279,_ZNK7emhash87HashMapIii13linear_hasherSt8equal_toIiESaISt4pairIiiEENS_13DefaultPolicyEE18find_filled_bucketERKim
FN:1315,_ZNK7emhash87HashMapIii12const_hasherSt8equal_toIiESaISt4pairIiiEENS_13DefaultPolicyEE18find_filled_bucketERKim
FNDA:23829,_ZNK7emhash87HashMapIii12const_hasherSt8equal_toIiESaISt4pairIiiEENS_13DefaultPolicyEE18find_filled_bucketERKim
FN:1349,_ZNK7emhash87HashMapIii12const_hasherSt8equal_toIiESaISt4pairIiiEENS_13DefaultPolicyEE16find_filled_slotIiEEjRKT_
FNDA:168689,_ZNK7emhash87HashMapIii12const_hasherSt8equal_toIiESaISt4pairIiiEENS_13DefaultPolicyEE16find_filled_slotIiEEjRKT_
FN:1349,_ZNK7emhash87HashMapIii13range4_hasherSt8equal_toIiESaISt4pairIiiEENS_13DefaultPolicyEE16find_filled_slotIiEEjRKT_
FNDA:114289,_ZNK7emhash87HashMapIii13range4_hasherSt8equal_toIiESaISt4pairIiiEENS_13DefaultPolicyEE16find_filled_slotIiEEjRKT_
FN:1349,_ZNK7emhash87HashMapIii13linear_hasherSt8equal_toIiESaISt4pairIiiEENS_13DefaultPolicyEE16find_filled_slotIiEEjRKT_
FNDA:114289,_ZNK7emhash87HashMapIii13linear_hasherSt8equal_toIiESaISt4pairIiiEENS_13DefaultPolicyEE16find_filled_slotIiEEjRKT_
FN:1456,_ZN7emhash87HashMapIii13linear_hasherSt8equal_toIiESaISt4pairIiiEENS_13DefaultPolicyEE14kickout_bucketEjj
FNDA:0,_ZN7emhash87HashMapIii13linear_hasherSt8equal_toIiESaISt4pairIiiEENS_13DefaultPolicyEE14kickout_bucketEjj
FN:1456,_ZN7emhash87HashMapIii13range4_hasherSt8equal_toIiESaISt4pairIiiEENS_13DefaultPolicyEE14kickout_bucketEjj
FNDA:0,_ZN7emhash87HashMapIii13range4_hasherSt8equal_toIiESaISt4pairIiiEENS_13DefaultPolicyEE14kickout_bucketEjj
FN:1456,_ZN7emhash87HashMapIii12const_hasherSt8equal_toIiESaISt4pairIiiEENS_13DefaultPolicyEE14kickout_bucketEjj
FNDA:0,_ZN7emhash87HashMapIii12const_hasherSt8equal_toIiESaISt4pairIiiEENS_13DefaultPolicyEE14kickout_bucketEjj
FN:1477,_ZN7emhash87HashMapIii13range4_hasherSt8equal_toIiESaISt4pairIiiEENS_13DefaultPolicyEE16find_or_allocateIiEEjRKT_m
FNDA:50032,_ZN7emhash87HashMapIii13range4_hasherSt8equal_toIiESaISt4pairIiiEENS_13DefaultPolicyEE16find_or_allocateIiEEjRKT_m
FN:1477,_ZN7emhash87HashMapIii12const_hasherSt8equal_toIiESaISt4pairIiiEENS_13DefaultPolicyEE16find_or_allocateIiEEjRKT_m
FNDA:134982,_ZN7emhash87HashMapIii12const_hasherSt8equal_toIiESaISt4pairIiiEENS_13DefaultPolicyEE16find_or_allocateIiEEjRKT_m
FN:1477,_ZN7emhash87HashMapIii13linear_hasherSt8equal_toIiESaISt4pairIiiEENS_13DefaultPolicyEE16find_or_allocateIiEEjRKT_m
FNDA:50032,_ZN7emhash87HashMapIii13linear_hasherSt8equal_toIiESaISt4pairIiiEENS_13DefaultPolicyEE16find_or_allocateIiEEjRKT_m
FN:1615,_ZNK7emhash87HashMapIii13range4_hasherSt8equal_toIiESaISt4pairIiiEENS_13DefaultPolicyEE16find_last_bucketEj
FNDA:58636,_ZNK7emhash87HashMapIii13range4_hasherSt8equal_toIiESaISt4pairIiiEENS_13DefaultPolicyEE16find_last_bucketEj
FN:1615,_ZNK7emhash87HashMapIii13linear_hasherSt8equal_toIiESaISt4pairIiiEENS_13DefaultPolicyEE16find_last_bucketEj
FNDA:0,_ZNK7emhash87HashMapIii13linear_hasherSt8equal_toIiESaISt4pairIiiEENS_13DefaultPolicyEE16find_last_bucketEj
FN:1615,_ZNK7emhash87HashMapIii12const_hasherSt8equal_toIiESaISt4pairIiiEENS_13DefaultPolicyEE16find_last_bucketEj
FNDA:131843,_ZNK7emhash87HashMapIii12const_hasherSt8equal_toIiESaISt4pairIiiEENS_13DefaultPolicyEE16find_last_bucketEj
FN:1628,_ZNK7emhash87HashMapIii12const_hasherSt8equal_toIiESaISt4pairIiiEENS_13DefaultPolicyEE16find_prev_bucketEjj
FNDA:12555,_ZNK7emhash87HashMapIii12const_hasherSt8equal_toIiESaISt4pairIiiEENS_13DefaultPolicyEE16find_prev_bucketEjj
FN:1628,_ZNK7emhash87HashMapIii13range4_hasherSt8equal_toIiESaISt4pairIiiEENS_13DefaultPolicyEE16find_prev_bucketEjj
FNDA:2009,_ZNK7emhash87HashMapIii13range4_hasherSt8equal_toIiESaISt4pairIiiEENS_13DefaultPolicyEE16find_prev_bucketEjj
FN:1628,_ZNK7emhash87HashMapIii13linear_hasherSt8equal_toIiESaISt4pairIiiEENS_13DefaultPolicyEE16find_prev_bucketEjj
FNDA:0,_ZNK7emhash87HashMapIii13linear_hasherSt8equal_toIiESaISt4pairIiiEENS_13DefaultPolicyEE16find_prev_bucketEjj
FN:1641,_ZNK7emhash87HashMapIii12const_hasherSt8equal_toIiESaISt4pairIiiEENS_13DefaultPolicyEE11hash_bucketERKi
FNDA:134952,_ZNK7emhash87HashMapIii12const_hasherSt8equal_toIiESaISt4pairIiiEENS_13DefaultPolicyEE11hash_bucketERKi
FN:1641,_ZNK7emhash87HashMapIii13range4_hasherSt8equal_toIiESaISt4pairIiiEENS_13DefaultPolicyEE11hash_bucketERKi
FNDA:49972,_ZNK7emhash87HashMapIii13range4_hasherSt8equal_toIiESaISt4pairIiiEENS_13DefaultPolicyEE11hash_bucketERKi
FN:1641,_ZNK7emhash87HashMapIii13linear_hasherSt8equal_toIiESaISt4pairIiiEENS_13DefaultPolicyEE11hash_bucketERKi
FNDA:0,_ZNK7emhash87HashMapIii13linear_hasherSt8equal_toIiESaISt4pairIiiEENS_13DefaultPolicyEE11hash_bucketERKi
FN:1643,_ZNK7emhash87HashMapIii13range4_hasherSt8equal_toIiESaISt4pairIiiEENS_13DefaultPolicyEE9hash_mainEj
FNDA:58992,_ZNK7emhash87HashMapIii13range4_hasherSt8equal_toIiESaISt4pairIiiEENS_13DefaultPolicyEE9hash_mainEj
FN:1643,_ZNK7emhash87HashMapIii12const_hasherSt8equal_toIiESaISt4pairIiiEENS_13DefaultPolicyEE9hash_mainEj
FNDA:132019,_ZNK7emhash87HashMapIii12const_hasherSt8equal_toIiESaISt4pairIiiEENS_13DefaultPolicyEE9hash_mainEj
FN:1643,_ZNK7emhash87HashMapIii13linear_hasherSt8equal_toIiESaISt4pairIiiEENS_13DefaultPolicyEE9hash_mainEj
FNDA:0,_ZNK7emhash87HashMapIii13linear_hasherSt8equal_toIiESaISt4pairIiiEENS_13DefaultPolicyEE9hash_mainEj
DA:153,225289
DA:154,225289
DA:153,225289
DA:154,225289
DA:153,345189
DA:154,345189
DA:198,48850
DA:201,111000
DA:202,111000
DA:201,111000
DA:202,111000
DA:201,176500
DA:202,176500
DA:206,111000
DA:207,111000
DA:206,111000
DA:207,111000
DA:206,122100
DA:207,122100
DA:219,12
DA:220,12
DA:221,12
DA:222,12
DA:223,12
DA:224,12
DA:225,12
DA:226,12
DA:227,12
DA:228,12
DA:219,12
DA:220,12
DA:221,12
DA:222,12
DA:223,12
DA:224,12
DA:225,12
DA:226,12
DA:227,12
DA:228,12
DA:219,23
DA:220,23
DA:221,23
DA:222,23
DA:223,23
DA:224,23
DA:225,23
DA:226,23
DA:227,23
DA:228,23
DA:230,12
DA:230,12
DA:230,23
DA:346,12
DA:347,12
DA:348,12
DA:349,12
DA:350,12
DA:351,12
DA:352,12
DA:353,12
DA:346,12
DA:347,12
DA:348,12
DA:349,12
DA:350,12
DA:351,12
DA:352,12
DA:353,12
DA:346,23
DA:347,23
DA:348,23
DA:349,23
DA:350,23
DA:351,23
DA:352,23
DA:353,23
DA:418,111000
DA:418,111000
DA:418,176500
DA:425,4
DA:427,3
DA:427,3
DA:427,4
DA:428,3
DA:428,3
DA:428,4
DA:434,12
DA:435,12
DA:436,12
DA:439,12
DA:434,12
DA:435,12
DA:436,12
DA:439,12
DA:434,23
DA:435,23
DA:436,23
DA:439,23
DA:441,104
DA:441,104
DA:441,199
DA:442,760
DA:442,760
DA:442,1492
DA:571,114289
DA:571,114289
DA:571,168689
DA:850,50032
DA:851,50032
DA:852,100064
DA:853,50032
DA:854,50032
DA:856,44864
DA:859,50032
DA:860,50032
DA:850,50032
DA:851,50032
DA:852,100064
DA:853,50032
DA:854,50032
DA:856,44864
DA:859,50032
DA:860,50032
DA:850,134982
DA:851,134982
DA:852,269964
DA:853,134982
DA:854,134982
DA:856,108714
DA:859,134982
DA:860,134982
DA:880,13279
DA:881,26558
DA:882,13279
DA:883,13279
DA:884,170
DA:886,13109
DA:887,13109
DA:888,13109
DA:880,13279
DA:881,26558
DA:882,13279
DA:883,13279
DA:884,170
DA:886,13109
DA:887,13109
DA:888,13109
DA:880,23829
DA:881,47658
DA:882,23829
DA:883,23829
DA:884,170
DA:886,23659
DA:887,23659
DA:888,23659
DA:930,13121
DA:932,13121
DA:930,13121
DA:932,13121
DA:930,23683
DA:932,23683
DA:938,104
DA:940,104
DA:938,104
DA:940,104
DA:938,199
DA:940,199
DA:946,12
DA:947,12
DA:948,0
DA:949,0
DA:951,12
DA:946,12
DA:947,12
DA:948,0
DA:949,0
DA:951,12
DA:946,24
DA:947,24
DA:948,0
DA:949,0
DA:951,24
DA:954,1
DA:955,1
DA:957,1
DA:958,1
DA:960,1
DA:961,1
DA:966,1
DA:1037,50032
DA:1040,50032
DA:1041,50032
DA:1042,49940
DA:1066,92
DA:1067,92
DA:1037,50032
DA:1040,50032
DA:1041,50032
DA:1042,49940
DA:1066,92
DA:1067,92
DA:1037,134982
DA:1040,134982
DA:1041,134982
DA:1042,134806
DA:1066,176
DA:1067,176
DA:1070,104
DA:1071,104
DA:1072,0
DA:1073,104
DA:1074,104
DA:1075,0
DA:1076,104
DA:1070,104
DA:1071,104
DA:1072,0
DA:1073,104
DA:1074,104
DA:1075,0
DA:1076,104
DA:1070,199
DA:1071,199
DA:1072,0
DA:1073,199
DA:1074,199
DA:1075,0
DA:1076,199
DA:1079,116
DA:1080,116
DA:1081,104
DA:1082,116
DA:1079,116
DA:1080,116
DA:1081,104
DA:1082,116
DA:1079,222
DA:1080,222
DA:1081,199
DA:1082,222
DA:1084,104
DA:1086,104
DA:1087,0
DA:1088,104
DA:1089,104
DA:1090,0
DA:1091,104
DA:1084,104
DA:1086,104
DA:1087,0
DA:1088,104
DA:1089,104
DA:1090,0
DA:1091,104
DA:1084,199
DA:1086,199
DA:1087,0
DA:1088,199
DA:1089,199
DA:1090,0
DA:1091,199
DA:1094,116
DA:1095,116
DA:1096,104
DA:1097,116
DA:1094,116
DA:1095,116
DA:1096,104
DA:1097,116
DA:1094,222
DA:1095,222
DA:1096,199
DA:1097,222
DA:1118,104
DA:1119,104
DA:1120,104
DA:1121,104
DA:1122,104
DA:1123,104
DA:1124,92
DA:1126,0
DA:1127,0
DA:1128,0
DA:1129,0
DA:1132,104
DA:1133,104
DA:1134,104
DA:1136,104
DA:1137,104
DA:1138,104
DA:1140,104
DA:1141,104
DA:1142,104
DA:1118,104
DA:1119,104
DA:1120,104
DA:1121,104
DA:1122,104
DA:1123,104
DA:1124,92
DA:1126,0
DA:1127,0
DA:1128,0
DA:1129,0
DA:1132,104
DA:1133,104
DA:1134,104
DA:1136,104
DA:1137,104
DA:1138,104
DA:1140,104
DA:1141,104
DA:1142,104
DA:1118,199
DA:1119,199
DA:1120,199
DA:1121,199
DA:1122,199
DA:1123,199
DA:1124,176
DA:1126,0
DA:1127,0
DA:1128,0
DA:1129,0
DA:1132,199
DA:1133,199
DA:1134,199
DA:1136,199
DA:1137,199
DA:1138,199
DA:1140,199
DA:1141,199
DA:1142,199
DA:1144,104
DA:1145,104
DA:1146,0
DA:1148,104
DA:1149,656
DA:1150,552
DA:1151,552
DA:1152,0
DA:1160,104
DA:1170,104
DA:1172,104
DA:1177,104
DA:1178,104
DA:1180,104
DA:1192,104
DA:1193,59464
DA:1194,59360
DA:1195,118720
DA:1196,59360
DA:1197,59360
DA:1144,104
DA:1145,104
DA:1146,0
DA:1148,104
DA:1149,656
DA:1150,552
DA:1151,552
DA:1152,0
DA:1160,104
DA:1170,104
DA:1172,104
DA:1177,104
DA:1178,104
DA:1180,104
DA:1192,104
DA:1193,59464
DA:1194,59360
DA:1195,118720
DA:1196,59360
DA:1197,59360
DA:1144,199
DA:1145,199
DA:1146,0
DA:1148,199
DA:1149,1293
DA:1150,1094
DA:1151,1094
DA:1152,0
DA:1160,199
DA:1170,199
DA:1172,199
DA:1177,199
DA:1178,199
DA:1180,199
DA:1192,199
DA:1193,132394
DA:1194,132195
DA:1195,264390
DA:1196,132195
DA:1197,132195
DA:1225,50032
DA:1225,50032
DA:1225,134982
DA:1227,177182
DA:1231,177182
DA:1237,177182
DA:1227,132417632
DA:1231,132417632
DA:1237,132417632
DA:1227,794161209
DA:1231,794161209
DA:1237,794161209
DA:1241,235046
DA:1243,7558
DA:1245,7558
DA:1243,7558
DA:1245,7558
DA:1243,18104
DA:1245,18104
DA:1249,13109
DA:1250,13109
DA:1251,13109
DA:1253,13109
DA:1255,13109
DA:1256,13109
DA:1257,13109
DA:1261,7558
DA:1263,7558
DA:1264,7558
DA:1267,13109
DA:1268,0
DA:1270,13109
DA:1271,13109
DA:1280,13109
DA:1249,13109
DA:1250,13109
DA:1251,13109
DA:1253,13109
DA:1255,13109
DA:1256,13109
DA:1257,13109
DA:1261,7558
DA:1263,7558
DA:1264,7558
DA:1267,13109
DA:1268,0
DA:1270,13109
DA:1271,13109
DA:1280,13109
DA:1249,23659
DA:1250,23659
DA:1251,23659
DA:1253,23659
DA:1255,23659
DA:1256,23659
DA:1257,23659
DA:1261,18104
DA:1263,18104
DA:1264,18104
DA:1267,23659
DA:1268,0
DA:1270,23659
DA:1271,23659
DA:1280,23659
DA:1282,13109
DA:1283,13109
DA:1284,13109
DA:1285,13109
DA:1286,0
DA:1287,0
DA:1289,13109
DA:1292,0
DA:1293,0
DA:1294,0
DA:1282,13109
DA:1283,13109
DA:1284,13109
DA:1285,11100
DA:1286,11088
DA:1287,11088
DA:1289,11100
DA:1292,2009
DA:1293,2009
DA:1294,2009
DA:1282,23659
DA:1283,23659
DA:1284,23659
DA:1285,11104
DA:1286,11101
DA:1287,11101
DA:1289,11104
DA:1292,12555
DA:1293,12555
DA:1294,12555
DA:1298,7558
DA:1299,15116
DA:1300,7558
DA:1301,7558
DA:1302,7558
DA:1304,0
DA:1306,0
DA:1307,0
DA:1308,0
DA:1298,7558
DA:1299,15116
DA:1300,7558
DA:1301,7558
DA:1302,6
DA:1304,7552
DA:1306,10282722
DA:1307,7552
DA:1308,10275170
DA:1298,18104
DA:1299,36208
DA:1300,18104
DA:1301,18104
DA:1302,0
DA:1304,18104
DA:1306,96415351
DA:1307,18104
DA:1308,96397247
DA:1315,13279
DA:1316,13279
DA:1317,13279
DA:1318,13279
DA:1319,13279
DA:1320,170
DA:1322,13109
DA:1323,13109
DA:1324,13109
DA:1325,13109
DA:1326,13109
DA:1328,0
DA:1329,0
DA:1331,0
DA:1332,0
DA:1333,0
DA:1334,0
DA:1335,0
DA:1338,0
DA:1339,0
DA:1340,0
DA:1341,0
DA:1342,0
DA:1315,13279
DA:1316,13279
DA:1317,13279
DA:1318,13279
DA:1319,13279
DA:1320,0
DA:1322,13279
DA:1323,13279
DA:1324,13279
DA:1325,13279
DA:1326,11100
DA:1328,2179
DA:1329,0
DA:1331,2451972
DA:1332,2454151
DA:1333,2454151
DA:1334,2454151
DA:1335,2009
DA:1338,2452142
DA:1339,2452142
DA:1340,170
DA:1341,2451972
DA:1342,2451972
DA:1315,23829
DA:1316,23829
DA:1317,23829
DA:1318,23829
DA:1319,23829
DA:1320,0
DA:1322,23829
DA:1323,23829
DA:1324,23829
DA:1325,23829
DA:1326,11104
DA:1328,12725
DA:1329,0
DA:1331,34925881
DA:1332,34938606
DA:1333,34938606
DA:1334,34938606
DA:1335,12555
DA:1338,34926051
DA:1339,34926051
DA:1340,170
DA:1341,34925881
DA:1342,34925881
DA:1349,114289
DA:1350,228578
DA:1351,114289
DA:1352,114289
DA:1353,114289
DA:1354,114289
DA:1355,248
DA:1357,114041
DA:1358,114041
DA:1359,114041
DA:1360,114041
DA:1361,114041
DA:1363,0
DA:1364,0
DA:1366,0
DA:1367,0
DA:1368,0
DA:1369,0
DA:1370,0
DA:1373,0
DA:1374,0
DA:1375,0
DA:1376,0
DA:1377,0
DA:1349,114289
DA:1350,228578
DA:1351,114289
DA:1352,114289
DA:1353,114289
DA:1354,114289
DA:1355,0
DA:1357,114289
DA:1358,114289
DA:1359,114289
DA:1360,114289
DA:1361,126
DA:1363,114163
DA:1364,0
DA:1366,129743268
DA:1367,129857431
DA:1368,129857431
DA:1369,129857431
DA:1370,113915
DA:1373,129743516
DA:1374,129743516
DA:1375,248
DA:1376,129743268
DA:1377,129743268
DA:1349,168689
DA:1350,337378
DA:1351,168689
DA:1352,168689
DA:1353,168689
DA:1354,168689
DA:1355,0
DA:1357,168689
DA:1358,168689
DA:1359,168689
DA:1360,168689
DA:1361,44
DA:1363,168645
DA:1364,0
DA:1366,758799160
DA:1367,758967805
DA:1368,758967805
DA:1369,758967805
DA:1370,162847
DA:1373,758804958
DA:1374,758804958
DA:1375,5798
DA:1376,758799160
DA:1377,758799160
DA:1456,0
DA:1457,0
DA:1458,0
DA:1459,0
DA:1461,0
DA:1462,0
DA:1464,0
DA:1465,0
DA:1467,0
DA:1456,0
DA:1457,0
DA:1458,0
DA:1459,0
DA:1461,0
DA:1462,0
DA:1464,0
DA:1465,0
DA:1467,0
DA:1456,0
DA:1457,0
DA:1458,0
DA:1459,0
DA:1461,0
DA:1462,0
DA:1464,0
DA:1465,0
DA:1467,0
DA:1477,50032
DA:1478,50032
DA:1479,50032
DA:1480,50032
DA:1481,50032
DA:1482,50032
DA:1487,44864
DA:1490,5168
DA:1491,5168
DA:1492,5168
DA:1493,5168
DA:1496,0
DA:1497,0
DA:1498,0
DA:1499,0
DA:1500,0
DA:1502,0
DA:1504,0
DA:1505,0
DA:1506,0
DA:1507,0
DA:1508,0
DA:1511,0
DA:1512,0
DA:1513,0
DA:1514,0
DA:1515,0
DA:1519,0
DA:1520,0
DA:1521,0
DA:1477,50032
DA:1478,50032
DA:1479,50032
DA:1480,50032
DA:1481,50032
DA:1482,50032
DA:1487,48
DA:1490,49984
DA:1491,49984
DA:1492,49984
DA:1493,12
DA:1496,49972
DA:1497,49972
DA:1498,0
DA:1499,49972
DA:1500,48
DA:1502,49924
DA:1504,56762531
DA:1505,56812455
DA:1506,56812455
DA:1507,56812455
DA:1508,5156
DA:1511,56807299
DA:1512,56807299
DA:1513,56807299
DA:1514,44768
DA:1515,56762531
DA:1519,44768
DA:1520,44768
DA:1521,44768
DA:1477,134982
DA:1478,134982
DA:1479,134982
DA:1480,134982
DA:1481,134982
DA:1482,134982
DA:1487,23
DA:1490,134959
DA:1491,134959
DA:1492,134959
DA:1493,7
DA:1496,134952
DA:1497,134952
DA:1498,0
DA:1499,134952
DA:1500,23
DA:1502,134929
DA:1504,654617510
DA:1505,654752439
DA:1506,654752439
DA:1507,654752439
DA:1508,26261
DA:1511,654726178
DA:1512,654726178
DA:1513,654726178
DA:1514,108668
DA:1515,654617510
DA:1519,108668
DA:1520,108668
DA:1521,108668
DA:1525,250915
DA:1526,250915
DA:1527,250915
DA:1532,59904
DA:1536,191011
DA:1537,191011
DA:1538,0
DA:1539,191011
DA:1540,190479
DA:1542,191011
DA:1561,344518
DA:1567,344518
DA:1568,785396
DA:1569,284799
DA:1580,59719
DA:1581,59891
DA:1582,59867
DA:1583,119095
DA:1584,59695
DA:1585,172
DA:1589,24
DA:1591,9584
DA:1604,9608
DA:1605,19216
DA:1606,0
DA:1608,9608
DA:1609,9608
DA:1610,24
DA:1615,0
DA:1616,0
DA:1617,0
DA:1618,0
DA:1620,0
DA:1621,0
DA:1622,0
DA:1623,0
DA:1624,0
DA:1615,58636
DA:1616,58636
DA:1617,58636
DA:1618,320
DA:1620,28882920
DA:1621,28941236
DA:1622,28941236
DA:1623,58316
DA:1624,28882920
DA:1615,131843
DA:1616,131843
DA:1617,131843
DA:1618,176
DA:1620,275486539
DA:1621,275618206
DA:1622,275618206
DA:1623,131667
DA:1624,275486539
DA:1628,0
DA:1629,0
DA:1630,0
DA:1631,0
DA:1633,0
DA:1634,0
DA:1635,0
DA:1636,0
DA:1637,0
DA:1628,2009
DA:1629,2009
DA:1630,2009
DA:1631,2
DA:1633,2103470
DA:1634,2105477
DA:1635,2105477
DA:1636,2007
DA:1637,2103470
DA:1628,12555
DA:1629,12555
DA:1630,12555
DA:1631,4
DA:1633,33526357
DA:1634,33538908
DA:1635,33538908
DA:1636,12551
DA:1637,33526357
DA:1641,0
DA:1641,49972
DA:1641,134952
DA:1643,0
DA:1644,0
DA:1645,0
DA:1643,58992
DA:1644,58992
DA:1645,58992
DA:1643,132019
DA:1644,132019
DA:1645,132019
DA:1792,1342770
end_of_record
SF:/mnt/d/emhash/include/emhash/hash_table7.hpp
FN:181,_ZN7emhash7L3CTZEm
FNDA:344518,_ZN7emhash7L3CTZEm
FN:216,_ZN7emhash75entryIiiEC2EOiS2_j
FNDA:250915,_ZN7emhash75entryIiiEC2EOiS2_j
FN:221,_ZN7emhash75entryIiiEC2IRKiiEEOT_OT0_j
FNDA:198442,_ZN7emhash75entryIiiEC2IRKiiEEOT_OT0_j
FN:237,_ZN7emhash75entryIiiEC2EOS1_
FNDA:0,_ZN7emhash75entryIiiEC2EOS1_
FN:246,_ZN7emhash75entryIiiEaSERKS1_
FNDA:7350,_ZN7emhash75entryIiiEaSERKS1_
FN:260,_ZN7emhash75entryIiiE4swapERS1_
FNDA:0,_ZN7emhash75entryIiiE4swapERS1_
FN:348,_ZN7emhash77HashMapIii13range4_hasherSt8equal_toIiESaISt4pairIiiEEE8iteratorC2EPKS7_j
FNDA:225289,_ZN7emhash77HashMapIii13range4_hasherSt8equal_toIiESaISt4pairIiiEEE8iteratorC2EPKS7_j
FN:348,_ZN7emhash77HashMapIii12const_hasherSt8equal_toIiESaISt4pairIiiEEE8iteratorC2EPKS7_j
FNDA:345189,_ZN7emhash77HashMapIii12const_hasherSt8equal_toIiESaISt4pairIiiEEE8iteratorC2EPKS7_j
FN:348,_ZN7emhash77HashMapIii13linear_hasherSt8equal_toIiESaISt4pairIiiEEE8iteratorC2EPKS7_j
FNDA:225289,_ZN7emhash77HashMapIii13linear_hasherSt8equal_toIiESaISt4pairIiiEEE8iteratorC2EPKS7_j
FN:353,_ZN7emhash77HashMapIii13range4_hasherSt8equal_toIiESaISt4pairIiiEEE8iterator4initEv
FNDA:0,_ZN7emhash77HashMapIii13range4_hasherSt8equal_toIiESaISt4pairIiiEEE8iterator4initEv
FN:353,_ZN7emhash77HashMapIii13linear_hasherSt8equal_toIiESaISt4pairIiiEEE8iterator4initEv
FNDA:0,_ZN7emhash77HashMapIii13linear_hasherSt8equal_toIiESaISt4pairIiiEEE8iterator4initEv
FN:353,_ZN7emhash77HashMapIii12const_hasherSt8equal_toIiESaISt4pairIiiEEE8iterator4initEv
FNDA:0,_ZN7emhash77HashMapIii12const_hasherSt8equal_toIiESaISt4pairIiiEEE8iterator4initEv
FN:371,_ZN7emhash77HashMapIii13range4_hasherSt8equal_toIiESaISt4pairIiiEEE8iterator4nextEv
FNDA:0,_ZN7emhash77HashMapIii13range4_hasherSt8equal_toIiESaISt4pairIiiEEE8iterator4nextEv
FN:371,_ZN7emhash77HashMapIii12const_hasherSt8equal_toIiESaISt4pairIiiEEE8iterator4nextEv
FNDA:0,_ZN7emhash77HashMapIii12const_hasherSt8equal_toIiESaISt4pairIiiEEE8iterator4nextEv
FN:371,_ZN7emhash77HashMapIii13linear_hasherSt8equal_toIiESaISt4pairIiiEEE8iterator4nextEv
FNDA:0,_ZN7emhash77HashMapIii13linear_hasherSt8equal_toIiESaISt4pairIiiEEE8iterator4nextEv
FN:399,_ZNK7emhash77HashMapIii12const_hasherSt8equal_toIiESaISt4pairIiiEEE8iteratorptEv
FNDA:48850,_ZNK7emhash77HashMapIii12const_hasherSt8equal_toIiESaISt4pairIiiEEE8iteratorptEv
FN:401,_ZNK7emhash77HashMapIii12const_hasherSt8equal_toIiESaISt4pairIiiEEE8iteratoreqERKS8_
FNDA:54400,_ZNK7emhash77HashMapIii12const_hasherSt8equal_toIiESaISt4pairIiiEEE8iteratoreqERKS8_
FN:402,_ZNK7emhash77HashMapIii13linear_hasherSt8equal_toIiESaISt4pairIiiEEE8iteratorneERKS8_
FNDA:111000,_ZNK7emhash77HashMapIii13linear_hasherSt8equal_toIiESaISt4pairIiiEEE8iteratorneERKS8_
FN:402,_ZNK7emhash77HashMapIii13range4_hasherSt8equal_toIiESaISt4pairIiiEEE8iteratorneERKS8_
FNDA:111000,_ZNK7emhash77HashMapIii13range4_hasherSt8equal_toIiESaISt4pairIiiEEE8iteratorneERKS8_
FN:402,_ZNK7emhash77HashMapIii12const_hasherSt8equal_toIiESaISt4pairIiiEEE8iteratorneERKS8_
FNDA:122100,_ZNK7emhash77HashMapIii12const_hasherSt8equal_toIiESaISt4pairIiiEEE8iteratorneERKS8_
FN:407,_ZN7emhash77HashMapIii13linear_hasherSt8equal_toIiESaISt4pairIiiEEE8iterator17goto_next_elementEv
FNDA:0,_ZN7emhash77HashMapIii13linear_hasherSt8equal_toIiESaISt4pairIiiEEE8iterator17goto_next_elementEv
FN:407,_ZN7emhash77HashMapIii12const_hasherSt8equal_toIiESaISt4pairIiiEEE8iterator17goto_next_elementEv
FNDA:0,_ZN7emhash77HashMapIii12const_hasherSt8equal_toIiESaISt4pairIiiEEE8iterator17goto_next_elementEv
FN:407,_ZN7emhash77HashMapIii13range4_hasherSt8equal_toIiESaISt4pairIiiEEE8iterator17goto_next_elementEv
FNDA:0,_ZN7emhash77HashMapIii13range4_hasherSt8equal_toIiESaISt4pairIiiEEE8iterator17goto_next_elementEv
FN:437,_ZN7emhash77HashMapIii12const_hasherSt8equal_toIiESaISt4pairIiiEEE14const_iteratorC2ERKNS7_8iteratorE
FNDA:0,_ZN7emhash77HashMapIii12const_hasherSt8equal_toIiESaISt4pairIiiEEE14const_iteratorC2ERKNS7_8iteratorE
FN:437,_ZN7emhash77HashMapIii13range4_hasherSt8equal_toIiESaISt4pairIiiEEE14const_iteratorC2ERKNS7_8iteratorE
FNDA:0,_ZN7emhash77HashMapIii13range4_hasherSt8equal_toIiESaISt4pairIiiEEE14const_iteratorC2ERKNS7_8iteratorE
FN:437,_ZN7emhash77HashMapIii13linear_hasherSt8equal_toIiESaISt4pairIiiEEE14const_iteratorC2ERKNS7_8iteratorE
FNDA:0,_ZN7emhash77HashMapIii13linear_hasherSt8equal_toIiESaISt4pairIiiEEE14const_iteratorC2ERKNS7_8iteratorE
FN:442,_ZN7emhash77HashMapIii13range4_hasherSt8equal_toIiESaISt4pairIiiEEE14const_iteratorC2EPKS7_j
FNDA:0,_ZN7emhash77HashMapIii13range4_hasherSt8equal_toIiESaISt4pairIiiEEE14const_iteratorC2EPKS7_j
FN:442,_ZN7emhash77HashMapIii13linear_hasherSt8equal_toIiESaISt4pairIiiEEE14const_iteratorC2EPKS7_j
FNDA:0,_ZN7emhash77HashMapIii13linear_hasherSt8equal_toIiESaISt4pairIiiEEE14const_iteratorC2EPKS7_j
FN:442,_ZN7emhash77HashMapIii12const_hasherSt8equal_toIiESaISt4pairIiiEEE14const_iteratorC2EPKS7_j
FNDA:0,_ZN7emhash77HashMapIii12const_hasherSt8equal_toIiESaISt4pairIiiEEE14const_iteratorC2EPKS7_j
FN:447,_ZN7emhash77HashMapIii13linear_hasherSt8equal_toIiESaISt4pairIiiEEE14const_iterator4initEv
FNDA:0,_ZN7emhash77HashMapIii13linear_hasherSt8equal_toIiESaISt4pairIiiEEE14const_iterator4initEv
FN:447,_ZN7emhash77HashMapIii13range4_hasherSt8equal_toIiESaISt4pairIiiEEE14const_iterator4initEv
FNDA:0,_ZN7emhash77HashMapIii13range4_hasherSt8equal_toIiESaISt4pairIiiEEE14const_iterator4initEv
FN:447,_ZN7emhash77HashMapIii12const_hasherSt8equal_toIiESaISt4pairIiiEEE14const_iterator4initEv
FNDA:0,_ZN7emhash77HashMapIii12const_hasherSt8equal_toIiESaISt4pairIiiEEE14const_iterator4initEv
FN:458,_ZNK7emhash77HashMapIii12const_hasherSt8equal_toIiESaISt4pairIiiEEE14const_iterator6bucketEv
FNDA:0,_ZNK7emhash77HashMapIii12const_hasherSt8equal_toIiESaISt4pairIiiEEE14const_iterator6bucketEv
FN:460,_ZN7emhash77HashMapIii13range4_hasherSt8equal_toIiESaISt4pairIiiEEE14const_iteratorppEv
FNDA:0,_ZN7emhash77HashMapIii13range4_hasherSt8equal_toIiESaISt4pairIiiEEE14const_iteratorppEv
FN:460,_ZN7emhash77HashMapIii13linear_hasherSt8equal_toIiESaISt4pairIiiEEE14const_iteratorppEv
FNDA:0,_ZN7emhash77HashMapIii13linear_hasherSt8equal_toIiESaISt4pairIiiEEE14const_iteratorppEv
FN:460,_ZN7emhash77HashMapIii12const_hasherSt8equal_toIiESaISt4pairIiiEEE14const_iteratorppEv
FNDA:0,_ZN7emhash77HashMapIii12const_hasherSt8equal_toIiESaISt4pairIiiEEE14const_iteratorppEv
FN:481,_ZNK7emhash77HashMapIii13linear_hasherSt8equal_toIiESaISt4pairIiiEEE14const_iteratorptEv
FNDA:0,_ZNK7emhash77HashMapIii13linear_hasherSt8equal_toIiESaISt4pairIiiEEE14const_iteratorptEv
FN:481,_ZNK7emhash77HashMapIii13range4_hasherSt8equal_toIiESaISt4pairIiiEEE14const_iteratorptEv
FNDA:0,_ZNK7emhash77HashMapIii13range4_hasherSt8equal_toIiESaISt4pairIiiEEE14const_iteratorptEv
FN:481,_ZNK7emhash77HashMapIii12const_hasherSt8equal_toIiESaISt4pairIiiEEE14const_iteratorptEv
FNDA:0,_ZNK7emhash77HashMapIii12const_hasherSt8equal_toIiESaISt4pairIiiEEE14const_iteratorptEv
FN:487,_ZN7emhash77HashMapIii13range4_hasherSt8equal_toIiESaISt4pairIiiEEE14const_iterator17goto_next_elementEv
FNDA:0,_ZN7emhash77HashMapIii13range4_hasherSt8equal_toIiESaISt4pairIiiEEE14const_iterator17goto_next_elementEv
FN:487,_ZN7emhash77HashMapIii12const_hasherSt8equal_toIiESaISt4pairIiiEEE14const_iterator17goto_next_elementEv
FNDA:0,_ZN7emhash77HashMapIii12const_hasherSt8equal_toIiESaISt4pairIiiEEE14const_iterator17goto_next_elementEv
FN:487,_ZN7emhash77HashMapIii13linear_hasherSt8equal_toIiESaISt4pairIiiEEE14const_iterator17goto_next_elementEv
FNDA:0,_ZN7emhash77HashMapIii13linear_hasherSt8equal_toIiESaISt4pairIiiEEE14const_iterator17goto_next_elementEv
FN:509,_ZN7emhash77HashMapIii12const_hasherSt8equal_toIiESaISt4pairIiiEEE4initEjf
FNDA:23,_ZN7emhash77HashMapIii12const_hasherSt8equal_toIiESaISt4pairIiiEEE4initEjf
FN:509,_ZN7emhash77HashMapIii13linear_hasherSt8equal_toIiESaISt4pairIiiEEE4initEjf
FNDA:12,_ZN7emhash77HashMapIii13linear_hasherSt8equal_toIiESaISt4pairIiiEEE4initEjf
FN:509,_ZN7emhash77HashMapIii13range4_hasherSt8equal_toIiESaISt4pairIiiEEE4initEjf
FNDA:12,_ZN7emhash77HashMapIii13range4_hasherSt8equal_toIiESaISt4pairIiiEEE4initEjf
FN:518,_ZN7emhash77HashMapIii13linear_hasherSt8equal_toIiESaISt4pairIiiEEEC2Ejf
FNDA:12,_ZN7emhash77HashMapIii13linear_hasherSt8equal_toIiESaISt4pairIiiEEEC2Ejf
FN:518,_ZN7emhash77HashMapIii13range4_hasherSt8equal_toIiESaISt4pairIiiEEEC2Ejf
FNDA:12,_ZN7emhash77HashMapIii13range4_hasherSt8equal_toIiESaISt4pairIiiEEEC2Ejf
FN:518,_ZN7emhash77HashMapIii12const_hasherSt8equal_toIiESaISt4pairIiiEEEC2Ejf
FNDA:23,_ZN7emhash77HashMapIii12const_hasherSt8equal_toIiESaISt4pairIiiEEEC2Ejf
FN:524,_ZN7emhash77HashMapIii13range4_hasherSt8equal_toIiESaISt4pairIiiEEE9AllocSizeEm
FNDA:208,_ZN7emhash77HashMapIii13range4_hasherSt8equal_toIiESaISt4pairIiiEEE9AllocSizeEm
FN:524,_ZN7emhash77HashMapIii12const_hasherSt8equal_toIiESaISt4pairIiiEEE9AllocSizeEm
FNDA:398,_ZN7emhash77HashMapIii12const_hasherSt8equal_toIiESaISt4pairIiiEEE9AllocSizeEm
FN:524,_ZN7emhash77HashMapIii13linear_hasherSt8equal_toIiESaISt4pairIiiEEE9AllocSizeEm
FNDA:208,_ZN7emhash77HashMapIii13linear_hasherSt8equal_toIiESaISt4pairIiiEEE9AllocSizeEm
FN:528,_ZN7emhash77HashMapIii12const_hasherSt8equal_toIiESaISt4pairIiiEEE11alloc_countEj
FNDA:398,_ZN7emhash77HashMapIii12const_hasherSt8equal_toIiESaISt4pairIiiEEE11alloc_countEj
FN:528,_ZN7emhash77HashMapIii13linear_hasherSt8equal_toIiESaISt4pairIiiEEE11alloc_countEj
FNDA:208,_ZN7emhash77HashMapIii13linear_hasherSt8equal_toIiESaISt4pairIiiEEE11alloc_countEj
FN:528,_ZN7emhash77HashMapIii13range4_hasherSt8equal_toIiESaISt4pairIiiEEE11alloc_countEj
FNDA:208,_ZN7emhash77HashMapIii13range4_hasherSt8equal_toIiESaISt4pairIiiEEE11alloc_countEj
FN:532,_ZN7emhash77HashMapIii13linear_hasherSt8equal_toIiESaISt4pairIiiEEE12alloc_bucketEj
FNDA:104,_ZN7emhash77HashMapIii13linear_hasherSt8equal_toIiESaISt4pairIiiEEE12alloc_bucketEj
FN:532,_ZN7emhash77HashMapIii13range4_hasherSt8equal_toIiESaISt4pairIiiEEE12alloc_bucketEj
FNDA:104,_ZN7emhash77HashMapIii13range4_hasherSt8equal_toIiESaISt4pairIiiEEE12alloc_bucketEj
FN:532,_ZN7emhash77HashMapIii12const_hasherSt8equal_toIiESaISt4pairIiiEEE12alloc_bucketEj
FNDA:199,_ZN7emhash77HashMapIii12const_hasherSt8equal_toIiESaISt4pairIiiEEE12alloc_bucketEj
FN:542,_ZN7emhash77HashMapIii13linear_hasherSt8equal_toIiESaISt4pairIiiEEE14dealloc_bucketEPNS_5entryIiiEEj
FNDA:116,_ZN7emhash77HashMapIii13linear_hasherSt8equal_toIiESaISt4pairIiiEEE14dealloc_bucketEPNS_5entryIiiEEj
FN:542,_ZN7emhash77HashMapIii12const_hasherSt8equal_toIiESaISt4pairIiiEEE14dealloc_bucketEPNS_5entryIiiEEj
FNDA:222,_ZN7emhash77HashMapIii12const_hasherSt8equal_toIiESaISt4pairIiiEEE14dealloc_bucketEPNS_5entryIiiEEj
FN:542,_ZN7emhash77HashMapIii13range4_hasherSt8equal_toIiESaISt4pairIiiEEE14dealloc_bucketEPNS_5entryIiiEEj
FNDA:116,_ZN7emhash77HashMapIii13range4_hasherSt8equal_toIiESaISt4pairIiiEEE14dealloc_bucketEPNS_5entryIiiEEj
FN:633,_ZN7emhash77HashMapIii13range4_hasherSt8equal_toIiESaISt4pairIiiEEED2Ev
FNDA:12,_ZN7emhash77HashMapIii13range4_hasherSt8equal_toIiESaISt4pairIiiEEED2Ev
FN:633,_ZN7emhash77HashMapIii13linear_hasherSt8equal_toIiESaISt4pairIiiEEED2Ev
FNDA:12,_ZN7emhash77HashMapIii13linear_hasherSt8equal_toIiESaISt4pairIiiEEED2Ev
FN:633,_ZN7emhash77HashMapIii12const_hasherSt8equal_toIiESaISt4pairIiiEEED2Ev
FNDA:23,_ZN7emhash77HashMapIii12const_hasherSt8equal_toIiESaISt4pairIiiEEED2Ev
FN:699,_ZNK7emhash77HashMapIii13range4_hasherSt8equal_toIiESaISt4pairIiiEEE6cbeginEv
FNDA:0,_ZNK7emhash77HashMapIii13range4_hasherSt8equal_toIiESaISt4pairIiiEEE6cbeginEv
FN:699,_ZNK7emhash77HashMapIii12const_hasherSt8equal_toIiESaISt4pairIiiEEE6cbeginEv
FNDA:0,_ZNK7emhash77HashMapIii12const_hasherSt8equal_toIiESaISt4pairIiiEEE6cbeginEv
FN:699,_ZNK7emhash77HashMapIii13linear_hasherSt8equal_toIiESaISt4pairIiiEEE6cbeginEv
FNDA:0,_ZNK7emhash77HashMapIii13linear_hasherSt8equal_toIiESaISt4pairIiiEEE6cbeginEv
FN:728,_ZN7emhash77HashMapIii13range4_hasherSt8equal_toIiESaISt4pairIiiEEE3endEv
FNDA:111000,_ZN7emhash77HashMapIii13range4_hasherSt8equal_toIiESaISt4pairIiiEEE3endEv
FN:728,_ZN7emhash77HashMapIii12const_hasherSt8equal_toIiESaISt4pairIiiEEE3endEv
FNDA:176500,_ZN7emhash77HashMapIii12const_hasherSt8equal_toIiESaISt4pairIiiEEE3endEv
FN:728,_ZN7emhash77HashMapIii13linear_hasherSt8equal_toIiESaISt4pairIiiEEE3endEv
FNDA:111000,_ZN7emhash77HashMapIii13linear_hasherSt8equal_toIiESaISt4pairIiiEEE3endEv
FN:732,_ZNK7emhash77HashMapIii12const_hasherSt8equal_toIiESaISt4pairIiiEEE4sizeEv
FNDA:4,_ZNK7emhash77HashMapIii12const_hasherSt8equal_toIiESaISt4pairIiiEEE4sizeEv
FN:735,_ZNK7emhash77HashMapIii13linear_hasherSt8equal_toIiESaISt4pairIiiEEE12bucket_countEv
FNDA:3,_ZNK7emhash77HashMapIii13linear_hasherSt8equal_toIiESaISt4pairIiiEEE12bucket_countEv
FN:735,_ZNK7emhash77HashMapIii12const_hasherSt8equal_toIiESaISt4pairIiiEEE12bucket_countEv
FNDA:4,_ZNK7emhash77HashMapIii12const_hasherSt8equal_toIiESaISt4pairIiiEEE12bucket_countEv
FN:735,_ZNK7emhash77HashMapIii13range4_hasherSt8equal_toIiESaISt4pairIiiEEE12bucket_countEv
FNDA:3,_ZNK7emhash77HashMapIii13range4_hasherSt8equal_toIiESaISt4pairIiiEEE12bucket_countEv
FN:736,_ZNK7emhash77HashMapIii12const_hasherSt8equal_toIiESaISt4pairIiiEEE11load_factorEv
FNDA:4,_ZNK7emhash77HashMapIii12const_hasherSt8equal_toIiESaISt4pairIiiEEE11load_factorEv
FN:736,_ZNK7emhash77HashMapIii13linear_hasherSt8equal_toIiESaISt4pairIiiEEE11load_factorEv
FNDA:3,_ZNK7emhash77HashMapIii13linear_hasherSt8equal_toIiESaISt4pairIiiEEE11load_factorEv
FN:736,_ZNK7emhash77HashMapIii13range4_hasherSt8equal_toIiESaISt4pairIiiEEE11load_factorEv
FNDA:3,_ZNK7emhash77HashMapIii13range4_hasherSt8equal_toIiESaISt4pairIiiEEE11load_factorEv
FN:742,_ZN7emhash77HashMapIii13range4_hasherSt8equal_toIiESaISt4pairIiiEEE15max_load_factorEf
FNDA:12,_ZN7emhash77HashMapIii13range4_hasherSt8equal_toIiESaISt4pairIiiEEE15max_load_factorEf
FN:742,_ZN7emhash77HashMapIii12const_hasherSt8equal_toIiESaISt4pairIiiEEE15max_load_factorEf
FNDA:23,_ZN7emhash77HashMapIii12const_hasherSt8equal_toIiESaISt4pairIiiEEE15max_load_factorEf
FN:742,_ZN7emhash77HashMapIii13linear_hasherSt8equal_toIiESaISt4pairIiiEEE15max_load_factorEf
FNDA:12,_ZN7emhash77HashMapIii13linear_hasherSt8equal_toIiESaISt4pairIiiEEE15max_load_factorEf
FN:748,_ZNK7emhash77HashMapIii13linear_hasherSt8equal_toIiESaISt4pairIiiEEE8max_sizeEv
FNDA:760,_ZNK7emhash77HashMapIii13linear_hasherSt8equal_toIiESaISt4pairIiiEEE8max_sizeEv
FN:748,_ZNK7emhash77HashMapIii13range4_hasherSt8equal_toIiESaISt4pairIiiEEE8max_sizeEv
FNDA:760,_ZNK7emhash77HashMapIii13range4_hasherSt8equal_toIiESaISt4pairIiiEEE8max_sizeEv
FN:748,_ZNK7emhash77HashMapIii12const_hasherSt8equal_toIiESaISt4pairIiiEEE8max_sizeEv
FNDA:1492,_ZNK7emhash77HashMapIii12const_hasherSt8equal_toIiESaISt4pairIiiEEE8max_sizeEv
FN:928,_ZN7emhash77HashMapIii13range4_hasherSt8equal_toIiESaISt4pairIiiEEE4findIiEENS7_8iteratorERKT_
FNDA:114289,_ZN7emhash77HashMapIii13range4_hasherSt8equal_toIiESaISt4pairIiiEEE4findIiEENS7_8iteratorERKT_
FN:928,_ZN7emhash77HashMapIii12const_hasherSt8equal_toIiESaISt4pairIiiEEE4findIiEENS7_8iteratorERKT_
FNDA:168689,_ZN7emhash77HashMapIii12const_hasherSt8equal_toIiESaISt4pairIiiEEE4findIiEENS7_8iteratorERKT_
FN:928,_ZN7emhash77HashMapIii13linear_hasherSt8equal_toIiESaISt4pairIiiEEE4findIiEENS7_8iteratorERKT_
FNDA:114289,_ZN7emhash77HashMapIii13linear_hasherSt8equal_toIiESaISt4pairIiiEEE4findIiEENS7_8iteratorERKT_
FN:1135,_ZN7emhash77HashMapIii13range4_hasherSt8equal_toIiESaISt4pairIiiEEEixERKi
FNDA:50032,_ZN7emhash77HashMapIii13range4_hasherSt8equal_toIiESaISt4pairIiiEEEixERKi
FN:1135,_ZN7emhash77HashMapIii13linear_hasherSt8equal_toIiESaISt4pairIiiEEEixERKi
FNDA:50032,_ZN7emhash77HashMapIii13linear_hasherSt8equal_toIiESaISt4pairIiiEEEixERKi
FN:1135,_ZN7emhash77HashMapIii12const_hasherSt8equal_toIiESaISt4pairIiiEEEixERKi
FNDA:134982,_ZN7emhash77HashMapIii12const_hasherSt8equal_toIiESaISt4pairIiiEEEixERKi
FN:1162,_ZN7emhash77HashMapIii13range4_hasherSt8equal_toIiESaISt4pairIiiEEE5eraseIiEEjRKT_
FNDA:13279,_ZN7emhash77HashMapIii13range4_hasherSt8equal_toIiESaISt4pairIiiEEE5eraseIiEEjRKT_
FN:1162,_ZN7emhash77HashMapIii12const_hasherSt8equal_toIiESaISt4pairIiiEEE5eraseIiEEjRKT_
FNDA:23829,_ZN7emhash77HashMapIii12const_hasherSt8equal_toIiESaISt4pairIiiEEE5eraseIiEEjRKT_
FN:1162,_ZN7emhash77HashMapIii13linear_hasherSt8equal_toIiESaISt4pairIiiEEE5eraseIiEEjRKT_
FNDA:13279,_ZN7emhash77HashMapIii13linear_hasherSt8equal_toIiESaISt4pairIiiEEE5eraseIiEEjRKT_
FN:1208,_ZN7emhash77HashMapIii13linear_hasherSt8equal_toIiESaISt4pairIiiEEE18need_explicit_dtorEv
FNDA:72481,_ZN7emhash77HashMapIii13linear_hasherSt8equal_toIiESaISt4pairIiiEEE18need_explicit_dtorEv
FN:1208,_ZN7emhash77HashMapIii13range4_hasherSt8equal_toIiESaISt4pairIiiEEE18need_explicit_dtorEv
FNDA:72481,_ZN7emhash77HashMapIii13range4_hasherSt8equal_toIiESaISt4pairIiiEEE18need_explicit_dtorEv
FN:1208,_ZN7emhash77HashMapIii12const_hasherSt8equal_toIiESaISt4pairIiiEEE18need_explicit_dtorEv
FNDA:155878,_ZN7emhash77HashMapIii12const_hasherSt8equal_toIiESaISt4pairIiiEEE18need_explicit_dtorEv
FN:1212,_ZN7emhash77HashMapIii13range4_hasherSt8equal_toIiESaISt4pairIiiEEE21is_trivially_copyableEv
FNDA:3676,_ZN7emhash77HashMapIii13range4_hasherSt8equal_toIiESaISt4pairIiiEEE21is_trivially_copyableEv
FN:1212,_ZN7emhash77HashMapIii12const_hasherSt8equal_toIiESaISt4pairIiiEEE21is_trivially_copyableEv
FNDA:3674,_ZN7emhash77HashMapIii12const_hasherSt8equal_toIiESaISt4pairIiiEEE21is_trivially_copyableEv
FN:1212,_ZN7emhash77HashMapIii13linear_hasherSt8equal_toIiESaISt4pairIiiEEE21is_trivially_copyableEv
FNDA:0,_ZN7emhash77HashMapIii13linear_hasherSt8equal_toIiESaISt4pairIiiEEE21is_trivially_copyableEv
FN:1216,_ZN7emhash77HashMapIii12const_hasherSt8equal_toIiESaISt4pairIiiEEE19prefetch_heap_blockEPc
FNDA:168689,_ZN7emhash77HashMapIii12const_hasherSt8equal_toIiESaISt4pairIiiEEE19prefetch_heap_blockEPc
FN:1216,_ZN7emhash77HashMapIii13range4_hasherSt8equal_toIiESaISt4pairIiiEEE19prefetch_heap_blockEPc
FNDA:114289,_ZN7emhash77HashMapIii13range4_hasherSt8equal_toIiESaISt4pairIiiEEE19prefetch_heap_blockEPc
FN:1216,_ZN7emhash77HashMapIii13linear_hasherSt8equal_toIiESaISt4pairIiiEEE19prefetch_heap_blockEPc
FNDA:114041,_ZN7emhash77HashMapIii13linear_hasherSt8equal_toIiESaISt4pairIiiEEE19prefetch_heap_blockEPc
FN:1226,_ZN7emhash77HashMapIii12const_hasherSt8equal_toIiESaISt4pairIiiEEE7clearkvEv
FNDA:0,_ZN7emhash77HashMapIii12const_hasherSt8equal_toIiESaISt4pairIiiEEE7clearkvEv
FN:1236,_ZN7emhash77HashMapIii12const_hasherSt8equal_toIiESaISt4pairIiiEEE5clearEv
FNDA:1,_ZN7emhash77HashMapIii12const_hasherSt8equal_toIiESaISt4pairIiiEEE5clearEv
FN:1251,_ZN7emhash77HashMapIii12const_hasherSt8equal_toIiESaISt4pairIiiEEE7reserveEm
FNDA:134982,_ZN7emhash77HashMapIii12const_hasherSt8equal_toIiESaISt4pairIiiEEE7reserveEm
FN:1251,_ZN7emhash77HashMapIii13linear_hasherSt8equal_toIiESaISt4pairIiiEEE7reserveEm
FNDA:50032,_ZN7emhash77HashMapIii13linear_hasherSt8equal_toIiESaISt4pairIiiEEE7reserveEm
FN:1251,_ZN7emhash77HashMapIii13range4_hasherSt8equal_toIiESaISt4pairIiiEEE7reserveEm
FNDA:50032,_ZN7emhash77HashMapIii13range4_hasherSt8equal_toIiESaISt4pairIiiEEE7reserveEm
FN:1269,_ZN7emhash77HashMapIii12const_hasherSt8equal_toIiESaISt4pairIiiEEE6rehashEm
FNDA:199,_ZN7emhash77HashMapIii12const_hasherSt8equal_toIiESaISt4pairIiiEEE6rehashEm
FN:1269,_ZN7emhash77HashMapIii13linear_hasherSt8equal_toIiESaISt4pairIiiEEE6rehashEm
FNDA:104,_ZN7emhash77HashMapIii13linear_hasherSt8equal_toIiESaISt4pairIiiEEE6rehashEm
FN:1269,_ZN7emhash77HashMapIii13range4_hasherSt8equal_toIiESaISt4pairIiiEEE6rehashEm
FNDA:104,_ZN7emhash77HashMapIii13range4_hasherSt8equal_toIiESaISt4pairIiiEEE6rehashEm
FN:1343,_ZN7emhash77HashMapIii13linear_hasherSt8equal_toIiESaISt4pairIiiEEE17check_expand_needEv
FNDA:50032,_ZN7emhash77HashMapIii13linear_hasherSt8equal_toIiESaISt4pairIiiEEE17check_expand_needEv
FN:1343,_ZN7emhash77HashMapIii13range4_hasherSt8equal_toIiESaISt4pairIiiEEE17check_expand_needEv
FNDA:50032,_ZN7emhash77HashMapIii13range4_hasherSt8equal_toIiESaISt4pairIiiEEE17check_expand_needEv
FN:1343,_ZN7emhash77HashMapIii12const_hasherSt8equal_toIiESaISt4pairIiiEEE17check_expand_needEv
FNDA:134982,_ZN7emhash77HashMapIii12const_hasherSt8equal_toIiESaISt4pairIiiEEE17check_expand_needEv
FN:1345,_ZN7emhash77HashMapIii12const_hasherSt8equal_toIiESaISt4pairIiiEEE12clear_bucketEj
FNDA:23659,_ZN7emhash77HashMapIii12const_hasherSt8equal_toIiESaISt4pairIiiEEE12clear_bucketEj
FN:1345,_ZN7emhash77HashMapIii13range4_hasherSt8equal_toIiESaISt4pairIiiEEE12clear_bucketEj
FNDA:13109,_ZN7emhash77HashMapIii13range4_hasherSt8equal_toIiESaISt4pairIiiEEE12clear_bucketEj
FN:1345,_ZN7emhash77HashMapIii13linear_hasherSt8equal_toIiESaISt4pairIiiEEE12clear_bucketEj
FNDA:13109,_ZN7emhash77HashMapIii13linear_hasherSt8equal_toIiESaISt4pairIiiEEE12clear_bucketEj
FN:1353,_ZN7emhash77HashMapIii12const_hasherSt8equal_toIiESaISt4pairIiiEEE9erase_keyIiEEjRKT_
FNDA:23829,_ZN7emhash77HashMapIii12const_hasherSt8equal_toIiESaISt4pairIiiEEE9erase_keyIiEEjRKT_
FN:1353,_ZN7emhash77HashMapIii13range4_hasherSt8equal_toIiESaISt4pairIiiEEE9erase_keyIiEEjRKT_
FNDA:13279,_ZN7emhash77HashMapIii13range4_hasherSt8equal_toIiESaISt4pairIiiEEE9erase_keyIiEEjRKT_
FN:1353,_ZN7emhash77HashMapIii13linear_hasherSt8equal_toIiESaISt4pairIiiEEE9erase_keyIiEEjRKT_
FNDA:13279,_ZN7emhash77HashMapIii13linear_hasherSt8equal_toIiESaISt4pairIiiEEE9erase_keyIiEEjRKT_
FN:1465,_ZN7emhash77HashMapIii12const_hasherSt8equal_toIiESaISt4pairIiiEEE14kickout_bucketEjj
FNDA:0,_ZN7emhash77HashMapIii12const_hasherSt8equal_toIiESaISt4pairIiiEEE14kickout_bucketEjj
FN:1465,_ZN7emhash77HashMapIii13linear_hasherSt8equal_toIiESaISt4pairIiiEEE14kickout_bucketEjj
FNDA:0,_ZN7emhash77HashMapIii13linear_hasherSt8equal_toIiESaISt4pairIiiEEE14kickout_bucketEjj
FN:1465,_ZN7emhash77HashMapIii13range4_hasherSt8equal_toIiESaISt4pairIiiEEE14kickout_bucketEjj
FNDA:0,_ZN7emhash77HashMapIii13range4_hasherSt8equal_toIiESaISt4pairIiiEEE14kickout_bucketEjj
FN:1488,_ZN7emhash77HashMapIii13range4_hasherSt8equal_toIiESaISt4pairIiiEEE16find_or_allocateIiEEjRKT_Rb
FNDA:50032,_ZN7emhash77HashMapIii13range4_hasherSt8equal_toIiESaISt4pairIiiEEE16find_or_allocateIiEEjRKT_Rb
FN:1488,_ZN7emhash77HashMapIii12const_hasherSt8equal_toIiESaISt4pairIiiEEE16find_or_allocateIiEEjRKT_Rb
FNDA:134982,_ZN7emhash77HashMapIii12const_hasherSt8equal_toIiESaISt4pairIiiEEE16find_or_allocateIiEEjRKT_Rb
FN:1488,_ZN7emhash77HashMapIii13linear_hasherSt8equal_toIiESaISt4pairIiiEEE16find_or_allocateIiEEjRKT_Rb
FNDA:50032,_ZN7emhash77HashMapIii13linear_hasherSt8equal_toIiESaISt4pairIiiEEE16find_or_allocateIiEEjRKT_Rb
FN:1539,_ZN7emhash77HashMapIii12const_hasherSt8equal_toIiESaISt4pairIiiEEE17find_empty_bucketEjj
FNDA:240710,_ZN7emhash77HashMapIii12const_hasherSt8equal_toIiESaISt4pairIiiEEE17find_empty_bucketEjj
FN:1539,_ZN7emhash77HashMapIii13range4_hasherSt8equal_toIiESaISt4pairIiiEEE17find_empty_bucketEjj
FNDA:103808,_ZN7emhash77HashMapIii13range4_hasherSt8equal_toIiESaISt4pairIiiEEE17find_empty_bucketEjj
FN:1539,_ZN7emhash77HashMapIii13linear_hasherSt8equal_toIiESaISt4pairIiiEEE17find_empty_bucketEjj
FNDA:0,_ZN7emhash77HashMapIii13linear_hasherSt8equal_toIiESaISt4pairIiiEEE17find_empty_bucketEjj
FN:1609,_ZNK7emhash77HashMapIii13range4_hasherSt8equal_toIiESaISt4pairIiiEEE16find_last_bucketEj
FNDA:58636,_ZNK7emhash77HashMapIii13range4_hasherSt8equal_toIiESaISt4pairIiiEEE16find_last_bucketEj
FN:1609,_ZNK7emhash77HashMapIii13linear_hasherSt8equal_toIiESaISt4pairIiiEEE16find_last_bucketEj
FNDA:0,_ZNK7emhash77HashMapIii13linear_hasherSt8equal_toIiESaISt4pairIiiEEE16find_last_bucketEj
FN:1609,_ZNK7emhash77HashMapIii12const_hasherSt8equal_toIiESaISt4pairIiiEEE16find_last_bucketEj
FNDA:131843,_ZNK7emhash77HashMapIii12const_hasherSt8equal_toIiESaISt4pairIiiEEE16find_last_bucketEj
FN:1622,_ZNK7emhash77HashMapIii13linear_hasherSt8equal_toIiESaISt4pairIiiEEE16find_prev_bucketEjj
FNDA:0,_ZNK7emhash77HashMapIii13linear_hasherSt8equal_toIiESaISt4pairIiiEEE16find_prev_bucketEjj
FN:1622,_ZNK7emhash77HashMapIii13range4_hasherSt8equal_toIiESaISt4pairIiiEEE16find_prev_bucketEjj
FNDA:0,_ZNK7emhash77HashMapIii13range4_hasherSt8equal_toIiESaISt4pairIiiEEE16find_prev_bucketEjj
FN:1622,_ZNK7emhash77HashMapIii12const_hasherSt8equal_toIiESaISt4pairIiiEEE16find_prev_bucketEjj
FNDA:0,_ZNK7emhash77HashMapIii12const_hasherSt8equal_toIiESaISt4pairIiiEEE16find_prev_bucketEjj
FN:1635,_ZN7emhash77HashMapIii13linear_hasherSt8equal_toIiESaISt4pairIiiEEE18find_unique_bucketERKi
FNDA:59360,_ZN7emhash77HashMapIii13linear_hasherSt8equal_toIiESaISt4pairIiiEEE18find_unique_bucketERKi
FN:1635,_ZN7emhash77HashMapIii12const_hasherSt8equal_toIiESaISt4pairIiiEEE18find_unique_bucketERKi
FNDA:132195,_ZN7emhash77HashMapIii12const_hasherSt8equal_toIiESaISt4pairIiiEEE18find_unique_bucketERKi
FN:1635,_ZN7emhash77HashMapIii13range4_hasherSt8equal_toIiESaISt4pairIiiEEE18find_unique_bucketERKi
FNDA:59360,_ZN7emhash77HashMapIii13range4_hasherSt8equal_toIiESaISt4pairIiiEEE18find_unique_bucketERKi
DA:181,344518
DA:203,344518
DA:208,344518
DA:216,250915
DA:217,250915
DA:218,250915
DA:221,198442
DA:222,198442
DA:223,198442
DA:237,0
DA:246,7350
DA:247,7350
DA:249,7350
DA:250,7350
DA:251,7350
DA:253,7350
DA:260,0
DA:261,0
DA:262,0
DA:263,0
DA:348,225289
DA:349,225289
DA:350,225289
DA:348,225289
DA:349,225289
DA:350,225289
DA:348,345189
DA:349,345189
DA:350,345189
DA:353,0
DA:354,0
DA:355,0
DA:356,0
DA:357,0
DA:358,0
DA:360,0
DA:362,0
DA:353,0
DA:354,0
DA:355,0
DA:356,0
DA:357,0
DA:358,0
DA:360,0
DA:362,0
DA:353,0
DA:354,0
DA:355,0
DA:356,0
DA:357,0
DA:358,0
DA:360,0
DA:362,0
DA:371,0
DA:372,0
DA:373,0
DA:371,0
DA:372,0
DA:373,0
DA:371,0
DA:372,0
DA:373,0
DA:399,48850
DA:401,54400
DA:402,111000
DA:402,111000
DA:402,122100
DA:407,0
DA:408,0
DA:409,0
DA:410,0
DA:414,0
DA:415,0
DA:416,0
DA:418,0
DA:407,0
DA:408,0
DA:409,0
DA:410,0
DA:414,0
DA:415,0
DA:416,0
DA:418,0
DA:407,0
DA:408,0
DA:409,0
DA:410,0
DA:414,0
DA:415,0
DA:416,0
DA:418,0
DA:437,0
DA:437,0
DA:437,0
DA:442,0
DA:443,0
DA:444,0
DA:442,0
DA:443,0
DA:444,0
DA:442,0
DA:443,0
DA:444,0
DA:447,0
DA:448,0
DA:449,0
DA:450,0
DA:451,0
DA:452,0
DA:454,0
DA:456,0
DA:447,0
DA:448,0
DA:449,0
DA:450,0
DA:451,0
DA:452,0
DA:454,0
DA:456,0
DA:447,0
DA:448,0
DA:449,0
DA:450,0
DA:451,0
DA:452,0
DA:454,0
DA:456,0
DA:458,0
DA:460,0
DA:462,0
DA:463,0
DA:465,0
DA:466,0
DA:460,0
DA:462,0
DA:463,0
DA:465,0
DA:466,0
DA:460,0
DA:462,0
DA:463,0
DA:465,0
DA:466,0
DA:481,0
DA:481,0
DA:481,0
DA:487,0
DA:488,0
DA:489,0
DA:490,0
DA:491,0
DA:495,0
DA:496,0
DA:497,0
DA:499,0
DA:487,0
DA:488,0
DA:489,0
DA:490,0
DA:491,0
DA:495,0
DA:496,0
DA:497,0
DA:499,0
DA:487,0
DA:488,0
DA:489,0
DA:490,0
DA:491,0
DA:495,0
DA:496,0
DA:497,0
DA:499,0
DA:509,12
DA:510,12
DA:511,12
DA:512,12
DA:513,12
DA:514,12
DA:515,12
DA:516,12
DA:509,12
DA:510,12
DA:511,12
DA:512,12
DA:513,12
DA:514,12
DA:515,12
DA:516,12
DA:509,23
DA:510,23
DA:511,23
DA:512,23
DA:513,23
DA:514,23
DA:515,23
DA:516,23
DA:518,12
DA:518,12
DA:518,23
DA:524,208
DA:525,208
DA:524,208
DA:525,208
DA:524,398
DA:525,398
DA:528,208
DA:529,208
DA:528,208
DA:529,208
DA:528,398
DA:529,398
DA:532,104
DA:533,104
DA:534,0
DA:535,104
DA:536,104
DA:537,104
DA:538,0
DA:539,104
DA:532,104
DA:533,104
DA:534,0
DA:535,104
DA:536,104
DA:537,104
DA:538,0
DA:539,104
DA:532,199
DA:533,199
DA:534,0
DA:535,199
DA:536,199
DA:537,199
DA:538,0
DA:539,199
DA:542,116
DA:543,116
DA:544,104
DA:545,104
DA:547,116
DA:542,116
DA:543,116
DA:544,104
DA:545,104
DA:547,116
DA:542,222
DA:543,222
DA:544,199
DA:545,199
DA:547,222
DA:633,12
DA:634,12
DA:635,0
DA:636,0
DA:637,0
DA:640,12
DA:641,12
DA:642,12
DA:633,12
DA:634,12
DA:635,0
DA:636,0
DA:637,0
DA:640,12
DA:641,12
DA:642,12
DA:633,23
DA:634,23
DA:635,0
DA:636,0
DA:637,0
DA:640,23
DA:641,23
DA:642,23
DA:699,0
DA:706,0
DA:707,0
DA:708,0
DA:709,0
DA:711,0
DA:712,0
DA:713,0
DA:699,0
DA:706,0
DA:707,0
DA:708,0
DA:709,0
DA:711,0
DA:712,0
DA:713,0
DA:699,0
DA:706,0
DA:707,0
DA:708,0
DA:709,0
DA:711,0
DA:712,0
DA:713,0
DA:728,111000
DA:728,111000
DA:728,176500
DA:732,4
DA:735,3
DA:735,3
DA:735,4
DA:736,3
DA:736,3
DA:736,4
DA:742,12
DA:743,12
DA:744,12
DA:745,12
DA:742,12
DA:743,12
DA:744,12
DA:745,12
DA:742,23
DA:743,23
DA:744,23
DA:745,23
DA:748,760
DA:748,760
DA:748,1492
DA:928,114289
DA:929,114289
DA:928,114289
DA:929,114289
DA:928,168689
DA:929,168689
DA:1135,50032
DA:1136,50032
DA:1139,50032
DA:1140,50032
DA:1141,44864
DA:1144,50032
DA:1135,50032
DA:1136,50032
DA:1139,50032
DA:1140,50032
DA:1141,44864
DA:1144,50032
DA:1135,134982
DA:1136,134982
DA:1139,134982
DA:1140,134982
DA:1141,108714
DA:1144,134982
DA:1162,13279
DA:1163,13279
DA:1164,13279
DA:1165,170
DA:1167,13109
DA:1168,13109
DA:1162,13279
DA:1163,13279
DA:1164,13279
DA:1165,170
DA:1167,13109
DA:1168,13109
DA:1162,23829
DA:1163,23829
DA:1164,23829
DA:1165,170
DA:1167,23659
DA:1168,23659
DA:1208,72481
DA:1209,72481
DA:1208,72481
DA:1209,72481
DA:1208,155878
DA:1209,155878
DA:1212,0
DA:1213,0
DA:1212,3676
DA:1213,3676
DA:1212,3674
DA:1213,3674
DA:1216,114041
DA:1222,114041
DA:1224,114041
DA:1216,114289
DA:1222,114289
DA:1224,114289
DA:1216,168689
DA:1222,168689
DA:1224,168689
DA:1226,0
DA:1227,0
DA:1228,0
DA:1229,0
DA:1230,0
DA:1231,0
DA:1233,0
DA:1236,1
DA:1237,1
DA:1238,1
DA:1239,1
DA:1240,0
DA:1241,0
DA:1242,0
DA:1245,1
DA:1246,1
DA:1251,50032
DA:1252,50032
DA:1253,50032
DA:1254,49940
DA:1265,92
DA:1266,92
DA:1251,50032
DA:1252,50032
DA:1253,50032
DA:1254,49940
DA:1265,92
DA:1266,92
DA:1251,134982
DA:1252,134982
DA:1253,134982
DA:1254,134806
DA:1265,176
DA:1266,176
DA:1269,104
DA:1270,104
DA:1271,0
DA:1273,104
DA:1274,760
DA:1275,656
DA:1276,656
DA:1277,0
DA:1280,104
DA:1281,104
DA:1282,104
DA:1283,104
DA:1284,104
DA:1285,104
DA:1287,104
DA:1288,104
DA:1289,104
DA:1291,104
DA:1292,104
DA:1294,104
DA:1296,104
DA:1297,104
DA:1298,104
DA:1299,104
DA:1300,0
DA:1303,74156
DA:1304,74144
DA:1305,14784
DA:1307,59360
DA:1308,59360
DA:1309,59360
DA:1310,59360
DA:1311,0
DA:1313,59360
DA:1314,92
DA:1316,0
DA:1317,0
DA:1318,0
DA:1337,104
DA:1338,104
DA:1269,104
DA:1270,104
DA:1271,0
DA:1273,104
DA:1274,760
DA:1275,656
DA:1276,656
DA:1277,0
DA:1280,104
DA:1281,104
DA:1282,104
DA:1283,104
DA:1284,104
DA:1285,104
DA:1287,104
DA:1288,104
DA:1289,104
DA:1291,104
DA:1292,104
DA:1294,104
DA:1296,104
DA:1297,104
DA:1298,104
DA:1299,104
DA:1300,0
DA:1303,74156
DA:1304,74144
DA:1305,14784
DA:1307,59360
DA:1308,59360
DA:1309,59360
DA:1310,59360
DA:1311,0
DA:1313,59360
DA:1314,92
DA:1316,0
DA:1317,0
DA:1318,0
DA:1337,104
DA:1338,104
DA:1269,199
DA:1270,199
DA:1271,0
DA:1273,199
DA:1274,1492
DA:1275,1293
DA:1276,1293
DA:1277,0
DA:1280,199
DA:1281,199
DA:1282,199
DA:1283,199
DA:1284,199
DA:1285,199
DA:1287,199
DA:1288,199
DA:1289,199
DA:1291,199
DA:1292,199
DA:1294,199
DA:1296,199
DA:1297,199
DA:1298,199
DA:1299,199
DA:1300,0
DA:1303,161511
DA:1304,161488
DA:1305,29293
DA:1307,132195
DA:1308,132195
DA:1309,132195
DA:1310,132195
DA:1311,0
DA:1313,132195
DA:1314,176
DA:1316,0
DA:1317,0
DA:1318,0
DA:1337,199
DA:1338,199
DA:1343,50032
DA:1343,50032
DA:1343,134982
DA:1345,13109
DA:1347,13109
DA:1348,13109
DA:1349,0
DA:1350,13109
DA:1345,13109
DA:1347,13109
DA:1348,13109
DA:1349,0
DA:1350,13109
DA:1345,23659
DA:1347,23659
DA:1348,23659
DA:1349,0
DA:1350,23659
DA:1353,13279
DA:1354,26558
DA:1355,13279
DA:1356,170
DA:1358,13109
DA:1359,13109
DA:1360,13109
DA:1361,13109
DA:1362,13109
DA:1364,0
DA:1365,0
DA:1366,0
DA:1368,0
DA:1370,0
DA:1371,0
DA:1372,0
DA:1373,0
DA:1378,0
DA:1379,0
DA:1380,0
DA:1381,0
DA:1382,0
DA:1383,0
DA:1386,0
DA:1387,0
DA:1388,0
DA:1389,0
DA:1392,0
DA:1353,13279
DA:1354,26558
DA:1355,13279
DA:1356,0
DA:1358,13279
DA:1359,13279
DA:1360,13279
DA:1361,3688
DA:1362,12
DA:1364,3676
DA:1365,3676
DA:1366,3676
DA:1368,0
DA:1370,3676
DA:1371,3676
DA:1372,9591
DA:1373,0
DA:1378,9591
DA:1379,6798337
DA:1380,6807928
DA:1381,6807928
DA:1382,9421
DA:1383,9421
DA:1386,6798507
DA:1387,170
DA:1388,6798337
DA:1389,6798337
DA:1392,170
DA:1353,23829
DA:1354,47658
DA:1355,23829
DA:1356,0
DA:1358,23829
DA:1359,23829
DA:1360,23829
DA:1361,3677
DA:1362,3
DA:1364,3674
DA:1365,3674
DA:1366,3674
DA:1368,0
DA:1370,3674
DA:1371,3674
DA:1372,20152
DA:1373,0
DA:1378,20152
DA:1379,61004451
DA:1380,61024603
DA:1381,61024603
DA:1382,19982
DA:1383,19982
DA:1386,61004621
DA:1387,170
DA:1388,61004451
DA:1389,61004451
DA:1392,170
DA:1439,794534
DA:1440,397267
DA:1441,248
DA:1443,397019
DA:1444,397019
DA:1448,889159380
DA:1449,889556399
DA:1450,390973
DA:1452,889165426
DA:1453,889165426
DA:1454,6046
DA:1455,889159380
DA:1465,0
DA:1466,0
DA:1467,0
DA:1468,0
DA:1469,0
DA:1470,0
DA:1471,0
DA:1473,0
DA:1474,0
DA:1475,0
DA:1478,0
DA:1465,0
DA:1466,0
DA:1467,0
DA:1468,0
DA:1469,0
DA:1470,0
DA:1471,0
DA:1473,0
DA:1474,0
DA:1475,0
DA:1478,0
DA:1465,0
DA:1466,0
DA:1467,0
DA:1468,0
DA:1469,0
DA:1470,0
DA:1471,0
DA:1473,0
DA:1474,0
DA:1475,0
DA:1478,0
DA:1488,50032
DA:1489,100064
DA:1490,50032
DA:1491,50032
DA:1492,44864
DA:1493,44864
DA:1494,5168
DA:1495,5168
DA:1496,5168
DA:1499,0
DA:1500,0
DA:1502,0
DA:1503,0
DA:1504,0
DA:1505,0
DA:1506,0
DA:1512,0
DA:1513,0
DA:1514,0
DA:1519,0
DA:1527,0
DA:1528,0
DA:1529,0
DA:1530,0
DA:1534,0
DA:1535,0
DA:1488,50032
DA:1489,100064
DA:1490,50032
DA:1491,50032
DA:1492,48
DA:1493,48
DA:1494,49984
DA:1495,1
DA:1496,1
DA:1499,49983
DA:1500,49983
DA:1502,99966
DA:1503,49983
DA:1504,0
DA:1505,49983
DA:1506,48
DA:1512,56659724
DA:1513,56709659
DA:1514,5167
DA:1519,5167
DA:1527,56704492
DA:1528,56704492
DA:1529,44768
DA:1530,56659724
DA:1534,44768
DA:1535,44768
DA:1488,134982
DA:1489,269964
DA:1490,134982
DA:1491,134982
DA:1492,23
DA:1493,23
DA:1494,134959
DA:1495,4
DA:1496,4
DA:1499,134955
DA:1500,134955
DA:1502,269910
DA:1503,134955
DA:1504,0
DA:1505,134955
DA:1506,23
DA:1512,654205087
DA:1513,654340019
DA:1514,26264
DA:1519,26264
DA:1527,654313755
DA:1528,654313755
DA:1529,108668
DA:1530,654205087
DA:1534,108668
DA:1535,108668
DA:1539,0
DA:1540,0
DA:1551,0
DA:1552,0
DA:1555,0
DA:1556,0
DA:1557,0
DA:1558,0
DA:1561,0
DA:1562,0
DA:1563,0
DA:1564,0
DA:1566,0
DA:1567,0
DA:1568,0
DA:1569,0
DA:1571,0
DA:1572,0
DA:1573,0
DA:1574,0
DA:1576,0
DA:1539,103808
DA:1540,103808
DA:1551,103808
DA:1552,103808
DA:1555,103808
DA:1556,103808
DA:1557,103808
DA:1558,103808
DA:1561,0
DA:1562,0
DA:1563,0
DA:1564,0
DA:1566,0
DA:1567,0
DA:1568,0
DA:1569,0
DA:1571,0
DA:1572,0
DA:1573,0
DA:1574,0
DA:1576,0
DA:1539,240710
DA:1540,240710
DA:1551,240710
DA:1552,240710
DA:1555,240710
DA:1556,240710
DA:1557,240710
DA:1558,240709
DA:1561,1
DA:1562,1
DA:1563,0
DA:1564,1
DA:1566,1
DA:1567,1
DA:1568,1
DA:1569,0
DA:1571,0
DA:1572,0
DA:1573,0
DA:1574,0
DA:1576,0
DA:1609,0
DA:1610,0
DA:1611,0
DA:1612,0
DA:1614,0
DA:1615,0
DA:1616,0
DA:1617,0
DA:1618,0
DA:1609,58636
DA:1610,58636
DA:1611,58636
DA:1612,320
DA:1614,28882920
DA:1615,28941236
DA:1616,28941236
DA:1617,58316
DA:1618,28882920
DA:1609,131843
DA:1610,131843
DA:1611,131843
DA:1612,176
DA:1614,275486539
DA:1615,275618206
DA:1616,275618206
DA:1617,131667
DA:1618,275486539
DA:1622,0
DA:1623,0
DA:1624,0
DA:1625,0
DA:1627,0
DA:1628,0
DA:1629,0
DA:1630,0
DA:1631,0
DA:1622,0
DA:1623,0
DA:1624,0
DA:1625,0
DA:1627,0
DA:1628,0
DA:1629,0
DA:1630,0
DA:1631,0
DA:1622,0
DA:1623,0
DA:1624,0
DA:1625,0
DA:1627,0
DA:1628,0
DA:1629,0
DA:1630,0
DA:1631,0
DA:1635,59360
DA:1636,118720
DA:1637,59360
DA:1638,59360
DA:1641,0
DA:1642,0
DA:1643,0
DA:1645,0
DA:1646,0
DA:1647,0
DA:1650,0
DA:1635,59360
DA:1636,118720
DA:1637,59360
DA:1638,368
DA:1641,117984
DA:1642,58992
DA:1643,0
DA:1645,58992
DA:1646,58992
DA:1647,58636
DA:1650,58992
DA:1635,132195
DA:1636,264390
DA:1637,132195
DA:1638,176
DA:1641,264038
DA:1642,132019
DA:1643,0
DA:1645,132019
DA:1646,132019
DA:1647,131843
DA:1650,132019
DA:1700,1309564
DA:1722,449357
DA:1723,49877
DA:1725,933615
end_of_record
SF:/mnt/d/emhash/include/emhash/hash_table5.hpp
FN:141,_ZN7emhash55entryIiiEC2IRKiiEEOT_OT0_i
FNDA:198442,_ZN7emhash55entryIiiEC2IRKiiEEOT_OT0_i
FN:162,_ZN7emhash55entryIiiEC2EOS1_
FNDA:250655,_ZN7emhash55entryIiiEC2EOS1_
FN:164,_ZN7emhash55entryIiiEaSEOS1_
FNDA:9219,_ZN7emhash55entryIiiEaSEOS1_
FN:292,_ZN7emhash57HashMapIii13linear_hasherSt8equal_toIiESaISt4pairIiiEEE8iteratorC2EPKS7_i
FNDA:225289,_ZN7emhash57HashMapIii13linear_hasherSt8equal_toIiESaISt4pairIiiEEE8iteratorC2EPKS7_i
FN:292,_ZN7emhash57HashMapIii12const_hasherSt8equal_toIiESaISt4pairIiiEEE8iteratorC2EPKS7_i
FNDA:345189,_ZN7emhash57HashMapIii12const_hasherSt8equal_toIiESaISt4pairIiiEEE8iteratorC2EPKS7_i
FN:292,_ZN7emhash57HashMapIii13range4_hasherSt8equal_toIiESaISt4pairIiiEEE8iteratorC2EPKS7_i
FNDA:225289,_ZN7emhash57HashMapIii13range4_hasherSt8equal_toIiESaISt4pairIiiEEE8iteratorC2EPKS7_i
FN:306,_ZNK7emhash57HashMapIii12const_hasherSt8equal_toIiESaISt4pairIiiEEE8iteratorptEv
FNDA:48850,_ZNK7emhash57HashMapIii12const_hasherSt8equal_toIiESaISt4pairIiiEEE8iteratorptEv
FN:308,_ZNK7emhash57HashMapIii12const_hasherSt8equal_toIiESaISt4pairIiiEEE8iteratoreqERKS8_
FNDA:54400,_ZNK7emhash57HashMapIii12const_hasherSt8equal_toIiESaISt4pairIiiEEE8iteratoreqERKS8_
FN:309,_ZNK7emhash57HashMapIii13range4_hasherSt8equal_toIiESaISt4pairIiiEEE8iteratorneERKS8_
FNDA:111000,_ZNK7emhash57HashMapIii13range4_hasherSt8equal_toIiESaISt4pairIiiEEE8iteratorneERKS8_
FN:309,_ZNK7emhash57HashMapIii13linear_hasherSt8equal_toIiESaISt4pairIiiEEE8iteratorneERKS8_
FNDA:111000,_ZNK7emhash57HashMapIii13linear_hasherSt8equal_toIiESaISt4pairIiiEEE8iteratorneERKS8_
FN:309,_ZNK7emhash57HashMapIii12const_hasherSt8equal_toIiESaISt4pairIiiEEE8iteratorneERKS8_
FNDA:122100,_ZNK7emhash57HashMapIii12const_hasherSt8equal_toIiESaISt4pairIiiEEE8iteratorneERKS8_
FN:370,_ZN7emhash57HashMapIii13range4_hasherSt8equal_toIiESaISt4pairIiiEEE4initEif
FNDA:12,_ZN7emhash57HashMapIii13range4_hasherSt8equal_toIiESaISt4pairIiiEEE4initEif
FN:370,_ZN7emhash57HashMapIii13linear_hasherSt8equal_toIiESaISt4pairIiiEEE4initEif
FNDA:12,_ZN7emhash57HashMapIii13linear_hasherSt8equal_toIiESaISt4pairIiiEEE4initEif
FN:370,_ZN7emhash57HashMapIii12const_hasherSt8equal_toIiESaISt4pairIiiEEE4initEif
FNDA:23,_ZN7emhash57HashMapIii12const_hasherSt8equal_toIiESaISt4pairIiiEEE4initEif
FN:382,_ZN7emhash57HashMapIii13linear_hasherSt8equal_toIiESaISt4pairIiiEEEC2Eif
FNDA:12,_ZN7emhash57HashMapIii13linear_hasherSt8equal_toIiESaISt4pairIiiEEEC2Eif
FN:382,_ZN7emhash57HashMapIii13range4_hasherSt8equal_toIiESaISt4pairIiiEEEC2Eif
FNDA:12,_ZN7emhash57HashMapIii13range4_hasherSt8equal_toIiESaISt4pairIiiEEEC2Eif
FN:382,_ZN7emhash57HashMapIii12const_hasherSt8equal_toIiESaISt4pairIiiEEEC2Eif
FNDA:23,_ZN7emhash57HashMapIii12const_hasherSt8equal_toIiESaISt4pairIiiEEEC2Eif
FN:490,_ZN7emhash57HashMapIii12const_hasherSt8equal_toIiESaISt4pairIiiEEED2Ev
FNDA:23,_ZN7emhash57HashMapIii12const_hasherSt8equal_toIiESaISt4pairIiiEEED2Ev
FN:490,_ZN7emhash57HashMapIii13linear_hasherSt8equal_toIiESaISt4pairIiiEEED2Ev
FNDA:12,_ZN7emhash57HashMapIii13linear_hasherSt8equal_toIiESaISt4pairIiiEEED2Ev
FN:490,_ZN7emhash57HashMapIii13range4_hasherSt8equal_toIiESaISt4pairIiiEEED2Ev
FNDA:12,_ZN7emhash57HashMapIii13range4_hasherSt8equal_toIiESaISt4pairIiiEEED2Ev
FN:614,_ZN7emhash57HashMapIii12const_hasherSt8equal_toIiESaISt4pairIiiEEE3endEv
FNDA:176500,_ZN7emhash57HashMapIii12const_hasherSt8equal_toIiESaISt4pairIiiEEE3endEv
FN:614,_ZN7emhash57HashMapIii13range4_hasherSt8equal_toIiESaISt4pairIiiEEE3endEv
FNDA:111000,_ZN7emhash57HashMapIii13range4_hasherSt8equal_toIiESaISt4pairIiiEEE3endEv
FN:614,_ZN7emhash57HashMapIii13linear_hasherSt8equal_toIiESaISt4pairIiiEEE3endEv
FNDA:111000,_ZN7emhash57HashMapIii13linear_hasherSt8equal_toIiESaISt4pairIiiEEE3endEv
FN:618,_ZNK7emhash57HashMapIii12const_hasherSt8equal_toIiESaISt4pairIiiEEE4sizeEv
FNDA:4,_ZNK7emhash57HashMapIii12const_hasherSt8equal_toIiESaISt4pairIiiEEE4sizeEv
FN:620,_ZNK7emhash57HashMapIii13linear_hasherSt8equal_toIiESaISt4pairIiiEEE12bucket_countEv
FNDA:3,_ZNK7emhash57HashMapIii13linear_hasherSt8equal_toIiESaISt4pairIiiEEE12bucket_countEv
FN:620,_ZNK7emhash57HashMapIii12const_hasherSt8equal_toIiESaISt4pairIiiEEE12bucket_countEv
FNDA:4,_ZNK7emhash57HashMapIii12const_hasherSt8equal_toIiESaISt4pairIiiEEE12bucket_countEv
FN:620,_ZNK7emhash57HashMapIii13range4_hasherSt8equal_toIiESaISt4pairIiiEEE12bucket_countEv
FNDA:3,_ZNK7emhash57HashMapIii13range4_hasherSt8equal_toIiESaISt4pairIiiEEE12bucket_countEv
FN:626,_ZNK7emhash57HashMapIii12const_hasherSt8equal_toIiESaISt4pairIiiEEE11load_factorEv
FNDA:4,_ZNK7emhash57HashMapIii12const_hasherSt8equal_toIiESaISt4pairIiiEEE11load_factorEv
FN:626,_ZNK7emhash57HashMapIii13range4_hasherSt8equal_toIiESaISt4pairIiiEEE11load_factorEv
FNDA:3,_ZNK7emhash57HashMapIii13range4_hasherSt8equal_toIiESaISt4pairIiiEEE11load_factorEv
FN:626,_ZNK7emhash57HashMapIii13linear_hasherSt8equal_toIiESaISt4pairIiiEEE11load_factorEv
FNDA:3,_ZNK7emhash57HashMapIii13linear_hasherSt8equal_toIiESaISt4pairIiiEEE11load_factorEv
FN:630,_ZN7emhash57HashMapIii13range4_hasherSt8equal_toIiESaISt4pairIiiEEE15max_load_factorEf
FNDA:12,_ZN7emhash57HashMapIii13range4_hasherSt8equal_toIiESaISt4pairIiiEEE15max_load_factorEf
FN:630,_ZN7emhash57HashMapIii12const_hasherSt8equal_toIiESaISt4pairIiiEEE15max_load_factorEf
FNDA:23,_ZN7emhash57HashMapIii12const_hasherSt8equal_toIiESaISt4pairIiiEEE15max_load_factorEf
FN:630,_ZN7emhash57HashMapIii13linear_hasherSt8equal_toIiESaISt4pairIiiEEE15max_load_factorEf
FNDA:12,_ZN7emhash57HashMapIii13linear_hasherSt8equal_toIiESaISt4pairIiiEEE15max_load_factorEf
FN:635,_ZNK7emhash57HashMapIii13range4_hasherSt8equal_toIiESaISt4pairIiiEEE8max_sizeEv
FNDA:208,_ZNK7emhash57HashMapIii13range4_hasherSt8equal_toIiESaISt4pairIiiEEE8max_sizeEv
FN:635,_ZNK7emhash57HashMapIii13linear_hasherSt8equal_toIiESaISt4pairIiiEEE8max_sizeEv
FNDA:208,_ZNK7emhash57HashMapIii13linear_hasherSt8equal_toIiESaISt4pairIiiEEE8max_sizeEv
FN:635,_ZNK7emhash57HashMapIii12const_hasherSt8equal_toIiESaISt4pairIiiEEE8max_sizeEv
FNDA:398,_ZNK7emhash57HashMapIii12const_hasherSt8equal_toIiESaISt4pairIiiEEE8max_sizeEv
FN:763,_ZN7emhash57HashMapIii13linear_hasherSt8equal_toIiESaISt4pairIiiEEE4findIiEENS7_8iteratorERKT_
FNDA:114289,_ZN7emhash57HashMapIii13linear_hasherSt8equal_toIiESaISt4pairIiiEEE4findIiEENS7_8iteratorERKT_
FN:763,_ZN7emhash57HashMapIii12const_hasherSt8equal_toIiESaISt4pairIiiEEE4findIiEENS7_8iteratorERKT_
FNDA:168689,_ZN7emhash57HashMapIii12const_hasherSt8equal_toIiESaISt4pairIiiEEE4findIiEENS7_8iteratorERKT_
FN:763,_ZN7emhash57HashMapIii13range4_hasherSt8equal_toIiESaISt4pairIiiEEE4findIiEENS7_8iteratorERKT_
FNDA:114289,_ZN7emhash57HashMapIii13range4_hasherSt8equal_toIiESaISt4pairIiiEEE4findIiEENS7_8iteratorERKT_
FN:1114,_ZN7emhash57HashMapIii12const_hasherSt8equal_toIiESaISt4pairIiiEEEixERKi
FNDA:134982,_ZN7emhash57HashMapIii12const_hasherSt8equal_toIiESaISt4pairIiiEEEixERKi
FN:1114,_ZN7emhash57HashMapIii13linear_hasherSt8equal_toIiESaISt4pairIiiEEEixERKi
FNDA:50032,_ZN7emhash57HashMapIii13linear_hasherSt8equal_toIiESaISt4pairIiiEEEixERKi
FN:1114,_ZN7emhash57HashMapIii13range4_hasherSt8equal_toIiESaISt4pairIiiEEEixERKi
FNDA:50032,_ZN7emhash57HashMapIii13range4_hasherSt8equal_toIiESaISt4pairIiiEEEixERKi
FN:1139,_ZN7emhash57HashMapIii13range4_hasherSt8equal_toIiESaISt4pairIiiEEE5eraseERKi
FNDA:13279,_ZN7emhash57HashMapIii13range4_hasherSt8equal_toIiESaISt4pairIiiEEE5eraseERKi
FN:1139,_ZN7emhash57HashMapIii13linear_hasherSt8equal_toIiESaISt4pairIiiEEE5eraseERKi
FNDA:13279,_ZN7emhash57HashMapIii13linear_hasherSt8equal_toIiESaISt4pairIiiEEE5eraseERKi
FN:1139,_ZN7emhash57HashMapIii12const_hasherSt8equal_toIiESaISt4pairIiiEEE5eraseERKi
FNDA:23829,_ZN7emhash57HashMapIii12const_hasherSt8equal_toIiESaISt4pairIiiEEE5eraseERKi
FN:1174,_ZN7emhash57HashMapIii13linear_hasherSt8equal_toIiESaISt4pairIiiEEE18need_explicit_dtorEv
FNDA:72389,_ZN7emhash57HashMapIii13linear_hasherSt8equal_toIiESaISt4pairIiiEEE18need_explicit_dtorEv
FN:1174,_ZN7emhash57HashMapIii13range4_hasherSt8equal_toIiESaISt4pairIiiEEE18need_explicit_dtorEv
FNDA:72489,_ZN7emhash57HashMapIii13range4_hasherSt8equal_toIiESaISt4pairIiiEEE18need_explicit_dtorEv
FN:1174,_ZN7emhash57HashMapIii12const_hasherSt8equal_toIiESaISt4pairIiiEEE18need_explicit_dtorEv
FNDA:155702,_ZN7emhash57HashMapIii12const_hasherSt8equal_toIiESaISt4pairIiiEEE18need_explicit_dtorEv
FN:1190,_ZN7emhash57HashMapIii13range4_hasherSt8equal_toIiESaISt4pairIiiEEE7clearkvEv
FNDA:12,_ZN7emhash57HashMapIii13range4_hasherSt8equal_toIiESaISt4pairIiiEEE7clearkvEv
FN:1190,_ZN7emhash57HashMapIii13linear_hasherSt8equal_toIiESaISt4pairIiiEEE7clearkvEv
FNDA:12,_ZN7emhash57HashMapIii13linear_hasherSt8equal_toIiESaISt4pairIiiEEE7clearkvEv
FN:1190,_ZN7emhash57HashMapIii12const_hasherSt8equal_toIiESaISt4pairIiiEEE7clearkvEv
FNDA:23,_ZN7emhash57HashMapIii12const_hasherSt8equal_toIiESaISt4pairIiiEEE7clearkvEv
FN:1212,_ZN7emhash57HashMapIii12const_hasherSt8equal_toIiESaISt4pairIiiEEE5clearEv
FNDA:1,_ZN7emhash57HashMapIii12const_hasherSt8equal_toIiESaISt4pairIiiEEE5clearEv
FN:1243,_ZN7emhash57HashMapIii13range4_hasherSt8equal_toIiESaISt4pairIiiEEE7reserveEm
FNDA:50032,_ZN7emhash57HashMapIii13range4_hasherSt8equal_toIiESaISt4pairIiiEEE7reserveEm
FN:1243,_ZN7emhash57HashMapIii12const_hasherSt8equal_toIiESaISt4pairIiiEEE7reserveEm
FNDA:134982,_ZN7emhash57HashMapIii12const_hasherSt8equal_toIiESaISt4pairIiiEEE7reserveEm
FN:1243,_ZN7emhash57HashMapIii13linear_hasherSt8equal_toIiESaISt4pairIiiEEE7reserveEm
FNDA:50032,_ZN7emhash57HashMapIii13linear_hasherSt8equal_toIiESaISt4pairIiiEEE7reserveEm
FN:1273,_ZN7emhash57HashMapIii12const_hasherSt8equal_toIiESaISt4pairIiiEEE6rehashEm
FNDA:199,_ZN7emhash57HashMapIii12const_hasherSt8equal_toIiESaISt4pairIiiEEE6rehashEm
FN:1273,_ZN7emhash57HashMapIii13range4_hasherSt8equal_toIiESaISt4pairIiiEEE6rehashEm
FNDA:104,_ZN7emhash57HashMapIii13range4_hasherSt8equal_toIiESaISt4pairIiiEEE6rehashEm
FN:1273,_ZN7emhash57HashMapIii13linear_hasherSt8equal_toIiESaISt4pairIiiEEE6rehashEm
FNDA:104,_ZN7emhash57HashMapIii13linear_hasherSt8equal_toIiESaISt4pairIiiEEE6rehashEm
FN:1385,_ZN7emhash57HashMapIii12const_hasherSt8equal_toIiESaISt4pairIiiEEE12alloc_bucketEi
FNDA:199,_ZN7emhash57HashMapIii12const_hasherSt8equal_toIiESaISt4pairIiiEEE12alloc_bucketEi
FN:1385,_ZN7emhash57HashMapIii13range4_hasherSt8equal_toIiESaISt4pairIiiEEE12alloc_bucketEi
FNDA:104,_ZN7emhash57HashMapIii13range4_hasherSt8equal_toIiESaISt4pairIiiEEE12alloc_bucketEi
FN:1385,_ZN7emhash57HashMapIii13linear_hasherSt8equal_toIiESaISt4pairIiiEEE12alloc_bucketEi
FNDA:104,_ZN7emhash57HashMapIii13linear_hasherSt8equal_toIiESaISt4pairIiiEEE12alloc_bucketEi
FN:1395,_ZN7emhash57HashMapIii13linear_hasherSt8equal_toIiESaISt4pairIiiEEE14dealloc_bucketEPNS_5entryIiiEEi
FNDA:116,_ZN7emhash57HashMapIii13linear_hasherSt8equal_toIiESaISt4pairIiiEEE14dealloc_bucketEPNS_5entryIiiEEi
FN:1395,_ZN7emhash57HashMapIii13range4_hasherSt8equal_toIiESaISt4pairIiiEEE14dealloc_bucketEPNS_5entryIiiEEi
FNDA:116,_ZN7emhash57HashMapIii13range4_hasherSt8equal_toIiESaISt4pairIiiEEE14dealloc_bucketEPNS_5entryIiiEEi
FN:1395,_ZN7emhash57HashMapIii12const_hasherSt8equal_toIiESaISt4pairIiiEEE14dealloc_bucketEPNS_5entryIiiEEi
FNDA:222,_ZN7emhash57HashMapIii12const_hasherSt8equal_toIiESaISt4pairIiiEEE14dealloc_bucketEPNS_5entryIiiEEi
FN:1462,_ZN7emhash57HashMapIii13linear_hasherSt8equal_toIiESaISt4pairIiiEEE17check_expand_needEv
FNDA:50032,_ZN7emhash57HashMapIii13linear_hasherSt8equal_toIiESaISt4pairIiiEEE17check_expand_needEv
FN:1462,_ZN7emhash57HashMapIii12const_hasherSt8equal_toIiESaISt4pairIiiEEE17check_expand_needEv
FNDA:134982,_ZN7emhash57HashMapIii12const_hasherSt8equal_toIiESaISt4pairIiiEEE17check_expand_needEv
FN:1462,_ZN7emhash57HashMapIii13range4_hasherSt8equal_toIiESaISt4pairIiiEEE17check_expand_needEv
FNDA:50032,_ZN7emhash57HashMapIii13range4_hasherSt8equal_toIiESaISt4pairIiiEEE17check_expand_needEv
FN:1464,_ZN7emhash57HashMapIii12const_hasherSt8equal_toIiESaISt4pairIiiEEE12clear_bucketEib
FNDA:23659,_ZN7emhash57HashMapIii12const_hasherSt8equal_toIiESaISt4pairIiiEEE12clear_bucketEib
FN:1464,_ZN7emhash57HashMapIii13range4_hasherSt8equal_toIiESaISt4pairIiiEEE12clear_bucketEib
FNDA:13209,_ZN7emhash57HashMapIii13range4_hasherSt8equal_toIiESaISt4pairIiiEEE12clear_bucketEib
FN:1464,_ZN7emhash57HashMapIii13linear_hasherSt8equal_toIiESaISt4pairIiiEEE12clear_bucketEib
FNDA:13109,_ZN7emhash57HashMapIii13linear_hasherSt8equal_toIiESaISt4pairIiiEEE12clear_bucketEib
FN:1485,_ZN7emhash57HashMapIii13linear_hasherSt8equal_toIiESaISt4pairIiiEEE9erase_keyIiEEiRKT_
FNDA:13279,_ZN7emhash57HashMapIii13linear_hasherSt8equal_toIiESaISt4pairIiiEEE9erase_keyIiEEiRKT_
FN:1485,_ZN7emhash57HashMapIii12const_hasherSt8equal_toIiESaISt4pairIiiEEE9erase_keyIiEEiRKT_
FNDA:23829,_ZN7emhash57HashMapIii12const_hasherSt8equal_toIiESaISt4pairIiiEEE9erase_keyIiEEiRKT_
FN:1485,_ZN7emhash57HashMapIii13range4_hasherSt8equal_toIiESaISt4pairIiiEEE9erase_keyIiEEiRKT_
FNDA:13279,_ZN7emhash57HashMapIii13range4_hasherSt8equal_toIiESaISt4pairIiiEEE9erase_keyIiEEiRKT_
FN:1549,_ZNK7emhash57HashMapIii13range4_hasherSt8equal_toIiESaISt4pairIiiEEE15find_filled_keyIiEEiRKT_
FNDA:114289,_ZNK7emhash57HashMapIii13range4_hasherSt8equal_toIiESaISt4pairIiiEEE15find_filled_keyIiEEiRKT_
FN:1549,_ZNK7emhash57HashMapIii12const_hasherSt8equal_toIiESaISt4pairIiiEEE15find_filled_keyIiEEiRKT_
FNDA:168689,_ZNK7emhash57HashMapIii12const_hasherSt8equal_toIiESaISt4pairIiiEEE15find_filled_keyIiEEiRKT_
FN:1549,_ZNK7emhash57HashMapIii13linear_hasherSt8equal_toIiESaISt4pairIiiEEE15find_filled_keyIiEEiRKT_
FNDA:114289,_ZNK7emhash57HashMapIii13linear_hasherSt8equal_toIiESaISt4pairIiiEEE15find_filled_keyIiEEiRKT_
FN:1564,_ZNK7emhash57HashMapIii12const_hasherSt8equal_toIiESaISt4pairIiiEEE16find_hash_bucketIiEEiRKT_i
FNDA:168689,_ZNK7emhash57HashMapIii12const_hasherSt8equal_toIiESaISt4pairIiiEEE16find_hash_bucketIiEEiRKT_i
FN:1564,_ZNK7emhash57HashMapIii13linear_hasherSt8equal_toIiESaISt4pairIiiEEE16find_hash_bucketIiEEiRKT_i
FNDA:114289,_ZNK7emhash57HashMapIii13linear_hasherSt8equal_toIiESaISt4pairIiiEEE16find_hash_bucketIiEEiRKT_i
FN:1564,_ZNK7emhash57HashMapIii13range4_hasherSt8equal_toIiESaISt4pairIiiEEE16find_hash_bucketIiEEiRKT_i
FNDA:114289,_ZNK7emhash57HashMapIii13range4_hasherSt8equal_toIiESaISt4pairIiiEEE16find_hash_bucketIiEEiRKT_i
FN:1598,_ZN7emhash57HashMapIii13range4_hasherSt8equal_toIiESaISt4pairIiiEEE14kickout_bucketEii
FNDA:100,_ZN7emhash57HashMapIii13range4_hasherSt8equal_toIiESaISt4pairIiiEEE14kickout_bucketEii
FN:1598,_ZN7emhash57HashMapIii12const_hasherSt8equal_toIiESaISt4pairIiiEEE14kickout_bucketEii
FNDA:0,_ZN7emhash57HashMapIii12const_hasherSt8equal_toIiESaISt4pairIiiEEE14kickout_bucketEii
FN:1598,_ZN7emhash57HashMapIii13linear_hasherSt8equal_toIiESaISt4pairIiiEEE14kickout_bucketEii
FNDA:0,_ZN7emhash57HashMapIii13linear_hasherSt8equal_toIiESaISt4pairIiiEEE14kickout_bucketEii
FN:1618,_ZN7emhash57HashMapIii13linear_hasherSt8equal_toIiESaISt4pairIiiEEE15find_or_kickoutIiEEiRKT_i
FNDA:109300,_ZN7emhash57HashMapIii13linear_hasherSt8equal_toIiESaISt4pairIiiEEE15find_or_kickoutIiEEiRKT_i
FN:1618,_ZN7emhash57HashMapIii13range4_hasherSt8equal_toIiESaISt4pairIiiEEE15find_or_kickoutIiEEiRKT_i
FNDA:109300,_ZN7emhash57HashMapIii13range4_hasherSt8equal_toIiESaISt4pairIiiEEE15find_or_kickoutIiEEiRKT_i
FN:1618,_ZN7emhash57HashMapIii12const_hasherSt8equal_toIiESaISt4pairIiiEEE15find_or_kickoutIiEEiRKT_i
FNDA:267001,_ZN7emhash57HashMapIii12const_hasherSt8equal_toIiESaISt4pairIiiEEE15find_or_kickoutIiEEiRKT_i
FN:1643,_ZN7emhash57HashMapIii13range4_hasherSt8equal_toIiESaISt4pairIiiEEE16find_or_allocateIiEEiRKT_
FNDA:50032,_ZN7emhash57HashMapIii13range4_hasherSt8equal_toIiESaISt4pairIiiEEE16find_or_allocateIiEEiRKT_
FN:1643,_ZN7emhash57HashMapIii12const_hasherSt8equal_toIiESaISt4pairIiiEEE16find_or_allocateIiEEiRKT_
FNDA:134982,_ZN7emhash57HashMapIii12const_hasherSt8equal_toIiESaISt4pairIiiEEE16find_or_allocateIiEEiRKT_
FN:1643,_ZN7emhash57HashMapIii13linear_hasherSt8equal_toIiESaISt4pairIiiEEE16find_or_allocateIiEEiRKT_
FNDA:50032,_ZN7emhash57HashMapIii13linear_hasherSt8equal_toIiESaISt4pairIiiEEE16find_or_allocateIiEEiRKT_
FN:1691,_ZN7emhash57HashMapIii12const_hasherSt8equal_toIiESaISt4pairIiiEEE18find_unique_bucketIiEEiRKT_
FNDA:132019,_ZN7emhash57HashMapIii12const_hasherSt8equal_toIiESaISt4pairIiiEEE18find_unique_bucketIiEEiRKT_
FN:1691,_ZN7emhash57HashMapIii13range4_hasherSt8equal_toIiESaISt4pairIiiEEE18find_unique_bucketIiEEiRKT_
FNDA:59268,_ZN7emhash57HashMapIii13range4_hasherSt8equal_toIiESaISt4pairIiiEEE18find_unique_bucketIiEEiRKT_
FN:1691,_ZN7emhash57HashMapIii13linear_hasherSt8equal_toIiESaISt4pairIiiEEE18find_unique_bucketIiEEiRKT_
FNDA:59268,_ZN7emhash57HashMapIii13linear_hasherSt8equal_toIiESaISt4pairIiiEEE18find_unique_bucketIiEEiRKT_
FN:1794,_ZNK7emhash57HashMapIii13range4_hasherSt8equal_toIiESaISt4pairIiiEEE16find_last_bucketEi
FNDA:58556,_ZNK7emhash57HashMapIii13range4_hasherSt8equal_toIiESaISt4pairIiiEEE16find_last_bucketEi
FN:1794,_ZNK7emhash57HashMapIii13linear_hasherSt8equal_toIiESaISt4pairIiiEEE16find_last_bucketEi
FNDA:0,_ZNK7emhash57HashMapIii13linear_hasherSt8equal_toIiESaISt4pairIiiEEE16find_last_bucketEi
FN:1794,_ZNK7emhash57HashMapIii12const_hasherSt8equal_toIiESaISt4pairIiiEEE16find_last_bucketEi
FNDA:131667,_ZNK7emhash57HashMapIii12const_hasherSt8equal_toIiESaISt4pairIiiEEE16find_last_bucketEi
FN:1807,_ZNK7emhash57HashMapIii13range4_hasherSt8equal_toIiESaISt4pairIiiEEE16find_prev_bucketEii
FNDA:100,_ZNK7emhash57HashMapIii13range4_hasherSt8equal_toIiESaISt4pairIiiEEE16find_prev_bucketEii
FN:1807,_ZNK7emhash57HashMapIii12const_hasherSt8equal_toIiESaISt4pairIiiEEE16find_prev_bucketEii
FNDA:0,_ZNK7emhash57HashMapIii12const_hasherSt8equal_toIiESaISt4pairIiiEEE16find_prev_bucketEii
FN:1807,_ZNK7emhash57HashMapIii13linear_hasherSt8equal_toIiESaISt4pairIiiEEE16find_prev_bucketEii
FNDA:0,_ZNK7emhash57HashMapIii13linear_hasherSt8equal_toIiESaISt4pairIiiEEE16find_prev_bucketEii
DA:141,198442
DA:142,198442
DA:143,198442
DA:162,250655
DA:164,9219
DA:165,9219
DA:166,9219
DA:167,9219
DA:168,9219
DA:292,225289
DA:292,225289
DA:292,345189
DA:306,48850
DA:308,54400
DA:309,111000
DA:309,111000
DA:309,122100
DA:370,12
DA:371,12
DA:372,12
DA:373,12
DA:377,12
DA:378,12
DA:379,12
DA:380,12
DA:370,12
DA:371,12
DA:372,12
DA:373,12
DA:377,12
DA:378,12
DA:379,12
DA:380,12
DA:370,23
DA:371,23
DA:372,23
DA:373,23
DA:377,23
DA:378,23
DA:379,23
DA:380,23
DA:382,12
DA:382,12
DA:382,23
DA:490,12
DA:491,12
DA:495,12
DA:496,12
DA:497,12
DA:490,12
DA:491,12
DA:495,12
DA:496,12
DA:497,12
DA:490,23
DA:491,23
DA:495,23
DA:496,23
DA:497,23
DA:614,111000
DA:614,111000
DA:614,176500
DA:618,4
DA:620,3
DA:620,3
DA:620,4
DA:626,3
DA:627,3
DA:626,3
DA:627,3
DA:626,4
DA:627,4
DA:630,12
DA:631,12
DA:632,12
DA:633,12
DA:630,12
DA:631,12
DA:632,12
DA:633,12
DA:630,23
DA:631,23
DA:632,23
DA:633,23
DA:635,208
DA:635,208
DA:635,398
DA:763,114289
DA:763,114289
DA:763,168689
DA:1114,50032
DA:1115,50032
DA:1116,50032
DA:1117,50032
DA:1119,44864
DA:1122,50032
DA:1114,50032
DA:1115,50032
DA:1116,50032
DA:1117,50032
DA:1119,44864
DA:1122,50032
DA:1114,134982
DA:1115,134982
DA:1116,134982
DA:1117,134982
DA:1119,108714
DA:1122,134982
DA:1139,13279
DA:1140,13279
DA:1141,13279
DA:1142,170
DA:1144,13109
DA:1145,13109
DA:1139,13279
DA:1140,13279
DA:1141,13279
DA:1142,170
DA:1144,13109
DA:1145,13109
DA:1139,23829
DA:1140,23829
DA:1141,23829
DA:1142,170
DA:1144,23659
DA:1145,23659
DA:1174,72389
DA:1176,72389
DA:1174,72489
DA:1176,72489
DA:1174,155702
DA:1176,155702
DA:1190,12
DA:1191,12
DA:1192,0
DA:1193,0
DA:1194,0
DA:1197,12
DA:1190,12
DA:1191,12
DA:1192,0
DA:1193,0
DA:1194,0
DA:1197,12
DA:1190,23
DA:1191,23
DA:1192,0
DA:1193,0
DA:1194,0
DA:1197,23
DA:1212,1
DA:1218,1
DA:1219,0
DA:1220,1
DA:1221,1
DA:1228,1
DA:1229,1
DA:1230,1
DA:1231,1
DA:1243,50032
DA:1245,50032
DA:1246,50032
DA:1247,49940
DA:1269,92
DA:1270,92
DA:1243,50032
DA:1245,50032
DA:1246,50032
DA:1247,49940
DA:1269,92
DA:1270,92
DA:1243,134982
DA:1245,134982
DA:1246,134982
DA:1247,134806
DA:1269,176
DA:1270,176
DA:1273,104
DA:1274,104
DA:1275,0
DA:1280,104
DA:1282,760
DA:1283,656
DA:1291,104
DA:1292,0
DA:1294,104
DA:1295,104
DA:1296,104
DA:1297,104
DA:1308,104
DA:1309,104
DA:1310,104
DA:1311,104
DA:1317,104
DA:1324,104
DA:1325,104
DA:1326,104
DA:1334,74156
DA:1335,74144
DA:1336,14876
DA:1342,59268
DA:1343,59268
DA:1344,59268
DA:1345,59268
DA:1346,59268
DA:1347,59268
DA:1348,0
DA:1350,59268
DA:1351,92
DA:1380,104
DA:1381,104
DA:1273,104
DA:1274,104
DA:1275,0
DA:1280,104
DA:1282,760
DA:1283,656
DA:1291,104
DA:1292,0
DA:1294,104
DA:1295,104
DA:1296,104
DA:1297,104
DA:1308,104
DA:1309,104
DA:1310,104
DA:1311,104
DA:1317,104
DA:1324,104
DA:1325,104
DA:1326,104
DA:1334,74156
DA:1335,74144
DA:1336,14876
DA:1342,59268
DA:1343,59268
DA:1344,59268
DA:1345,59268
DA:1346,59268
DA:1347,59268
DA:1348,0
DA:1350,59268
DA:1351,92
DA:1380,104
DA:1381,104
DA:1273,199
DA:1274,199
DA:1275,0
DA:1280,199
DA:1282,1492
DA:1283,1293
DA:1291,199
DA:1292,0
DA:1294,199
DA:1295,199
DA:1296,199
DA:1297,199
DA:1308,199
DA:1309,199
DA:1310,199
DA:1311,199
DA:1317,199
DA:1324,199
DA:1325,199
DA:1326,199
DA:1334,161511
DA:1335,161488
DA:1336,29469
DA:1342,132019
DA:1343,132019
DA:1344,132019
DA:1345,132019
DA:1346,132019
DA:1347,132019
DA:1348,0
DA:1350,132019
DA:1351,176
DA:1380,199
DA:1381,199
DA:1385,104
DA:1387,104
DA:1388,0
DA:1389,104
DA:1390,104
DA:1391,0
DA:1392,104
DA:1385,104
DA:1387,104
DA:1388,0
DA:1389,104
DA:1390,104
DA:1391,0
DA:1392,104
DA:1385,199
DA:1387,199
DA:1388,0
DA:1389,199
DA:1390,199
DA:1391,0
DA:1392,199
DA:1395,116
DA:1396,116
DA:1397,104
DA:1398,116
DA:1395,116
DA:1396,116
DA:1397,104
DA:1398,116
DA:1395,222
DA:1396,222
DA:1397,199
DA:1398,222
DA:1462,50032
DA:1462,50032
DA:1462,134982
DA:1464,13109
DA:1465,13109
DA:1467,0
DA:1469,13109
DA:1470,13109
DA:1483,13109
DA:1464,13209
DA:1465,13209
DA:1467,0
DA:1469,13209
DA:1470,13209
DA:1483,13209
DA:1464,23659
DA:1465,23659
DA:1467,0
DA:1469,23659
DA:1470,23659
DA:1483,23659
DA:1485,13279
DA:1486,13279
DA:1487,13279
DA:1488,13279
DA:1489,170
DA:1491,13109
DA:1492,13109
DA:1493,13109
DA:1494,0
DA:1495,0
DA:1496,0
DA:1497,0
DA:1498,0
DA:1503,0
DA:1504,0
DA:1505,0
DA:1506,0
DA:1508,0
DA:1509,0
DA:1523,0
DA:1524,0
DA:1525,0
DA:1526,0
DA:1529,0
DA:1485,13279
DA:1486,13279
DA:1487,13279
DA:1488,13279
DA:1489,0
DA:1491,13279
DA:1492,13279
DA:1493,12
DA:1494,13267
DA:1495,5537
DA:1496,5537
DA:1497,5537
DA:1498,5537
DA:1503,7730
DA:1504,5661746
DA:1505,5669476
DA:1506,5669476
DA:1508,7560
DA:1509,7560
DA:1523,5661916
DA:1524,170
DA:1525,5661746
DA:1526,5661746
DA:1529,170
DA:1485,23829
DA:1486,23829
DA:1487,23829
DA:1488,23829
DA:1489,0
DA:1491,23829
DA:1492,23829
DA:1493,3
DA:1494,23826
DA:1495,3682
DA:1496,3682
DA:1497,3682
DA:1498,3682
DA:1503,20144
DA:1504,60992425
DA:1505,61012569
DA:1506,61012569
DA:1508,19974
DA:1509,19974
DA:1523,60992595
DA:1524,170
DA:1525,60992425
DA:1526,60992425
DA:1529,170
DA:1549,114289
DA:1550,114289
DA:1560,114289
DA:1549,114289
DA:1550,114289
DA:1560,114289
DA:1549,168689
DA:1550,168689
DA:1560,168689
DA:1564,114289
DA:1565,114289
DA:1567,114289
DA:1568,248
DA:1569,114041
DA:1570,114041
DA:1572,0
DA:1573,0
DA:1577,0
DA:1578,0
DA:1579,0
DA:1580,0
DA:1582,0
DA:1583,0
DA:1586,0
DA:1588,0
DA:1564,114289
DA:1565,114289
DA:1567,114289
DA:1568,0
DA:1569,114289
DA:1570,122
DA:1572,114167
DA:1573,0
DA:1577,129746745
DA:1578,129860912
DA:1579,129860912
DA:1580,113919
DA:1582,129746993
DA:1583,248
DA:1586,129746745
DA:1588,129746745
DA:1564,168689
DA:1565,168689
DA:1567,168689
DA:1568,0
DA:1569,168689
DA:1570,43
DA:1572,168646
DA:1573,0
DA:1577,759060869
DA:1578,759229515
DA:1579,759229515
DA:1580,162848
DA:1582,759066667
DA:1583,5798
DA:1586,759060869
DA:1588,759060869
DA:1598,0
DA:1599,0
DA:1600,0
DA:1601,0
DA:1602,0
DA:1603,0
DA:1604,0
DA:1605,0
DA:1606,0
DA:1607,0
DA:1609,0
DA:1610,0
DA:1611,0
DA:1598,100
DA:1599,100
DA:1600,100
DA:1601,100
DA:1602,100
DA:1603,100
DA:1604,100
DA:1605,0
DA:1606,100
DA:1607,12
DA:1609,100
DA:1610,100
DA:1611,100
DA:1598,0
DA:1599,0
DA:1600,0
DA:1601,0
DA:1602,0
DA:1603,0
DA:1604,0
DA:1605,0
DA:1606,0
DA:1607,0
DA:1609,0
DA:1610,0
DA:1611,0
DA:1618,109300
DA:1620,109300
DA:1621,109300
DA:1626,104132
DA:1629,5168
DA:1630,5168
DA:1631,0
DA:1633,5168
DA:1618,109300
DA:1620,109300
DA:1621,109300
DA:1626,316
DA:1629,108984
DA:1630,108984
DA:1631,100
DA:1633,108884
DA:1618,267001
DA:1620,267001
DA:1621,267001
DA:1626,199
DA:1629,266802
DA:1630,266802
DA:1631,0
DA:1633,266802
DA:1643,50032
DA:1644,50032
DA:1645,50032
DA:1646,50032
DA:1647,44864
DA:1649,5168
DA:1650,5168
DA:1651,5168
DA:1652,5168
DA:1653,0
DA:1654,0
DA:1656,0
DA:1661,0
DA:1662,0
DA:1663,0
DA:1668,0
DA:1676,0
DA:1677,0
DA:1678,0
DA:1681,0
DA:1683,0
DA:1687,0
DA:1688,0
DA:1643,50032
DA:1644,50032
DA:1645,50032
DA:1646,50032
DA:1647,48
DA:1649,49984
DA:1650,49984
DA:1651,49984
DA:1652,4
DA:1653,49980
DA:1654,48
DA:1656,49932
DA:1661,56709805
DA:1662,56759737
DA:1663,56759737
DA:1668,5164
DA:1676,56754573
DA:1677,56754573
DA:1678,44768
DA:1681,56709805
DA:1683,56709805
DA:1687,44768
DA:1688,44768
DA:1643,134982
DA:1644,134982
DA:1645,134982
DA:1646,134982
DA:1647,23
DA:1649,134959
DA:1650,134959
DA:1651,134959
DA:1652,4
DA:1653,134955
DA:1654,23
DA:1656,134932
DA:1661,654204589
DA:1662,654339521
DA:1663,654339521
DA:1668,26264
DA:1676,654313257
DA:1677,654313257
DA:1678,108668
DA:1681,654204589
DA:1683,654204589
DA:1687,108668
DA:1688,108668
DA:1691,59268
DA:1692,59268
DA:1693,59268
DA:1694,59268
DA:1695,59268
DA:1697,0
DA:1698,0
DA:1699,0
DA:1702,0
DA:1691,59268
DA:1692,59268
DA:1693,59268
DA:1694,59268
DA:1695,368
DA:1697,58900
DA:1698,58900
DA:1699,58556
DA:1702,58900
DA:1691,132019
DA:1692,132019
DA:1693,132019
DA:1694,132019
DA:1695,176
DA:1697,131843
DA:1698,131843
DA:1699,131667
DA:1702,131843
DA:1739,344350
DA:1740,344350
DA:1741,291795
DA:1746,52555
DA:1747,105164
DA:1748,105164
DA:1749,105164
DA:1750,724
DA:1752,104440
DA:1753,104440
DA:1754,51831
DA:1758,0
DA:1772,0
DA:1773,0
DA:1774,0
DA:1775,0
DA:1776,0
DA:1777,0
DA:1794,0
DA:1795,0
DA:1796,0
DA:1797,0
DA:1799,0
DA:1800,0
DA:1801,0
DA:1802,0
DA:1803,0
DA:1794,58556
DA:1795,58556
DA:1796,58556
DA:1797,320
DA:1799,28868388
DA:1800,28926624
DA:1801,28926624
DA:1802,58236
DA:1803,28868388
DA:1794,131667
DA:1795,131667
DA:1796,131667
DA:1797,176
DA:1799,275355048
DA:1800,275486539
DA:1801,275486539
DA:1802,131491
DA:1803,275355048
DA:1807,0
DA:1808,0
DA:1809,0
DA:1810,0
DA:1812,0
DA:1813,0
DA:1814,0
DA:1815,0
DA:1816,0
DA:1807,100
DA:1808,100
DA:1809,100
DA:1810,88
DA:1812,0
DA:1813,12
DA:1814,12
DA:1815,12
DA:1816,0
DA:1807,0
DA:1808,0
DA:1809,0
DA:1810,0
DA:1812,0
DA:1813,0
DA:1814,0
DA:1815,0
DA:1816,0
DA:1821,933255
DA:1825,380954
DA:1875,1314209
end_of_record
SF:/mnt/d/emhash/include/emilib/emihmap1.hpp
FN:100,_ZN6emilibL3CTZEj
FNDA:1671799064,_ZN6emilibL3CTZEj
FN:141,_ZNK6emilib7HashMapIii13range4_hasherSt8equal_toIiEE9hash_key2IiLa0EEEaRjRKT_
FNDA:239348,_ZNK6emilib7HashMapIii13range4_hasherSt8equal_toIiEE9hash_key2IiLa0EEEaRjRKT_
FN:141,_ZNK6emilib7HashMapIii12const_hasherSt8equal_toIiEE9hash_key2IiLa0EEEaRjRKT_
FNDA:462006,_ZNK6emilib7HashMapIii12const_hasherSt8equal_toIiEE9hash_key2IiLa0EEEaRjRKT_
FN:141,_ZNK6emilib7HashMapIii13linear_hasherSt8equal_toIiEE9hash_key2IiLa0EEEaRjRKT_
FNDA:239348,_ZNK6emilib7HashMapIii13linear_hasherSt8equal_toIiEE9hash_key2IiLa0EEEaRjRKT_
FN:166,_ZN6emilib7HashMapIii12const_hasherSt8equal_toIiEE8iteratorC2EPKS4_j
FNDA:168689,_ZN6emilib7HashMapIii12const_hasherSt8equal_toIiEE8iteratorC2EPKS4_j
FN:166,_ZN6emilib7HashMapIii13linear_hasherSt8equal_toIiEE8iteratorC2EPKS4_j
FNDA:114289,_ZN6emilib7HashMapIii13linear_hasherSt8equal_toIiEE8iteratorC2EPKS4_j
FN:166,_ZN6emilib7HashMapIii13range4_hasherSt8equal_toIiEE8iteratorC2EPKS4_j
FNDA:114289,_ZN6emilib7HashMapIii13range4_hasherSt8equal_toIiEE8iteratorC2EPKS4_j
FN:167,_ZN6emilib7HashMapIii13linear_hasherSt8equal_toIiEE8iteratorC2EPKS4_jb
FNDA:111000,_ZN6emilib7HashMapIii13linear_hasherSt8equal_toIiEE8iteratorC2EPKS4_jb
FN:167,_ZN6emilib7HashMapIii12const_hasherSt8equal_toIiEE8iteratorC2EPKS4_jb
FNDA:176500,_ZN6emilib7HashMapIii12const_hasherSt8equal_toIiEE8iteratorC2EPKS4_jb
FN:167,_ZN6emilib7HashMapIii13range4_hasherSt8equal_toIiEE8iteratorC2EPKS4_jb
FNDA:111000,_ZN6emilib7HashMapIii13range4_hasherSt8equal_toIiEE8iteratorC2EPKS4_jb
FN:169,_ZN6emilib7HashMapIii13range4_hasherSt8equal_toIiEE8iterator4initEv
FNDA:114289,_ZN6emilib7HashMapIii13range4_hasherSt8equal_toIiEE8iterator4initEv
FN:169,_ZN6emilib7HashMapIii13linear_hasherSt8equal_toIiEE8iterator4initEv
FNDA:114289,_ZN6emilib7HashMapIii13linear_hasherSt8equal_toIiEE8iterator4initEv
FN:169,_ZN6emilib7HashMapIii12const_hasherSt8equal_toIiEE8iterator4initEv
FNDA:168689,_ZN6emilib7HashMapIii12const_hasherSt8equal_toIiEE8iterator4initEv
FN:182,_ZNK6emilib7HashMapIii13range4_hasherSt8equal_toIiEE8iterator6bucketEv
FNDA:0,_ZNK6emilib7HashMapIii13range4_hasherSt8equal_toIiEE8iterator6bucketEv
FN:182,_ZNK6emilib7HashMapIii13linear_hasherSt8equal_toIiEE8iterator6bucketEv
FNDA:0,_ZNK6emilib7HashMapIii13linear_hasherSt8equal_toIiEE8iterator6bucketEv
FN:182,_ZNK6emilib7HashMapIii12const_hasherSt8equal_toIiEE8iterator6bucketEv
FNDA:0,_ZNK6emilib7HashMapIii12const_hasherSt8equal_toIiEE8iterator6bucketEv
FN:184,_ZN6emilib7HashMapIii13linear_hasherSt8equal_toIiEE8iteratorppEv
FNDA:0,_ZN6emilib7HashMapIii13linear_hasherSt8equal_toIiEE8iteratorppEv
FN:184,_ZN6emilib7HashMapIii12const_hasherSt8equal_toIiEE8iteratorppEv
FNDA:0,_ZN6emilib7HashMapIii12const_hasherSt8equal_toIiEE8iteratorppEv
FN:184,_ZN6emilib7HashMapIii13range4_hasherSt8equal_toIiEE8iteratorppEv
FNDA:0,_ZN6emilib7HashMapIii13range4_hasherSt8equal_toIiEE8iteratorppEv
FN:196,_ZNK6emilib7HashMapIii12const_hasherSt8equal_toIiEE8iteratorptEv
FNDA:48850,_ZNK6emilib7HashMapIii12const_hasherSt8equal_toIiEE8iteratorptEv
FN:198,_ZNK6emilib7HashMapIii12const_hasherSt8equal_toIiEE8iteratoreqERKS5_
FNDA:54400,_ZNK6emilib7HashMapIii12const_hasherSt8equal_toIiEE8iteratoreqERKS5_
FN:199,_ZNK6emilib7HashMapIii13linear_hasherSt8equal_toIiEE8iteratorneERKS5_
FNDA:111000,_ZNK6emilib7HashMapIii13linear_hasherSt8equal_toIiEE8iteratorneERKS5_
FN:199,_ZNK6emilib7HashMapIii13range4_hasherSt8equal_toIiEE8iteratorneERKS5_
FNDA:111000,_ZNK6emilib7HashMapIii13range4_hasherSt8equal_toIiEE8iteratorneERKS5_
FN:199,_ZNK6emilib7HashMapIii12const_hasherSt8equal_toIiEE8iteratorneERKS5_
FNDA:122100,_ZNK6emilib7HashMapIii12const_hasherSt8equal_toIiEE8iteratorneERKS5_
FN:204,_ZN6emilib7HashMapIii12const_hasherSt8equal_toIiEE8iterator17goto_next_elementEv
FNDA:0,_ZN6emilib7HashMapIii12const_hasherSt8equal_toIiEE8iterator17goto_next_elementEv
FN:204,_ZN6emilib7HashMapIii13linear_hasherSt8equal_toIiEE8iterator17goto_next_elementEv
FNDA:0,_ZN6emilib7HashMapIii13linear_hasherSt8equal_toIiEE8iterator17goto_next_elementEv
FN:204,_ZN6emilib7HashMapIii13range4_hasherSt8equal_toIiEE8iterator17goto_next_elementEv
FNDA:0,_ZN6emilib7HashMapIii13range4_hasherSt8equal_toIiEE8iterator17goto_next_elementEv
FN:297,_ZN6emilib7HashMapIii13range4_hasherSt8equal_toIiEEC2Ej
FNDA:12,_ZN6emilib7HashMapIii13range4_hasherSt8equal_toIiEEC2Ej
FN:297,_ZN6emilib7HashMapIii13linear_hasherSt8equal_toIiEEC2Ej
FNDA:12,_ZN6emilib7HashMapIii13linear_hasherSt8equal_toIiEEC2Ej
FN:297,_ZN6emilib7HashMapIii12const_hasherSt8equal_toIiEEC2Ej
FNDA:23,_ZN6emilib7HashMapIii12const_hasherSt8equal_toIiEEC2Ej
FN:337,_ZN6emilib7HashMapIii12const_hasherSt8equal_toIiEED2Ev
FNDA:23,_ZN6emilib7HashMapIii12const_hasherSt8equal_toIiEED2Ev
FN:337,_ZN6emilib7HashMapIii13linear_hasherSt8equal_toIiEED2Ev
FNDA:12,_ZN6emilib7HashMapIii13linear_hasherSt8equal_toIiEED2Ev
FN:337,_ZN6emilib7HashMapIii13range4_hasherSt8equal_toIiEED2Ev
FNDA:12,_ZN6emilib7HashMapIii13range4_hasherSt8equal_toIiEED2Ev
FN:383,_ZN6emilib7HashMapIii13linear_hasherSt8equal_toIiEE5beginEv
FNDA:0,_ZN6emilib7HashMapIii13linear_hasherSt8equal_toIiEE5beginEv
FN:383,_ZN6emilib7HashMapIii12const_hasherSt8equal_toIiEE5beginEv
FNDA:0,_ZN6emilib7HashMapIii12const_hasherSt8equal_toIiEE5beginEv
FN:383,_ZN6emilib7HashMapIii13range4_hasherSt8equal_toIiEE5beginEv
FNDA:0,_ZN6emilib7HashMapIii13range4_hasherSt8equal_toIiEE5beginEv
FN:389,_ZN6emilib7HashMapIii13linear_hasherSt8equal_toIiEE3endEv
FNDA:111000,_ZN6emilib7HashMapIii13linear_hasherSt8equal_toIiEE3endEv
FN:389,_ZN6emilib7HashMapIii12const_hasherSt8equal_toIiEE3endEv
FNDA:176500,_ZN6emilib7HashMapIii12const_hasherSt8equal_toIiEE3endEv
FN:389,_ZN6emilib7HashMapIii13range4_hasherSt8equal_toIiEE3endEv
FNDA:111000,_ZN6emilib7HashMapIii13range4_hasherSt8equal_toIiEE3endEv
FN:395,_ZNK6emilib7HashMapIii12const_hasherSt8equal_toIiEE4sizeEv
FNDA:4,_ZNK6emilib7HashMapIii12const_hasherSt8equal_toIiEE4sizeEv
FN:400,_ZNK6emilib7HashMapIii13range4_hasherSt8equal_toIiEE12bucket_countEv
FNDA:114292,_ZNK6emilib7HashMapIii13range4_hasherSt8equal_toIiEE12bucket_countEv
FN:400,_ZNK6emilib7HashMapIii12const_hasherSt8equal_toIiEE12bucket_countEv
FNDA:168693,_ZNK6emilib7HashMapIii12const_hasherSt8equal_toIiEE12bucket_countEv
FN:400,_ZNK6emilib7HashMapIii13linear_hasherSt8equal_toIiEE12bucket_countEv
FNDA:114292,_ZNK6emilib7HashMapIii13linear_hasherSt8equal_toIiEE12bucket_countEv
FN:403,_ZNK6emilib7HashMapIii13range4_hasherSt8equal_toIiEE11load_factorEv
FNDA:3,_ZNK6emilib7HashMapIii13range4_hasherSt8equal_toIiEE11load_factorEv
FN:403,_ZNK6emilib7HashMapIii12const_hasherSt8equal_toIiEE11load_factorEv
FNDA:4,_ZNK6emilib7HashMapIii12const_hasherSt8equal_toIiEE11load_factorEv
FN:403,_ZNK6emilib7HashMapIii13linear_hasherSt8equal_toIiEE11load_factorEv
FNDA:3,_ZNK6emilib7HashMapIii13linear_hasherSt8equal_toIiEE11load_factorEv
FN:407,_ZN6emilib7HashMapIii12const_hasherSt8equal_toIiEE15max_load_factorEf
FNDA:1,_ZN6emilib7HashMapIii12const_hasherSt8equal_toIiEE15max_load_factorEf
FN:417,_ZN6emilib7HashMapIii13range4_hasherSt8equal_toIiEE4findIiEENS4_8iteratorERKT_
FNDA:114289,_ZN6emilib7HashMapIii13range4_hasherSt8equal_toIiEE4findIiEENS4_8iteratorERKT_
FN:417,_ZN6emilib7HashMapIii12const_hasherSt8equal_toIiEE4findIiEENS4_8iteratorERKT_
FNDA:168689,_ZN6emilib7HashMapIii12const_hasherSt8equal_toIiEE4findIiEENS4_8iteratorERKT_
FN:417,_ZN6emilib7HashMapIii13linear_hasherSt8equal_toIiEE4findIiEENS4_8iteratorERKT_
FNDA:114289,_ZN6emilib7HashMapIii13linear_hasherSt8equal_toIiEE4findIiEENS4_8iteratorERKT_
FN:621,_ZN6emilib7HashMapIii13range4_hasherSt8equal_toIiEEixERKi
FNDA:50032,_ZN6emilib7HashMapIii13range4_hasherSt8equal_toIiEEixERKi
FN:621,_ZN6emilib7HashMapIii13linear_hasherSt8equal_toIiEEixERKi
FNDA:50032,_ZN6emilib7HashMapIii13linear_hasherSt8equal_toIiEEixERKi
FN:621,_ZN6emilib7HashMapIii12const_hasherSt8equal_toIiEEixERKi
FNDA:134982,_ZN6emilib7HashMapIii12const_hasherSt8equal_toIiEEixERKi
FN:650,_ZN6emilib7HashMapIii13linear_hasherSt8equal_toIiEE5eraseERKi
FNDA:13279,_ZN6emilib7HashMapIii13linear_hasherSt8equal_toIiEE5eraseERKi
FN:650,_ZN6emilib7HashMapIii12const_hasherSt8equal_toIiEE5eraseERKi
FNDA:23829,_ZN6emilib7HashMapIii12const_hasherSt8equal_toIiEE5eraseERKi
FN:650,_ZN6emilib7HashMapIii13range4_hasherSt8equal_toIiEE5eraseERKi
FNDA:13279,_ZN6emilib7HashMapIii13range4_hasherSt8equal_toIiEE5eraseERKi
FN:663,_ZN6emilib7HashMapIii12const_hasherSt8equal_toIiEE6_eraseEj
FNDA:23659,_ZN6emilib7HashMapIii12const_hasherSt8equal_toIiEE6_eraseEj
FN:663,_ZN6emilib7HashMapIii13linear_hasherSt8equal_toIiEE6_eraseEj
FNDA:13109,_ZN6emilib7HashMapIii13linear_hasherSt8equal_toIiEE6_eraseEj
FN:663,_ZN6emilib7HashMapIii13range4_hasherSt8equal_toIiEE6_eraseEj
FNDA:13109,_ZN6emilib7HashMapIii13range4_hasherSt8equal_toIiEE6_eraseEj
FN:697,_ZN6emilib7HashMapIii13range4_hasherSt8equal_toIiEE18need_explicit_dtorEv
FNDA:74869,_ZN6emilib7HashMapIii13range4_hasherSt8equal_toIiEE18need_explicit_dtorEv
FN:697,_ZN6emilib7HashMapIii13linear_hasherSt8equal_toIiEE18need_explicit_dtorEv
FNDA:74869,_ZN6emilib7HashMapIii13linear_hasherSt8equal_toIiEE18need_explicit_dtorEv
FN:697,_ZN6emilib7HashMapIii12const_hasherSt8equal_toIiEE18need_explicit_dtorEv
FNDA:158189,_ZN6emilib7HashMapIii12const_hasherSt8equal_toIiEE18need_explicit_dtorEv
FN:713,_ZN6emilib7HashMapIii12const_hasherSt8equal_toIiEE10clear_metaEv
FNDA:178,_ZN6emilib7HashMapIii12const_hasherSt8equal_toIiEE10clear_metaEv
FN:713,_ZN6emilib7HashMapIii13range4_hasherSt8equal_toIiEE10clear_metaEv
FNDA:92,_ZN6emilib7HashMapIii13range4_hasherSt8equal_toIiEE10clear_metaEv
FN:713,_ZN6emilib7HashMapIii13linear_hasherSt8equal_toIiEE10clear_metaEv
FNDA:92,_ZN6emilib7HashMapIii13linear_hasherSt8equal_toIiEE10clear_metaEv
FN:724,_ZN6emilib7HashMapIii13range4_hasherSt8equal_toIiEE10clear_dataEv
FNDA:12,_ZN6emilib7HashMapIii13range4_hasherSt8equal_toIiEE10clear_dataEv
FN:724,_ZN6emilib7HashMapIii12const_hasherSt8equal_toIiEE10clear_dataEv
FNDA:24,_ZN6emilib7HashMapIii12const_hasherSt8equal_toIiEE10clear_dataEv
FN:724,_ZN6emilib7HashMapIii13linear_hasherSt8equal_toIiEE10clear_dataEv
FNDA:12,_ZN6emilib7HashMapIii13linear_hasherSt8equal_toIiEE10clear_dataEv
FN:735,_ZN6emilib7HashMapIii12const_hasherSt8equal_toIiEE5clearEv
FNDA:1,_ZN6emilib7HashMapIii12const_hasherSt8equal_toIiEE5clearEv
FN:772,_ZN6emilib7HashMapIii12const_hasherSt8equal_toIiEE6rehashEj
FNDA:177,_ZN6emilib7HashMapIii12const_hasherSt8equal_toIiEE6rehashEj
FN:772,_ZN6emilib7HashMapIii13linear_hasherSt8equal_toIiEE6rehashEj
FNDA:92,_ZN6emilib7HashMapIii13linear_hasherSt8equal_toIiEE6rehashEj
FN:772,_ZN6emilib7HashMapIii13range4_hasherSt8equal_toIiEE6rehashEj
FNDA:92,_ZN6emilib7HashMapIii13range4_hasherSt8equal_toIiEE6rehashEj
FN:833,_ZN6emilib7HashMapIii12const_hasherSt8equal_toIiEE19prefetch_heap_blockEPc
FNDA:58877905,_ZN6emilib7HashMapIii12const_hasherSt8equal_toIiEE19prefetch_heap_blockEPc
FN:833,_ZN6emilib7HashMapIii13range4_hasherSt8equal_toIiEE19prefetch_heap_blockEPc
FNDA:36681666,_ZN6emilib7HashMapIii13range4_hasherSt8equal_toIiEE19prefetch_heap_blockEPc
FN:833,_ZN6emilib7HashMapIii13linear_hasherSt8equal_toIiEE19prefetch_heap_blockEPc
FNDA:252807,_ZN6emilib7HashMapIii13linear_hasherSt8equal_toIiEE19prefetch_heap_blockEPc
FN:843,_ZNK6emilib7HashMapIii13range4_hasherSt8equal_toIiEE15group_has_emptyEj
FNDA:13958091,_ZNK6emilib7HashMapIii13range4_hasherSt8equal_toIiEE15group_has_emptyEj
FN:843,_ZNK6emilib7HashMapIii12const_hasherSt8equal_toIiEE15group_has_emptyEj
FNDA:41038948,_ZNK6emilib7HashMapIii12const_hasherSt8equal_toIiEE15group_has_emptyEj
FN:843,_ZNK6emilib7HashMapIii13linear_hasherSt8equal_toIiEE15group_has_emptyEj
FNDA:237743,_ZNK6emilib7HashMapIii13linear_hasherSt8equal_toIiEE15group_has_emptyEj
FN:848,_ZNK6emilib7HashMapIii12const_hasherSt8equal_toIiEE11group_probeEj
FNDA:108181747,_ZNK6emilib7HashMapIii12const_hasherSt8equal_toIiEE11group_probeEj
FN:848,_ZNK6emilib7HashMapIii13linear_hasherSt8equal_toIiEE11group_probeEj
FNDA:445960,_ZNK6emilib7HashMapIii13linear_hasherSt8equal_toIiEE11group_probeEj
FN:848,_ZNK6emilib7HashMapIii13range4_hasherSt8equal_toIiEE11group_probeEj
FNDA:54405963,_ZNK6emilib7HashMapIii13range4_hasherSt8equal_toIiEE11group_probeEj
FN:857,_ZN6emilib7HashMapIii13range4_hasherSt8equal_toIiEE15set_group_probeEji
FNDA:62556,_ZN6emilib7HashMapIii13range4_hasherSt8equal_toIiEE15set_group_probeEji
FN:857,_ZN6emilib7HashMapIii12const_hasherSt8equal_toIiEE15set_group_probeEji
FNDA:136180,_ZN6emilib7HashMapIii12const_hasherSt8equal_toIiEE15set_group_probeEji
FN:857,_ZN6emilib7HashMapIii13linear_hasherSt8equal_toIiEE15set_group_probeEji
FNDA:67256,_ZN6emilib7HashMapIii13linear_hasherSt8equal_toIiEE15set_group_probeEji
FN:865,_ZN6emilib7HashMapIii13range4_hasherSt8equal_toIiEE10set_statesEja
FNDA:106612,_ZN6emilib7HashMapIii13range4_hasherSt8equal_toIiEE10set_statesEja
FN:865,_ZN6emilib7HashMapIii12const_hasherSt8equal_toIiEE10set_statesEja
FNDA:243220,_ZN6emilib7HashMapIii12const_hasherSt8equal_toIiEE10set_statesEja
FN:865,_ZN6emilib7HashMapIii13linear_hasherSt8equal_toIiEE10set_statesEja
FNDA:106612,_ZN6emilib7HashMapIii13linear_hasherSt8equal_toIiEE10set_statesEja
FN:870,_ZNK6emilib7HashMapIii13range4_hasherSt8equal_toIiEE15get_next_bucketEjj
FNDA:62833977,_ZNK6emilib7HashMapIii13range4_hasherSt8equal_toIiEE15get_next_bucketEjj
FN:870,_ZNK6emilib7HashMapIii12const_hasherSt8equal_toIiEE15get_next_bucketEjj
FNDA:127065655,_ZNK6emilib7HashMapIii12const_hasherSt8equal_toIiEE15get_next_bucketEjj
FN:870,_ZNK6emilib7HashMapIii13linear_hasherSt8equal_toIiEE15get_next_bucketEjj
FNDA:481074,_ZNK6emilib7HashMapIii13linear_hasherSt8equal_toIiEE15get_next_bucketEjj
FN:885,_ZNK6emilib7HashMapIii12const_hasherSt8equal_toIiEE18find_filled_bucketIiEEjRKT_
FNDA:192518,_ZNK6emilib7HashMapIii12const_hasherSt8equal_toIiEE18find_filled_bucketIiEEjRKT_
FN:885,_ZNK6emilib7HashMapIii13linear_hasherSt8equal_toIiEE18find_filled_bucketIiEEjRKT_
FNDA:127568,_ZNK6emilib7HashMapIii13linear_hasherSt8equal_toIiEE18find_filled_bucketIiEEjRKT_
FN:885,_ZNK6emilib7HashMapIii13range4_hasherSt8equal_toIiEE18find_filled_bucketIiEEjRKT_
FNDA:127568,_ZNK6emilib7HashMapIii13range4_hasherSt8equal_toIiEE18find_filled_bucketIiEEjRKT_
FN:913,_ZN6emilib7HashMapIii13range4_hasherSt8equal_toIiEE16find_or_allocateIiEEjRKT_Rb
FNDA:50032,_ZN6emilib7HashMapIii13range4_hasherSt8equal_toIiEE16find_or_allocateIiEEjRKT_Rb
FN:913,_ZN6emilib7HashMapIii12const_hasherSt8equal_toIiEE16find_or_allocateIiEEjRKT_Rb
FNDA:134982,_ZN6emilib7HashMapIii12const_hasherSt8equal_toIiEE16find_or_allocateIiEEjRKT_Rb
FN:913,_ZN6emilib7HashMapIii13linear_hasherSt8equal_toIiEE16find_or_allocateIiEEjRKT_Rb
FNDA:50032,_ZN6emilib7HashMapIii13linear_hasherSt8equal_toIiEE16find_or_allocateIiEEjRKT_Rb
FN:968,_ZNK6emilib7HashMapIii12const_hasherSt8equal_toIiEE12empty_deleteEj
FNDA:19026056,_ZNK6emilib7HashMapIii12const_hasherSt8equal_toIiEE12empty_deleteEj
FN:968,_ZNK6emilib7HashMapIii13linear_hasherSt8equal_toIiEE12empty_deleteEj
FNDA:102788,_ZNK6emilib7HashMapIii13linear_hasherSt8equal_toIiEE12empty_deleteEj
FN:968,_ZNK6emilib7HashMapIii13range4_hasherSt8equal_toIiEE12empty_deleteEj
FNDA:8490988,_ZNK6emilib7HashMapIii13range4_hasherSt8equal_toIiEE12empty_deleteEj
FN:973,_ZNK6emilib7HashMapIii12const_hasherSt8equal_toIiEE11filled_maskEj
FNDA:162891,_ZNK6emilib7HashMapIii12const_hasherSt8equal_toIiEE11filled_maskEj
FN:973,_ZNK6emilib7HashMapIii13range4_hasherSt8equal_toIiEE11filled_maskEj
FNDA:114041,_ZNK6emilib7HashMapIii13range4_hasherSt8equal_toIiEE11filled_maskEj
FN:973,_ZNK6emilib7HashMapIii13linear_hasherSt8equal_toIiEE11filled_maskEj
FNDA:114041,_ZNK6emilib7HashMapIii13linear_hasherSt8equal_toIiEE11filled_maskEj
FN:979,_ZN6emilib7HashMapIii12const_hasherSt8equal_toIiEE15find_empty_slotEjji
FNDA:136180,_ZN6emilib7HashMapIii12const_hasherSt8equal_toIiEE15find_empty_slotEjji
FN:979,_ZN6emilib7HashMapIii13linear_hasherSt8equal_toIiEE15find_empty_slotEjji
FNDA:67256,_ZN6emilib7HashMapIii13linear_hasherSt8equal_toIiEE15find_empty_slotEjji
FN:979,_ZN6emilib7HashMapIii13range4_hasherSt8equal_toIiEE15find_empty_slotEjji
FNDA:62556,_ZN6emilib7HashMapIii13range4_hasherSt8equal_toIiEE15find_empty_slotEjji
FN:994,_ZNK6emilib7HashMapIii12const_hasherSt8equal_toIiEE16find_filled_slotEj
FNDA:0,_ZNK6emilib7HashMapIii12const_hasherSt8equal_toIiEE16find_filled_slotEj
FN:994,_ZNK6emilib7HashMapIii13linear_hasherSt8equal_toIiEE16find_filled_slotEj
FNDA:0,_ZNK6emilib7HashMapIii13linear_hasherSt8equal_toIiEE16find_filled_slotEj
FN:994,_ZNK6emilib7HashMapIii13range4_hasherSt8equal_toIiEE16find_filled_slotEj
FNDA:0,_ZNK6emilib7HashMapIii13range4_hasherSt8equal_toIiEE16find_filled_slotEj
DA:100,1671799064
DA:105,1671799064
DA:108,1671799064
DA:141,239348
DA:142,239348
DA:143,239348
DA:144,239348
DA:145,239348
DA:141,239348
DA:142,239348
DA:143,239348
DA:144,239348
DA:145,239348
DA:141,462006
DA:142,462006
DA:143,462006
DA:144,462006
DA:145,462006
DA:166,114289
DA:166,114289
DA:166,168689
DA:167,111000
DA:167,111000
DA:167,176500
DA:169,114289
DA:170,114289
DA:171,114289
DA:172,114289
DA:173,114041
DA:174,114041
DA:176,248
DA:178,114289
DA:169,114289
DA:170,114289
DA:171,114289
DA:172,114289
DA:173,114041
DA:174,114041
DA:176,248
DA:178,114289
DA:169,168689
DA:170,168689
DA:171,168689
DA:172,168689
DA:173,162891
DA:174,162891
DA:176,5798
DA:178,168689
DA:182,0
DA:182,0
DA:182,0
DA:184,0
DA:185,0
DA:186,0
DA:184,0
DA:185,0
DA:186,0
DA:184,0
DA:185,0
DA:186,0
DA:196,48850
DA:198,54400
DA:199,111000
DA:199,111000
DA:199,122100
DA:204,0
DA:205,0
DA:206,0
DA:207,0
DA:208,0
DA:212,0
DA:213,0
DA:215,0
DA:204,0
DA:205,0
DA:206,0
DA:207,0
DA:208,0
DA:212,0
DA:213,0
DA:215,0
DA:204,0
DA:205,0
DA:206,0
DA:207,0
DA:208,0
DA:212,0
DA:213,0
DA:215,0
DA:297,12
DA:297,12
DA:297,23
DA:337,12
DA:338,12
DA:339,12
DA:340,12
DA:341,12
DA:342,12
DA:337,12
DA:338,12
DA:339,12
DA:340,12
DA:341,12
DA:342,12
DA:337,23
DA:338,23
DA:339,23
DA:340,23
DA:341,23
DA:342,23
DA:383,0
DA:383,0
DA:383,0
DA:389,111000
DA:389,111000
DA:389,176500
DA:395,4
DA:400,114292
DA:400,114292
DA:400,168693
DA:403,3
DA:404,3
DA:403,3
DA:404,3
DA:403,4
DA:404,4
DA:407,1
DA:409,1
DA:417,114289
DA:417,114289
DA:417,168689
DA:621,50032
DA:622,50032
DA:623,50032
DA:624,50032
DA:626,50032
DA:627,44864
DA:628,44864
DA:631,50032
DA:621,50032
DA:622,50032
DA:623,50032
DA:624,50032
DA:626,50032
DA:627,44864
DA:628,44864
DA:631,50032
DA:621,134982
DA:622,134982
DA:623,134982
DA:624,134982
DA:626,134982
DA:627,108714
DA:628,108714
DA:631,134982
DA:650,13279
DA:651,13279
DA:652,13279
DA:653,170
DA:655,13109
DA:656,13109
DA:650,13279
DA:651,13279
DA:652,13279
DA:653,170
DA:655,13109
DA:656,13109
DA:650,23829
DA:651,23829
DA:652,23829
DA:653,170
DA:655,23659
DA:656,23659
DA:663,13109
DA:664,13109
DA:665,13109
DA:666,0
DA:667,0
DA:670,13109
DA:676,13109
DA:663,13109
DA:664,13109
DA:665,13109
DA:666,0
DA:667,0
DA:670,13109
DA:676,13109
DA:663,23659
DA:664,23659
DA:665,23659
DA:666,0
DA:667,0
DA:670,23659
DA:676,23659
DA:697,74869
DA:699,74869
DA:697,74869
DA:699,74869
DA:697,158189
DA:699,158189
DA:713,92
DA:715,92
DA:717,92
DA:718,92
DA:719,9360
DA:720,9268
DA:721,92
DA:722,92
DA:713,92
DA:715,92
DA:717,92
DA:718,92
DA:719,9360
DA:720,9268
DA:721,92
DA:722,92
DA:713,178
DA:715,178
DA:717,178
DA:718,178
DA:719,21452
DA:720,21274
DA:721,178
DA:722,178
DA:724,12
DA:725,12
DA:726,0
DA:727,0
DA:728,0
DA:729,0
DA:732,12
DA:724,12
DA:725,12
DA:726,0
DA:727,0
DA:728,0
DA:729,0
DA:732,12
DA:724,24
DA:725,24
DA:726,0
DA:727,0
DA:728,0
DA:729,0
DA:732,24
DA:735,1
DA:736,1
DA:737,1
DA:738,1
DA:740,1
DA:741,1
DA:772,92
DA:773,92
DA:774,92
DA:775,0
DA:782,92
DA:783,448
DA:784,356
DA:787,92
DA:788,92
DA:790,92
DA:791,92
DA:793,92
DA:794,92
DA:795,92
DA:796,92
DA:798,92
DA:799,92
DA:800,92
DA:801,92
DA:802,92
DA:805,92
DA:807,92
DA:810,74140
DA:811,74048
DA:812,61748
DA:815,61748
DA:816,61748
DA:817,61748
DA:818,61748
DA:819,61748
DA:820,61748
DA:821,61748
DA:822,0
DA:825,92
DA:826,92
DA:772,92
DA:773,92
DA:774,92
DA:775,0
DA:782,92
DA:783,448
DA:784,356
DA:787,92
DA:788,92
DA:790,92
DA:791,92
DA:793,92
DA:794,92
DA:795,92
DA:796,92
DA:798,92
DA:799,92
DA:800,92
DA:801,92
DA:802,92
DA:805,92
DA:807,92
DA:810,74140
DA:811,74048
DA:812,61748
DA:815,61748
DA:816,61748
DA:817,61748
DA:818,61748
DA:819,61748
DA:820,61748
DA:821,61748
DA:822,0
DA:825,92
DA:826,92
DA:772,177
DA:773,177
DA:774,177
DA:775,0
DA:782,177
DA:783,895
DA:784,718
DA:787,177
DA:788,177
DA:790,177
DA:791,177
DA:793,177
DA:794,177
DA:795,177
DA:796,177
DA:798,177
DA:799,177
DA:800,177
DA:801,177
DA:802,177
DA:805,177
DA:807,177
DA:810,161489
DA:811,161312
DA:812,134506
DA:815,134506
DA:816,134506
DA:817,134506
DA:818,134506
DA:819,134506
DA:820,134506
DA:821,134506
DA:822,0
DA:825,177
DA:826,177
DA:833,252807
DA:839,252807
DA:841,252807
DA:833,36681666
DA:839,36681666
DA:841,36681666
DA:833,58877905
DA:839,58877905
DA:841,58877905
DA:843,237743
DA:844,237743
DA:845,237743
DA:843,13958091
DA:844,13958091
DA:845,13958091
DA:843,41038948
DA:844,41038948
DA:845,41038948
DA:848,445960
DA:849,445960
DA:851,445960
DA:852,0
DA:854,445960
DA:848,54405963
DA:849,54405963
DA:851,54405963
DA:852,53346086
DA:854,1059877
DA:848,108181747
DA:849,108181747
DA:851,108181747
DA:852,106145800
DA:854,2035947
DA:857,67256
DA:859,67256
DA:863,67256
DA:857,62556
DA:859,62556
DA:863,62556
DA:857,136180
DA:859,136180
DA:863,136180
DA:865,106612
DA:867,106612
DA:868,106612
DA:865,106612
DA:867,106612
DA:868,106612
DA:865,243220
DA:867,243220
DA:868,243220
DA:870,481074
DA:872,481074
DA:873,456512
DA:875,24562
DA:881,481074
DA:870,62833977
DA:872,62833977
DA:873,1401295
DA:875,61432682
DA:881,62833977
DA:870,127065655
DA:872,127065655
DA:873,2709544
DA:875,124356111
DA:881,127065655
DA:885,127568
DA:886,127568
DA:887,127568
DA:888,127568
DA:890,250092
DA:891,755320
DA:892,377660
DA:893,377660
DA:894,135519
DA:896,135658
DA:897,135658
DA:898,135658
DA:899,127150
DA:900,8508
DA:903,250510
DA:904,418
DA:905,250092
DA:885,127568
DA:886,127568
DA:887,127568
DA:888,127568
DA:890,38947780
DA:891,78150696
DA:892,39075348
DA:893,39075348
DA:894,36569078
DA:896,136178486
DA:897,136178486
DA:898,136178486
DA:899,127150
DA:900,136051336
DA:903,38948198
DA:904,418
DA:905,38947780
DA:885,192518
DA:886,192518
DA:887,192518
DA:888,192518
DA:890,61341649
DA:891,123068334
DA:892,61534167
DA:893,61534167
DA:894,58606743
DA:896,816447087
DA:897,816447087
DA:898,816447087
DA:899,186550
DA:900,816260537
DA:903,61347617
DA:904,5968
DA:905,61341649
DA:913,50032
DA:914,50032
DA:915,50032
DA:916,80
DA:918,50032
DA:920,50032
DA:922,50032
DA:923,50032
DA:924,50032
DA:925,50032
DA:928,479022
DA:929,239511
DA:932,243920
DA:933,9577
DA:934,9577
DA:935,9577
DA:936,5168
DA:937,5168
DA:939,4409
DA:942,234343
DA:944,449268
DA:945,224634
DA:946,38893
DA:947,38893
DA:948,38893
DA:949,185741
DA:950,2048
DA:954,195450
DA:955,195450
DA:957,5971
DA:958,463
DA:959,463
DA:962,5508
DA:963,5508
DA:965,5508
DA:913,50032
DA:914,50032
DA:915,50032
DA:916,80
DA:918,50032
DA:920,50032
DA:922,50032
DA:923,50032
DA:924,50032
DA:925,50032
DA:928,31013050
DA:929,15506525
DA:932,72908075
DA:933,57406718
DA:934,57406718
DA:935,57406718
DA:936,5168
DA:937,5168
DA:939,57401550
DA:942,15501357
DA:944,27889964
DA:945,13944982
DA:946,43592
DA:947,43592
DA:948,43592
DA:949,13901390
DA:950,5030
DA:954,15457765
DA:955,15457765
DA:957,1272
DA:958,464
DA:959,464
DA:962,808
DA:963,808
DA:965,808
DA:913,134982
DA:914,134982
DA:915,134982
DA:916,154
DA:918,134982
DA:920,134982
DA:922,134982
DA:923,134982
DA:924,134982
DA:925,134982
DA:928,93912888
DA:929,46956444
DA:932,708084553
DA:933,661154377
DA:934,661154377
DA:935,661154377
DA:936,26268
DA:937,26268
DA:939,661128109
DA:942,46930176
DA:944,82030578
DA:945,41015289
DA:946,96046
DA:947,96046
DA:948,96046
DA:949,40919243
DA:950,15560
DA:954,46834130
DA:955,46834130
DA:957,12668
DA:958,10994
DA:959,10994
DA:962,1674
DA:963,1674
DA:965,1674
DA:968,102788
DA:969,102788
DA:970,308364
DA:968,8490988
DA:969,8490988
DA:970,25472964
DA:968,19026056
DA:969,19026056
DA:970,57078168
DA:973,114041
DA:974,114041
DA:975,342123
DA:973,114041
DA:974,114041
DA:975,342123
DA:973,162891
DA:974,162891
DA:975,488673
DA:979,102788
DA:980,35532
DA:981,102788
DA:982,102788
DA:983,67256
DA:984,67256
DA:985,67256
DA:986,67256
DA:988,35532
DA:979,8490988
DA:980,8428432
DA:981,8490988
DA:982,8490988
DA:983,62556
DA:984,62556
DA:985,62556
DA:986,62556
DA:988,8428432
DA:979,19026056
DA:980,18889876
DA:981,19026056
DA:982,19026056
DA:983,136180
DA:984,136180
DA:985,136180
DA:986,136180
DA:988,18889876
DA:994,0
DA:995,0
DA:996,0
DA:998,0
DA:999,0
DA:1000,0
DA:1001,0
DA:1002,0
DA:994,0
DA:995,0
DA:996,0
DA:998,0
DA:999,0
DA:1000,0
DA:1001,0
DA:1002,0
DA:994,0
DA:995,0
DA:996,0
DA:998,0
DA:999,0
DA:1000,0
DA:1001,0
DA:1002,0
end_of_record
SF:/mnt/d/emhash/include/emilib/emihmap2.hpp
FN:130,_ZN7emilib2L3CTZEm
FNDA:2271180809,_ZN7emilib2L3CTZEm
FN:170,_ZNK7emilib27HashMapIii13linear_hasherSt8equal_toIiEE9hash_key2IiLa0EEEaRjRKT_
FNDA:239844,_ZNK7emilib27HashMapIii13linear_hasherSt8equal_toIiEE9hash_key2IiLa0EEEaRjRKT_
FN:170,_ZNK7emilib27HashMapIii12const_hasherSt8equal_toIiEE9hash_key2IiLa0EEEaRjRKT_
FNDA:465391,_ZNK7emilib27HashMapIii12const_hasherSt8equal_toIiEE9hash_key2IiLa0EEEaRjRKT_
FN:170,_ZNK7emilib27HashMapIii13range4_hasherSt8equal_toIiEE9hash_key2IiLa0EEEaRjRKT_
FNDA:239844,_ZNK7emilib27HashMapIii13range4_hasherSt8equal_toIiEE9hash_key2IiLa0EEEaRjRKT_
FN:191,_ZN7emilib27HashMapIii12const_hasherSt8equal_toIiEE8iteratorC2EPKS4_j
FNDA:345189,_ZN7emilib27HashMapIii12const_hasherSt8equal_toIiEE8iteratorC2EPKS4_j
FN:191,_ZN7emilib27HashMapIii13linear_hasherSt8equal_toIiEE8iteratorC2EPKS4_j
FNDA:225289,_ZN7emilib27HashMapIii13linear_hasherSt8equal_toIiEE8iteratorC2EPKS4_j
FN:191,_ZN7emilib27HashMapIii13range4_hasherSt8equal_toIiEE8iteratorC2EPKS4_j
FNDA:225289,_ZN7emilib27HashMapIii13range4_hasherSt8equal_toIiEE8iteratorC2EPKS4_j
FN:197,_ZN7emilib27HashMapIii13range4_hasherSt8equal_toIiEE8iterator4initEv
FNDA:0,_ZN7emilib27HashMapIii13range4_hasherSt8equal_toIiEE8iterator4initEv
FN:197,_ZN7emilib27HashMapIii13linear_hasherSt8equal_toIiEE8iterator4initEv
FNDA:0,_ZN7emilib27HashMapIii13linear_hasherSt8equal_toIiEE8iterator4initEv
FN:197,_ZN7emilib27HashMapIii12const_hasherSt8equal_toIiEE8iterator4initEv
FNDA:0,_ZN7emilib27HashMapIii12const_hasherSt8equal_toIiEE8iterator4initEv
FN:210,_ZNK7emilib27HashMapIii12const_hasherSt8equal_toIiEE8iterator6bucketEv
FNDA:0,_ZNK7emilib27HashMapIii12const_hasherSt8equal_toIiEE8iterator6bucketEv
FN:210,_ZNK7emilib27HashMapIii13range4_hasherSt8equal_toIiEE8iterator6bucketEv
FNDA:0,_ZNK7emilib27HashMapIii13range4_hasherSt8equal_toIiEE8iterator6bucketEv
FN:210,_ZNK7emilib27HashMapIii13linear_hasherSt8equal_toIiEE8iterator6bucketEv
FNDA:0,_ZNK7emilib27HashMapIii13linear_hasherSt8equal_toIiEE8iterator6bucketEv
FN:212,_ZN7emilib27HashMapIii12const_hasherSt8equal_toIiEE8iteratorppEv
FNDA:0,_ZN7emilib27HashMapIii12const_hasherSt8equal_toIiEE8iteratorppEv
FN:212,_ZN7emilib27HashMapIii13range4_hasherSt8equal_toIiEE8iteratorppEv
FNDA:0,_ZN7emilib27HashMapIii13range4_hasherSt8equal_toIiEE8iteratorppEv
FN:212,_ZN7emilib27HashMapIii13linear_hasherSt8equal_toIiEE8iteratorppEv
FNDA:0,_ZN7emilib27HashMapIii13linear_hasherSt8equal_toIiEE8iteratorppEv
FN:232,_ZNK7emilib27HashMapIii12const_hasherSt8equal_toIiEE8iteratorptEv
FNDA:48850,_ZNK7emilib27HashMapIii12const_hasherSt8equal_toIiEE8iteratorptEv
FN:234,_ZNK7emilib27HashMapIii12const_hasherSt8equal_toIiEE8iteratoreqERKS5_
FNDA:54400,_ZNK7emilib27HashMapIii12const_hasherSt8equal_toIiEE8iteratoreqERKS5_
FN:235,_ZNK7emilib27HashMapIii13range4_hasherSt8equal_toIiEE8iteratorneERKS5_
FNDA:111000,_ZNK7emilib27HashMapIii13range4_hasherSt8equal_toIiEE8iteratorneERKS5_
FN:235,_ZNK7emilib27HashMapIii12const_hasherSt8equal_toIiEE8iteratorneERKS5_
FNDA:122100,_ZNK7emilib27HashMapIii12const_hasherSt8equal_toIiEE8iteratorneERKS5_
FN:235,_ZNK7emilib27HashMapIii13linear_hasherSt8equal_toIiEE8iteratorneERKS5_
FNDA:111000,_ZNK7emilib27HashMapIii13linear_hasherSt8equal_toIiEE8iteratorneERKS5_
FN:240,_ZN7emilib27HashMapIii12const_hasherSt8equal_toIiEE8iterator17goto_next_elementEv
FNDA:0,_ZN7emilib27HashMapIii12const_hasherSt8equal_toIiEE8iterator17goto_next_elementEv
FN:240,_ZN7emilib27HashMapIii13range4_hasherSt8equal_toIiEE8iterator17goto_next_elementEv
FNDA:0,_ZN7emilib27HashMapIii13range4_hasherSt8equal_toIiEE8iterator17goto_next_elementEv
FN:240,_ZN7emilib27HashMapIii13linear_hasherSt8equal_toIiEE8iterator17goto_next_elementEv
FNDA:0,_ZN7emilib27HashMapIii13linear_hasherSt8equal_toIiEE8iterator17goto_next_elementEv
FN:331,_ZN7emilib27HashMapIii13linear_hasherSt8equal_toIiEEC2Ejf
FNDA:12,_ZN7emilib27HashMapIii13linear_hasherSt8equal_toIiEEC2Ejf
FN:331,_ZN7emilib27HashMapIii13range4_hasherSt8equal_toIiEEC2Ejf
FNDA:12,_ZN7emilib27HashMapIii13range4_hasherSt8equal_toIiEEC2Ejf
FN:331,_ZN7emilib27HashMapIii12const_hasherSt8equal_toIiEEC2Ejf
FNDA:23,_ZN7emilib27HashMapIii12const_hasherSt8equal_toIiEEC2Ejf
FN:374,_ZN7emilib27HashMapIii13linear_hasherSt8equal_toIiEED2Ev
FNDA:12,_ZN7emilib27HashMapIii13linear_hasherSt8equal_toIiEED2Ev
FN:374,_ZN7emilib27HashMapIii13range4_hasherSt8equal_toIiEED2Ev
FNDA:12,_ZN7emilib27HashMapIii13range4_hasherSt8equal_toIiEED2Ev
FN:374,_ZN7emilib27HashMapIii12const_hasherSt8equal_toIiEED2Ev
FNDA:23,_ZN7emilib27HashMapIii12const_hasherSt8equal_toIiEED2Ev
FN:431,_ZN7emilib27HashMapIii12const_hasherSt8equal_toIiEE5beginEv
FNDA:0,_ZN7emilib27HashMapIii12const_hasherSt8equal_toIiEE5beginEv
FN:431,_ZN7emilib27HashMapIii13linear_hasherSt8equal_toIiEE5beginEv
FNDA:0,_ZN7emilib27HashMapIii13linear_hasherSt8equal_toIiEE5beginEv
FN:431,_ZN7emilib27HashMapIii13range4_hasherSt8equal_toIiEE5beginEv
FNDA:0,_ZN7emilib27HashMapIii13range4_hasherSt8equal_toIiEE5beginEv
FN:437,_ZN7emilib27HashMapIii13linear_hasherSt8equal_toIiEE3endEv
FNDA:111000,_ZN7emilib27HashMapIii13linear_hasherSt8equal_toIiEE3endEv
FN:437,_ZN7emilib27HashMapIii13range4_hasherSt8equal_toIiEE3endEv
FNDA:111000,_ZN7emilib27HashMapIii13range4_hasherSt8equal_toIiEE3endEv
FN:437,_ZN7emilib27HashMapIii12const_hasherSt8equal_toIiEE3endEv
FNDA:176500,_ZN7emilib27HashMapIii12const_hasherSt8equal_toIiEE3endEv
FN:443,_ZNK7emilib27HashMapIii12const_hasherSt8equal_toIiEE4sizeEv
FNDA:4,_ZNK7emilib27HashMapIii12const_hasherSt8equal_toIiEE4sizeEv
FN:448,_ZNK7emilib27HashMapIii12const_hasherSt8equal_toIiEE12bucket_countEv
FNDA:4,_ZNK7emilib27HashMapIii12const_hasherSt8equal_toIiEE12bucket_countEv
FN:448,_ZNK7emilib27HashMapIii13range4_hasherSt8equal_toIiEE12bucket_countEv
FNDA:3,_ZNK7emilib27HashMapIii13range4_hasherSt8equal_toIiEE12bucket_countEv
FN:448,_ZNK7emilib27HashMapIii13linear_hasherSt8equal_toIiEE12bucket_countEv
FNDA:3,_ZNK7emilib27HashMapIii13linear_hasherSt8equal_toIiEE12bucket_countEv
FN:451,_ZNK7emilib27HashMapIii13range4_hasherSt8equal_toIiEE11load_factorEv
FNDA:3,_ZNK7emilib27HashMapIii13range4_hasherSt8equal_toIiEE11load_factorEv
FN:451,_ZNK7emilib27HashMapIii12const_hasherSt8equal_toIiEE11load_factorEv
FNDA:4,_ZNK7emilib27HashMapIii12const_hasherSt8equal_toIiEE11load_factorEv
FN:451,_ZNK7emilib27HashMapIii13linear_hasherSt8equal_toIiEE11load_factorEv
FNDA:3,_ZNK7emilib27HashMapIii13linear_hasherSt8equal_toIiEE11load_factorEv
FN:460,_ZNK7emilib27HashMapIii13linear_hasherSt8equal_toIiEE8max_sizeEv
FNDA:92,_ZNK7emilib27HashMapIii13linear_hasherSt8equal_toIiEE8max_sizeEv
FN:460,_ZNK7emilib27HashMapIii13range4_hasherSt8equal_toIiEE8max_sizeEv
FNDA:92,_ZNK7emilib27HashMapIii13range4_hasherSt8equal_toIiEE8max_sizeEv
FN:460,_ZNK7emilib27HashMapIii12const_hasherSt8equal_toIiEE8max_sizeEv
FNDA:177,_ZNK7emilib27HashMapIii12const_hasherSt8equal_toIiEE8max_sizeEv
FN:465,_ZN7emilib27HashMapIii12const_hasherSt8equal_toIiEE4findIiEENS4_8iteratorERKT_
FNDA:168689,_ZN7emilib27HashMapIii12const_hasherSt8equal_toIiEE4findIiEENS4_8iteratorERKT_
FN:465,_ZN7emilib27HashMapIii13linear_hasherSt8equal_toIiEE4findIiEENS4_8iteratorERKT_
FNDA:114289,_ZN7emilib27HashMapIii13linear_hasherSt8equal_toIiEE4findIiEENS4_8iteratorERKT_
FN:465,_ZN7emilib27HashMapIii13range4_hasherSt8equal_toIiEE4findIiEENS4_8iteratorERKT_
FNDA:114289,_ZN7emilib27HashMapIii13range4_hasherSt8equal_toIiEE4findIiEENS4_8iteratorERKT_
FN:673,_ZN7emilib27HashMapIii13linear_hasherSt8equal_toIiEEixERKi
FNDA:50032,_ZN7emilib27HashMapIii13linear_hasherSt8equal_toIiEEixERKi
FN:673,_ZN7emilib27HashMapIii13range4_hasherSt8equal_toIiEEixERKi
FNDA:50032,_ZN7emilib27HashMapIii13range4_hasherSt8equal_toIiEEixERKi
FN:673,_ZN7emilib27HashMapIii12const_hasherSt8equal_toIiEEixERKi
FNDA:134982,_ZN7emilib27HashMapIii12const_hasherSt8equal_toIiEEixERKi
FN:700,_ZN7emilib27HashMapIii13linear_hasherSt8equal_toIiEE5eraseERKi
FNDA:13279,_ZN7emilib27HashMapIii13linear_hasherSt8equal_toIiEE5eraseERKi
FN:700,_ZN7emilib27HashMapIii13range4_hasherSt8equal_toIiEE5eraseERKi
FNDA:13279,_ZN7emilib27HashMapIii13range4_hasherSt8equal_toIiEE5eraseERKi
FN:700,_ZN7emilib27HashMapIii12const_hasherSt8equal_toIiEE5eraseERKi
FNDA:23829,_ZN7emilib27HashMapIii12const_hasherSt8equal_toIiEE5eraseERKi
FN:713,_ZN7emilib27HashMapIii12const_hasherSt8equal_toIiEE6_eraseEj
FNDA:23659,_ZN7emilib27HashMapIii12const_hasherSt8equal_toIiEE6_eraseEj
FN:713,_ZN7emilib27HashMapIii13range4_hasherSt8equal_toIiEE6_eraseEj
FNDA:13109,_ZN7emilib27HashMapIii13range4_hasherSt8equal_toIiEE6_eraseEj
FN:713,_ZN7emilib27HashMapIii13linear_hasherSt8equal_toIiEE6_eraseEj
FNDA:13109,_ZN7emilib27HashMapIii13linear_hasherSt8equal_toIiEE6_eraseEj
FN:761,_ZN7emilib27HashMapIii13linear_hasherSt8equal_toIiEE18need_explicit_dtorEv
FNDA:75457,_ZN7emilib27HashMapIii13linear_hasherSt8equal_toIiEE18need_explicit_dtorEv
FN:761,_ZN7emilib27HashMapIii13range4_hasherSt8equal_toIiEE18need_explicit_dtorEv
FNDA:75457,_ZN7emilib27HashMapIii13range4_hasherSt8equal_toIiEE18need_explicit_dtorEv
FN:761,_ZN7emilib27HashMapIii12const_hasherSt8equal_toIiEE18need_explicit_dtorEv
FNDA:161751,_ZN7emilib27HashMapIii12const_hasherSt8equal_toIiEE18need_explicit_dtorEv
FN:777,_ZN7emilib27HashMapIii12const_hasherSt8equal_toIiEE10clear_metaEv
FNDA:1,_ZN7emilib27HashMapIii12const_hasherSt8equal_toIiEE10clear_metaEv
FN:783,_ZN7emilib27HashMapIii13linear_hasherSt8equal_toIiEE10clear_dataEv
FNDA:12,_ZN7emilib27HashMapIii13linear_hasherSt8equal_toIiEE10clear_dataEv
FN:783,_ZN7emilib27HashMapIii12const_hasherSt8equal_toIiEE10clear_dataEv
FNDA:24,_ZN7emilib27HashMapIii12const_hasherSt8equal_toIiEE10clear_dataEv
FN:783,_ZN7emilib27HashMapIii13range4_hasherSt8equal_toIiEE10clear_dataEv
FNDA:12,_ZN7emilib27HashMapIii13range4_hasherSt8equal_toIiEE10clear_dataEv
FN:794,_ZN7emilib27HashMapIii12const_hasherSt8equal_toIiEE5clearEv
FNDA:1,_ZN7emilib27HashMapIii12const_hasherSt8equal_toIiEE5clearEv
FN:833,_ZN7emilib27HashMapIii13linear_hasherSt8equal_toIiEE6rehashEm
FNDA:92,_ZN7emilib27HashMapIii13linear_hasherSt8equal_toIiEE6rehashEm
FN:833,_ZN7emilib27HashMapIii12const_hasherSt8equal_toIiEE6rehashEm
FNDA:177,_ZN7emilib27HashMapIii12const_hasherSt8equal_toIiEE6rehashEm
FN:833,_ZN7emilib27HashMapIii13range4_hasherSt8equal_toIiEE6rehashEm
FNDA:92,_ZN7emilib27HashMapIii13range4_hasherSt8equal_toIiEE6rehashEm
FN:908,_ZN7emilib27HashMapIii13linear_hasherSt8equal_toIiEE19prefetch_heap_blockEPc
FNDA:239426,_ZN7emilib27HashMapIii13linear_hasherSt8equal_toIiEE19prefetch_heap_blockEPc
FN:908,_ZN7emilib27HashMapIii12const_hasherSt8equal_toIiEE19prefetch_heap_blockEPc
FNDA:71802008,_ZN7emilib27HashMapIii12const_hasherSt8equal_toIiEE19prefetch_heap_blockEPc
FN:908,_ZN7emilib27HashMapIii13range4_hasherSt8equal_toIiEE19prefetch_heap_blockEPc
FNDA:37411884,_ZN7emilib27HashMapIii13range4_hasherSt8equal_toIiEE19prefetch_heap_blockEPc
FN:920,_ZNK7emilib27HashMapIii13range4_hasherSt8equal_toIiEE10get_offsetEj
FNDA:17926705,_ZNK7emilib27HashMapIii13range4_hasherSt8equal_toIiEE10get_offsetEj
FN:920,_ZNK7emilib27HashMapIii12const_hasherSt8equal_toIiEE10get_offsetEj
FNDA:63889079,_ZNK7emilib27HashMapIii12const_hasherSt8equal_toIiEE10get_offsetEj
FN:920,_ZNK7emilib27HashMapIii13linear_hasherSt8equal_toIiEE10get_offsetEj
FNDA:63119,_ZNK7emilib27HashMapIii13linear_hasherSt8equal_toIiEE10get_offsetEj
FN:928,_ZN7emilib27HashMapIii13range4_hasherSt8equal_toIiEE10set_offsetEjj
FNDA:3216,_ZN7emilib27HashMapIii13range4_hasherSt8equal_toIiEE10set_offsetEjj
FN:928,_ZN7emilib27HashMapIii13linear_hasherSt8equal_toIiEE10set_offsetEjj
FNDA:0,_ZN7emilib27HashMapIii13linear_hasherSt8equal_toIiEE10set_offsetEjj
FN:928,_ZN7emilib27HashMapIii12const_hasherSt8equal_toIiEE10set_offsetEjj
FNDA:7695,_ZN7emilib27HashMapIii12const_hasherSt8equal_toIiEE10set_offsetEjj
FN:937,_ZN7emilib27HashMapIii13linear_hasherSt8equal_toIiEE10set_statesEja
FNDA:120217,_ZN7emilib27HashMapIii13linear_hasherSt8equal_toIiEE10set_statesEja
FN:937,_ZN7emilib27HashMapIii13range4_hasherSt8equal_toIiEE10set_statesEja
FNDA:120217,_ZN7emilib27HashMapIii13range4_hasherSt8equal_toIiEE10set_statesEja
FN:937,_ZN7emilib27HashMapIii12const_hasherSt8equal_toIiEE10set_statesEja
FNDA:270264,_ZN7emilib27HashMapIii12const_hasherSt8equal_toIiEE10set_statesEja
FN:939,_ZNK7emilib27HashMapIii13linear_hasherSt8equal_toIiEE15get_next_bucketEjj
FNDA:461,_ZNK7emilib27HashMapIii13linear_hasherSt8equal_toIiEE15get_next_bucketEjj
FN:939,_ZNK7emilib27HashMapIii13range4_hasherSt8equal_toIiEE15get_next_bucketEjj
FNDA:65231549,_ZNK7emilib27HashMapIii13range4_hasherSt8equal_toIiEE15get_next_bucketEjj
FN:939,_ZNK7emilib27HashMapIii12const_hasherSt8equal_toIiEE15get_next_bucketEjj
FNDA:159702841,_ZNK7emilib27HashMapIii12const_hasherSt8equal_toIiEE15get_next_bucketEjj
FN:962,_ZNK7emilib27HashMapIii12const_hasherSt8equal_toIiEE18find_filled_bucketIiEEjRKT_
FNDA:192518,_ZNK7emilib27HashMapIii12const_hasherSt8equal_toIiEE18find_filled_bucketIiEEjRKT_
FN:962,_ZNK7emilib27HashMapIii13range4_hasherSt8equal_toIiEE18find_filled_bucketIiEEjRKT_
FNDA:127568,_ZNK7emilib27HashMapIii13range4_hasherSt8equal_toIiEE18find_filled_bucketIiEEjRKT_
FN:962,_ZNK7emilib27HashMapIii13linear_hasherSt8equal_toIiEE18find_filled_bucketIiEEjRKT_
FNDA:127568,_ZNK7emilib27HashMapIii13linear_hasherSt8equal_toIiEE18find_filled_bucketIiEEjRKT_
FN:1015,_ZN7emilib27HashMapIii12const_hasherSt8equal_toIiEE16find_or_allocateIiEEjRKT_Rb
FNDA:134982,_ZN7emilib27HashMapIii12const_hasherSt8equal_toIiEE16find_or_allocateIiEEjRKT_Rb
FN:1015,_ZN7emilib27HashMapIii13range4_hasherSt8equal_toIiEE16find_or_allocateIiEEjRKT_Rb
FNDA:50032,_ZN7emilib27HashMapIii13range4_hasherSt8equal_toIiEE16find_or_allocateIiEEjRKT_Rb
FN:1015,_ZN7emilib27HashMapIii13linear_hasherSt8equal_toIiEE16find_or_allocateIiEEjRKT_Rb
FNDA:50032,_ZN7emilib27HashMapIii13linear_hasherSt8equal_toIiEE16find_or_allocateIiEEjRKT_Rb
FN:1069,_ZNK7emilib27HashMapIii13range4_hasherSt8equal_toIiEE12empty_deleteEj
FNDA:7992428,_ZNK7emilib27HashMapIii13range4_hasherSt8equal_toIiEE12empty_deleteEj
FN:1069,_ZNK7emilib27HashMapIii13linear_hasherSt8equal_toIiEE12empty_deleteEj
FNDA:62244,_ZNK7emilib27HashMapIii13linear_hasherSt8equal_toIiEE12empty_deleteEj
FN:1069,_ZNK7emilib27HashMapIii12const_hasherSt8equal_toIiEE12empty_deleteEj
FNDA:22211126,_ZNK7emilib27HashMapIii12const_hasherSt8equal_toIiEE12empty_deleteEj
FN:1079,_ZNK7emilib27HashMapIii13range4_hasherSt8equal_toIiEE11filled_maskEj
FNDA:0,_ZNK7emilib27HashMapIii13range4_hasherSt8equal_toIiEE11filled_maskEj
FN:1079,_ZNK7emilib27HashMapIii12const_hasherSt8equal_toIiEE11filled_maskEj
FNDA:0,_ZNK7emilib27HashMapIii12const_hasherSt8equal_toIiEE11filled_maskEj
FN:1079,_ZNK7emilib27HashMapIii13linear_hasherSt8equal_toIiEE11filled_maskEj
FNDA:0,_ZNK7emilib27HashMapIii13linear_hasherSt8equal_toIiEE11filled_maskEj
FN:1089,_ZN7emilib27HashMapIii12const_hasherSt8equal_toIiEE15find_empty_slotEjjj
FNDA:140212,_ZN7emilib27HashMapIii12const_hasherSt8equal_toIiEE15find_empty_slotEjjj
FN:1089,_ZN7emilib27HashMapIii13range4_hasherSt8equal_toIiEE15find_empty_slotEjjj
FNDA:63220,_ZN7emilib27HashMapIii13range4_hasherSt8equal_toIiEE15find_empty_slotEjjj
FN:1089,_ZN7emilib27HashMapIii13linear_hasherSt8equal_toIiEE15find_empty_slotEjjj
FNDA:62244,_ZN7emilib27HashMapIii13linear_hasherSt8equal_toIiEE15find_empty_slotEjjj
FN:1105,_ZNK7emilib27HashMapIii12const_hasherSt8equal_toIiEE15find_first_slotEj
FNDA:0,_ZNK7emilib27HashMapIii12const_hasherSt8equal_toIiEE15find_first_slotEj
FN:1105,_ZNK7emilib27HashMapIii13range4_hasherSt8equal_toIiEE15find_first_slotEj
FNDA:0,_ZNK7emilib27HashMapIii13range4_hasherSt8equal_toIiEE15find_first_slotEj
FN:1105,_ZNK7emilib27HashMapIii13linear_hasherSt8equal_toIiEE15find_first_slotEj
FNDA:0,_ZNK7emilib27HashMapIii13linear_hasherSt8equal_toIiEE15find_first_slotEj
DA:130,2271180809
DA:135,2271180809
DA:138,2271180809
DA:170,239844
DA:171,239844
DA:172,239844
DA:173,239844
DA:170,239844
DA:171,239844
DA:172,239844
DA:173,239844
DA:170,465391
DA:171,465391
DA:172,465391
DA:173,465391
DA:191,225289
DA:192,225289
DA:193,225289
DA:194,225289
DA:191,225289
DA:192,225289
DA:193,225289
DA:194,225289
DA:191,345189
DA:192,345189
DA:193,345189
DA:194,345189
DA:197,0
DA:198,0
DA:199,0
DA:200,0
DA:201,0
DA:202,0
DA:204,0
DA:206,0
DA:197,0
DA:198,0
DA:199,0
DA:200,0
DA:201,0
DA:202,0
DA:204,0
DA:206,0
DA:197,0
DA:198,0
DA:199,0
DA:200,0
DA:201,0
DA:202,0
DA:204,0
DA:206,0
DA:210,0
DA:210,0
DA:210,0
DA:212,0
DA:214,0
DA:215,0
DA:217,0
DA:218,0
DA:212,0
DA:214,0
DA:215,0
DA:217,0
DA:218,0
DA:212,0
DA:214,0
DA:215,0
DA:217,0
DA:218,0
DA:232,48850
DA:234,54400
DA:235,111000
DA:235,111000
DA:235,122100
DA:240,0
DA:241,0
DA:242,0
DA:243,0
DA:244,0
DA:248,0
DA:249,0
DA:251,0
DA:240,0
DA:241,0
DA:242,0
DA:243,0
DA:244,0
DA:248,0
DA:249,0
DA:251,0
DA:240,0
DA:241,0
DA:242,0
DA:243,0
DA:244,0
DA:248,0
DA:249,0
DA:251,0
DA:331,12
DA:332,12
DA:333,12
DA:334,12
DA:331,12
DA:332,12
DA:333,12
DA:334,12
DA:331,23
DA:332,23
DA:333,23
DA:334,23
DA:374,12
DA:375,12
DA:376,12
DA:377,12
DA:378,0
DA:379,12
DA:380,12
DA:374,12
DA:375,12
DA:376,12
DA:377,12
DA:378,0
DA:379,12
DA:380,12
DA:374,23
DA:375,23
DA:376,23
DA:377,23
DA:378,0
DA:379,23
DA:380,23
DA:431,0
DA:431,0
DA:431,0
DA:437,111000
DA:437,111000
DA:437,176500
DA:443,4
DA:448,3
DA:448,3
DA:448,4
DA:451,3
DA:451,3
DA:451,4
DA:460,92
DA:460,92
DA:460,177
DA:465,114289
DA:465,114289
DA:465,168689
DA:673,50032
DA:674,50032
DA:675,50032
DA:677,50032
DA:678,44864
DA:679,44864
DA:682,50032
DA:673,50032
DA:674,50032
DA:675,50032
DA:677,50032
DA:678,44864
DA:679,44864
DA:682,50032
DA:673,134982
DA:674,134982
DA:675,134982
DA:677,134982
DA:678,108714
DA:679,108714
DA:682,134982
DA:700,13279
DA:701,13279
DA:702,13279
DA:703,170
DA:705,13109
DA:706,13109
DA:700,13279
DA:701,13279
DA:702,13279
DA:703,170
DA:705,13109
DA:706,13109
DA:700,23829
DA:701,23829
DA:702,23829
DA:703,170
DA:705,23659
DA:706,23659
DA:713,13109
DA:714,13109
DA:715,13109
DA:716,0
DA:721,13109
DA:740,13109
DA:713,13109
DA:714,13109
DA:715,13109
DA:716,0
DA:721,13109
DA:740,13109
DA:713,23659
DA:714,23659
DA:715,23659
DA:716,0
DA:721,23659
DA:740,23659
DA:761,75457
DA:763,75457
DA:761,75457
DA:763,75457
DA:761,161751
DA:763,161751
DA:777,1
DA:778,1
DA:779,1
DA:780,1
DA:781,1
DA:783,12
DA:784,12
DA:785,0
DA:786,0
DA:787,0
DA:788,0
DA:791,12
DA:783,12
DA:784,12
DA:785,0
DA:786,0
DA:787,0
DA:788,0
DA:791,12
DA:783,24
DA:784,24
DA:785,0
DA:786,0
DA:787,0
DA:788,0
DA:791,24
DA:794,1
DA:795,1
DA:796,1
DA:797,1
DA:799,1
DA:833,92
DA:834,92
DA:835,0
DA:842,92
DA:843,448
DA:844,356
DA:847,92
DA:848,92
DA:850,92
DA:851,0
DA:853,92
DA:854,92
DA:855,92
DA:856,92
DA:858,92
DA:859,92
DA:860,92
DA:862,92
DA:863,92
DA:864,92
DA:866,92
DA:867,92
DA:868,92
DA:869,92
DA:872,92
DA:874,92
DA:876,92
DA:880,92
DA:883,92
DA:884,0
DA:887,74140
DA:888,74048
DA:889,62244
DA:891,62244
DA:892,62244
DA:894,62244
DA:895,62244
DA:896,62244
DA:897,62244
DA:898,0
DA:901,92
DA:833,92
DA:834,92
DA:835,0
DA:842,92
DA:843,448
DA:844,356
DA:847,92
DA:848,92
DA:850,92
DA:851,0
DA:853,92
DA:854,92
DA:855,92
DA:856,92
DA:858,92
DA:859,92
DA:860,92
DA:862,92
DA:863,92
DA:864,92
DA:866,92
DA:867,92
DA:868,92
DA:869,92
DA:872,92
DA:874,92
DA:876,92
DA:880,92
DA:883,92
DA:884,0
DA:887,74140
DA:888,74048
DA:889,62244
DA:891,62244
DA:892,62244
DA:894,62244
DA:895,62244
DA:896,62244
DA:897,62244
DA:898,0
DA:901,92
DA:833,177
DA:834,177
DA:835,0
DA:842,177
DA:843,895
DA:844,718
DA:847,177
DA:848,177
DA:850,177
DA:851,0
DA:853,177
DA:854,177
DA:855,177
DA:856,177
DA:858,177
DA:859,177
DA:860,177
DA:862,177
DA:863,177
DA:864,177
DA:866,177
DA:867,177
DA:868,177
DA:869,177
DA:872,177
DA:874,177
DA:876,177
DA:880,177
DA:883,177
DA:884,0
DA:887,161489
DA:888,161312
DA:889,137891
DA:891,137891
DA:892,137891
DA:894,137891
DA:895,137891
DA:896,137891
DA:897,137891
DA:898,0
DA:901,177
DA:908,239426
DA:916,239426
DA:918,239426
DA:908,37411884
DA:916,37411884
DA:918,37411884
DA:908,71802008
DA:916,71802008
DA:918,71802008
DA:920,63119
DA:922,63119
DA:923,0
DA:925,63119
DA:920,17926705
DA:922,17926705
DA:923,17301707
DA:925,624998
DA:920,63889079
DA:922,63889079
DA:923,62672797
DA:925,1216282
DA:928,0
DA:930,0
DA:931,0
DA:935,0
DA:928,3216
DA:930,3216
DA:931,3216
DA:935,3216
DA:928,7695
DA:930,7695
DA:931,7695
DA:935,7695
DA:937,120217
DA:937,120217
DA:937,270264
DA:939,461
DA:941,461
DA:958,461
DA:939,65231549
DA:941,65231549
DA:958,65231549
DA:939,159702841
DA:941,159702841
DA:958,159702841
DA:962,127568
DA:964,127568
DA:967,127568
DA:969,127568
DA:970,127568
DA:973,255136
DA:974,127568
DA:975,127568
DA:976,127150
DA:978,127150
DA:979,127150
DA:980,127150
DA:981,0
DA:984,836
DA:985,418
DA:986,4
DA:987,414
DA:988,414
DA:992,0
DA:993,0
DA:994,0
DA:995,0
DA:996,0
DA:998,0
DA:999,0
DA:1000,0
DA:1001,0
DA:1008,0
DA:1010,0
DA:962,127568
DA:964,127568
DA:967,127568
DA:969,127568
DA:970,127568
DA:973,255136
DA:974,127568
DA:975,127568
DA:976,123440
DA:978,550881
DA:979,550881
DA:980,609
DA:981,550272
DA:984,253918
DA:985,126959
DA:986,0
DA:987,126959
DA:988,0
DA:992,39565815
DA:993,79131630
DA:994,39565815
DA:995,39565815
DA:996,37175192
DA:998,167998278
DA:999,167998278
DA:1000,126541
DA:1001,167871737
DA:1008,39439274
DA:1010,418
DA:962,192518
DA:964,192518
DA:967,192518
DA:969,192518
DA:970,192518
DA:973,385036
DA:974,192518
DA:975,192518
DA:976,188371
DA:978,2884239
DA:979,2884239
DA:980,770
DA:981,2883469
DA:984,383496
DA:985,191748
DA:986,0
DA:987,191748
DA:988,0
DA:992,74074808
DA:993,148149616
DA:994,74074808
DA:995,74074808
DA:996,71338443
DA:998,1047104507
DA:999,1047104507
DA:1000,185780
DA:1001,1046918727
DA:1008,73889028
DA:1010,5968
DA:1015,50032
DA:1016,50032
DA:1017,50032
DA:1018,80
DA:1021,50032
DA:1022,50032
DA:1023,50032
DA:1024,50032
DA:1025,50032
DA:1026,50032
DA:1029,100064
DA:1030,50032
DA:1033,50032
DA:1034,5168
DA:1035,5168
DA:1036,5168
DA:1037,5168
DA:1039,0
DA:1042,44864
DA:1044,89728
DA:1045,44864
DA:1046,44403
DA:1047,44403
DA:1048,44403
DA:1050,922
DA:1051,461
DA:1052,461
DA:1056,461
DA:1057,461
DA:1059,461
DA:1060,461
DA:1061,461
DA:1064,0
DA:1065,0
DA:1066,0
DA:1015,50032
DA:1016,50032
DA:1017,50032
DA:1018,80
DA:1021,50032
DA:1022,50032
DA:1023,50032
DA:1024,50032
DA:1025,50032
DA:1026,50032
DA:1029,35570236
DA:1030,17785118
DA:1033,96921620
DA:1034,79141670
DA:1035,79141670
DA:1036,5168
DA:1037,5168
DA:1039,79136502
DA:1042,17779950
DA:1044,32165280
DA:1045,16082640
DA:1046,43424
DA:1047,43424
DA:1048,43424
DA:1050,32078432
DA:1051,16039216
DA:1052,5062
DA:1056,17736526
DA:1057,17736526
DA:1059,1440
DA:1060,464
DA:1061,464
DA:1064,976
DA:1065,976
DA:1066,976
DA:1015,134982
DA:1016,134982
DA:1017,134982
DA:1018,154
DA:1021,134982
DA:1022,134982
DA:1023,134982
DA:1024,134982
DA:1025,134982
DA:1026,134982
DA:1029,127357548
DA:1030,63678774
DA:1033,1036551372
DA:1034,972898866
DA:1035,972898866
DA:1036,26268
DA:1037,26268
DA:1039,972872598
DA:1042,63652506
DA:1044,110791270
DA:1045,55395635
DA:1046,95387
DA:1047,95387
DA:1048,95387
DA:1050,110600496
DA:1051,55300248
DA:1052,15637
DA:1056,63557119
DA:1057,63557119
DA:1059,13327
DA:1060,11006
DA:1061,11006
DA:1064,2321
DA:1065,2321
DA:1066,2321
DA:1069,62244
DA:1074,62244
DA:1075,186732
DA:1069,7992428
DA:1074,7992428
DA:1075,23977284
DA:1069,22211126
DA:1074,22211126
DA:1075,66633378
DA:1079,0
DA:1084,0
DA:1085,0
DA:1079,0
DA:1084,0
DA:1085,0
DA:1079,0
DA:1084,0
DA:1085,0
DA:1089,62244
DA:1091,62244
DA:1092,62244
DA:1093,62244
DA:1094,62244
DA:1095,62244
DA:1096,0
DA:1097,62244
DA:1099,0
DA:1100,0
DA:1089,7992428
DA:1091,7992428
DA:1092,7992428
DA:1093,63220
DA:1094,63220
DA:1095,63220
DA:1096,3216
DA:1097,63220
DA:1099,7929208
DA:1100,7929208
DA:1089,22211126
DA:1091,22211126
DA:1092,22211126
DA:1093,140212
DA:1094,140212
DA:1095,140212
DA:1096,7695
DA:1097,140212
DA:1099,22070914
DA:1100,22070914
DA:1105,0
DA:1106,0
DA:1107,0
DA:1108,0
DA:1109,0
DA:1110,0
DA:1105,0
DA:1106,0
DA:1107,0
DA:1108,0
DA:1109,0
DA:1110,0
DA:1105,0
DA:1106,0
DA:1107,0
DA:1108,0
DA:1109,0
DA:1110,0
end_of_record
SF:/mnt/d/emhash/include/emhash/hash_table6.hpp
FN:132,_ZN7emhash6L3CTZEm
FNDA:344250,_ZN7emhash6L3CTZEm
FN:164,_ZN7emhash65entryIiiEC2EOiS2_j
FNDA:250555,_ZN7emhash65entryIiiEC2EOiS2_j
FN:174,_ZN7emhash65entryIiiEC2EOS1_
FNDA:0,_ZN7emhash65entryIiiEC2EOS1_
FN:179,_ZN7emhash65entryIiiEC2IRKiiEEOT_OT0_j
FNDA:198442,_ZN7emhash65entryIiiEC2IRKiiEEOT_OT0_j
FN:183,_ZN7emhash65entryIiiEaSEOS1_
FNDA:7373,_ZN7emhash65entryIiiEaSEOS1_
FN:284,_ZN7emhash67HashMapIii13range4_hasherSt8equal_toIiESaISt4pairIiiEEE8iteratorC2EPKS7_j
FNDA:225289,_ZN7emhash67HashMapIii13range4_hasherSt8equal_toIiESaISt4pairIiiEEE8iteratorC2EPKS7_j
FN:284,_ZN7emhash67HashMapIii12const_hasherSt8equal_toIiESaISt4pairIiiEEE8iteratorC2EPKS7_j
FNDA:345189,_ZN7emhash67HashMapIii12const_hasherSt8equal_toIiESaISt4pairIiiEEE8iteratorC2EPKS7_j
FN:284,_ZN7emhash67HashMapIii13linear_hasherSt8equal_toIiESaISt4pairIiiEEE8iteratorC2EPKS7_j
FNDA:225289,_ZN7emhash67HashMapIii13linear_hasherSt8equal_toIiESaISt4pairIiiEEE8iteratorC2EPKS7_j
FN:287,_ZN7emhash67HashMapIii13range4_hasherSt8equal_toIiESaISt4pairIiiEEE8iterator4initEv
FNDA:0,_ZN7emhash67HashMapIii13range4_hasherSt8equal_toIiESaISt4pairIiiEEE8iterator4initEv
FN:287,_ZN7emhash67HashMapIii13linear_hasherSt8equal_toIiESaISt4pairIiiEEE8iterator4initEv
FNDA:0,_ZN7emhash67HashMapIii13linear_hasherSt8equal_toIiESaISt4pairIiiEEE8iterator4initEv
FN:287,_ZN7emhash67HashMapIii12const_hasherSt8equal_toIiESaISt4pairIiiEEE8iterator4initEv
FNDA:0,_ZN7emhash67HashMapIii12const_hasherSt8equal_toIiESaISt4pairIiiEEE8iterator4initEv
FN:305,_ZN7emhash67HashMapIii13range4_hasherSt8equal_toIiESaISt4pairIiiEEE8iterator4nextEv
FNDA:0,_ZN7emhash67HashMapIii13range4_hasherSt8equal_toIiESaISt4pairIiiEEE8iterator4nextEv
FN:305,_ZN7emhash67HashMapIii13linear_hasherSt8equal_toIiESaISt4pairIiiEEE8iterator4nextEv
FNDA:0,_ZN7emhash67HashMapIii13linear_hasherSt8equal_toIiESaISt4pairIiiEEE8iterator4nextEv
FN:305,_ZN7emhash67HashMapIii12const_hasherSt8equal_toIiESaISt4pairIiiEEE8iterator4nextEv
FNDA:0,_ZN7emhash67HashMapIii12const_hasherSt8equal_toIiESaISt4pairIiiEEE8iterator4nextEv
FN:333,_ZNK7emhash67HashMapIii12const_hasherSt8equal_toIiESaISt4pairIiiEEE8iteratorptEv
FNDA:48850,_ZNK7emhash67HashMapIii12const_hasherSt8equal_toIiESaISt4pairIiiEEE8iteratorptEv
FN:335,_ZNK7emhash67HashMapIii12const_hasherSt8equal_toIiESaISt4pairIiiEEE8iteratoreqERKS8_
FNDA:54400,_ZNK7emhash67HashMapIii12const_hasherSt8equal_toIiESaISt4pairIiiEEE8iteratoreqERKS8_
FN:336,_ZNK7emhash67HashMapIii13linear_hasherSt8equal_toIiESaISt4pairIiiEEE8iteratorneERKS8_
FNDA:111000,_ZNK7emhash67HashMapIii13linear_hasherSt8equal_toIiESaISt4pairIiiEEE8iteratorneERKS8_
FN:336,_ZNK7emhash67HashMapIii13range4_hasherSt8equal_toIiESaISt4pairIiiEEE8iteratorneERKS8_
FNDA:111000,_ZNK7emhash67HashMapIii13range4_hasherSt8equal_toIiESaISt4pairIiiEEE8iteratorneERKS8_
FN:336,_ZNK7emhash67HashMapIii12const_hasherSt8equal_toIiESaISt4pairIiiEEE8iteratorneERKS8_
FNDA:122100,_ZNK7emhash67HashMapIii12const_hasherSt8equal_toIiESaISt4pairIiiEEE8iteratorneERKS8_
FN:341,_ZN7emhash67HashMapIii13linear_hasherSt8equal_toIiESaISt4pairIiiEEE8iterator17goto_next_elementEv
FNDA:0,_ZN7emhash67HashMapIii13linear_hasherSt8equal_toIiESaISt4pairIiiEEE8iterator17goto_next_elementEv
FN:341,_ZN7emhash67HashMapIii12const_hasherSt8equal_toIiESaISt4pairIiiEEE8iterator17goto_next_elementEv
FNDA:0,_ZN7emhash67HashMapIii12const_hasherSt8equal_toIiESaISt4pairIiiEEE8iterator17goto_next_elementEv
FN:341,_ZN7emhash67HashMapIii13range4_hasherSt8equal_toIiESaISt4pairIiiEEE8iterator17goto_next_elementEv
FNDA:0,_ZN7emhash67HashMapIii13range4_hasherSt8equal_toIiESaISt4pairIiiEEE8iterator17goto_next_elementEv
FN:371,_ZN7emhash67HashMapIii13linear_hasherSt8equal_toIiESaISt4pairIiiEEE14const_iteratorC2ERKNS7_8iteratorE
FNDA:0,_ZN7emhash67HashMapIii13linear_hasherSt8equal_toIiESaISt4pairIiiEEE14const_iteratorC2ERKNS7_8iteratorE
FN:371,_ZN7emhash67HashMapIii12const_hasherSt8equal_toIiESaISt4pairIiiEEE14const_iteratorC2ERKNS7_8iteratorE
FNDA:0,_ZN7emhash67HashMapIii12const_hasherSt8equal_toIiESaISt4pairIiiEEE14const_iteratorC2ERKNS7_8iteratorE
FN:371,_ZN7emhash67HashMapIii13range4_hasherSt8equal_toIiESaISt4pairIiiEEE14const_iteratorC2ERKNS7_8iteratorE
FNDA:0,_ZN7emhash67HashMapIii13range4_hasherSt8equal_toIiESaISt4pairIiiEEE14const_iteratorC2ERKNS7_8iteratorE
FN:376,_ZN7emhash67HashMapIii13linear_hasherSt8equal_toIiESaISt4pairIiiEEE14const_iteratorC2EPKS7_j
FNDA:0,_ZN7emhash67HashMapIii13linear_hasherSt8equal_toIiESaISt4pairIiiEEE14const_iteratorC2EPKS7_j
FN:376,_ZN7emhash67HashMapIii12const_hasherSt8equal_toIiESaISt4pairIiiEEE14const_iteratorC2EPKS7_j
FNDA:0,_ZN7emhash67HashMapIii12const_hasherSt8equal_toIiESaISt4pairIiiEEE14const_iteratorC2EPKS7_j
FN:376,_ZN7emhash67HashMapIii13range4_hasherSt8equal_toIiESaISt4pairIiiEEE14const_iteratorC2EPKS7_j
FNDA:0,_ZN7emhash67HashMapIii13range4_hasherSt8equal_toIiESaISt4pairIiiEEE14const_iteratorC2EPKS7_j
FN:381,_ZN7emhash67HashMapIii12const_hasherSt8equal_toIiESaISt4pairIiiEEE14const_iterator4initEv
FNDA:0,_ZN7emhash67HashMapIii12const_hasherSt8equal_toIiESaISt4pairIiiEEE14const_iterator4initEv
FN:381,_ZN7emhash67HashMapIii13linear_hasherSt8equal_toIiESaISt4pairIiiEEE14const_iterator4initEv
FNDA:0,_ZN7emhash67HashMapIii13linear_hasherSt8equal_toIiESaISt4pairIiiEEE14const_iterator4initEv
FN:381,_ZN7emhash67HashMapIii13range4_hasherSt8equal_toIiESaISt4pairIiiEEE14const_iterator4initEv
FNDA:0,_ZN7emhash67HashMapIii13range4_hasherSt8equal_toIiESaISt4pairIiiEEE14const_iterator4initEv
FN:392,_ZNK7emhash67HashMapIii12const_hasherSt8equal_toIiESaISt4pairIiiEEE14const_iterator6bucketEv
FNDA:0,_ZNK7emhash67HashMapIii12const_hasherSt8equal_toIiESaISt4pairIiiEEE14const_iterator6bucketEv
FN:394,_ZN7emhash67HashMapIii13range4_hasherSt8equal_toIiESaISt4pairIiiEEE14const_iteratorppEv
FNDA:0,_ZN7emhash67HashMapIii13range4_hasherSt8equal_toIiESaISt4pairIiiEEE14const_iteratorppEv
FN:394,_ZN7emhash67HashMapIii12const_hasherSt8equal_toIiESaISt4pairIiiEEE14const_iteratorppEv
FNDA:0,_ZN7emhash67HashMapIii12const_hasherSt8equal_toIiESaISt4pairIiiEEE14const_iteratorppEv
FN:394,_ZN7emhash67HashMapIii13linear_hasherSt8equal_toIiESaISt4pairIiiEEE14const_iteratorppEv
FNDA:0,_ZN7emhash67HashMapIii13linear_hasherSt8equal_toIiESaISt4pairIiiEEE14const_iteratorppEv
FN:415,_ZNK7emhash67HashMapIii13range4_hasherSt8equal_toIiESaISt4pairIiiEEE14const_iteratorptEv
FNDA:0,_ZNK7emhash67HashMapIii13range4_hasherSt8equal_toIiESaISt4pairIiiEEE14const_iteratorptEv
FN:415,_ZNK7emhash67HashMapIii12const_hasherSt8equal_toIiESaISt4pairIiiEEE14const_iteratorptEv
FNDA:0,_ZNK7emhash67HashMapIii12const_hasherSt8equal_toIiESaISt4pairIiiEEE14const_iteratorptEv
FN:415,_ZNK7emhash67HashMapIii13linear_hasherSt8equal_toIiESaISt4pairIiiEEE14const_iteratorptEv
FNDA:0,_ZNK7emhash67HashMapIii13linear_hasherSt8equal_toIiESaISt4pairIiiEEE14const_iteratorptEv
FN:421,_ZN7emhash67HashMapIii12const_hasherSt8equal_toIiESaISt4pairIiiEEE14const_iterator17goto_next_elementEv
FNDA:0,_ZN7emhash67HashMapIii12const_hasherSt8equal_toIiESaISt4pairIiiEEE14const_iterator17goto_next_elementEv
FN:421,_ZN7emhash67HashMapIii13linear_hasherSt8equal_toIiESaISt4pairIiiEEE14const_iterator17goto_next_elementEv
FNDA:0,_ZN7emhash67HashMapIii13linear_hasherSt8equal_toIiESaISt4pairIiiEEE14const_iterator17goto_next_elementEv
FN:421,_ZN7emhash67HashMapIii13range4_hasherSt8equal_toIiESaISt4pairIiiEEE14const_iterator17goto_next_elementEv
FNDA:0,_ZN7emhash67HashMapIii13range4_hasherSt8equal_toIiESaISt4pairIiiEEE14const_iterator17goto_next_elementEv
FN:443,_ZN7emhash67HashMapIii12const_hasherSt8equal_toIiESaISt4pairIiiEEE4initEjf
FNDA:23,_ZN7emhash67HashMapIii12const_hasherSt8equal_toIiESaISt4pairIiiEEE4initEjf
FN:443,_ZN7emhash67HashMapIii13range4_hasherSt8equal_toIiESaISt4pairIiiEEE4initEjf
FNDA:12,_ZN7emhash67HashMapIii13range4_hasherSt8equal_toIiESaISt4pairIiiEEE4initEjf
FN:443,_ZN7emhash67HashMapIii13linear_hasherSt8equal_toIiESaISt4pairIiiEEE4initEjf
FNDA:12,_ZN7emhash67HashMapIii13linear_hasherSt8equal_toIiESaISt4pairIiiEEE4initEjf
FN:456,_ZN7emhash67HashMapIii13range4_hasherSt8equal_toIiESaISt4pairIiiEEEC2Ejf
FNDA:12,_ZN7emhash67HashMapIii13range4_hasherSt8equal_toIiESaISt4pairIiiEEEC2Ejf
FN:456,_ZN7emhash67HashMapIii12const_hasherSt8equal_toIiESaISt4pairIiiEEEC2Ejf
FNDA:23,_ZN7emhash67HashMapIii12const_hasherSt8equal_toIiESaISt4pairIiiEEEC2Ejf
FN:456,_ZN7emhash67HashMapIii13linear_hasherSt8equal_toIiESaISt4pairIiiEEEC2Ejf
FNDA:12,_ZN7emhash67HashMapIii13linear_hasherSt8equal_toIiESaISt4pairIiiEEEC2Ejf
FN:550,_ZN7emhash67HashMapIii13range4_hasherSt8equal_toIiESaISt4pairIiiEEED2Ev
FNDA:12,_ZN7emhash67HashMapIii13range4_hasherSt8equal_toIiESaISt4pairIiiEEED2Ev
FN:550,_ZN7emhash67HashMapIii12const_hasherSt8equal_toIiESaISt4pairIiiEEED2Ev
FNDA:23,_ZN7emhash67HashMapIii12const_hasherSt8equal_toIiESaISt4pairIiiEEED2Ev
FN:550,_ZN7emhash67HashMapIii13linear_hasherSt8equal_toIiESaISt4pairIiiEEED2Ev
FNDA:12,_ZN7emhash67HashMapIii13linear_hasherSt8equal_toIiESaISt4pairIiiEEED2Ev
FN:622,_ZNK7emhash67HashMapIii13linear_hasherSt8equal_toIiESaISt4pairIiiEEE6cbeginEv
FNDA:0,_ZNK7emhash67HashMapIii13linear_hasherSt8equal_toIiESaISt4pairIiiEEE6cbeginEv
FN:622,_ZNK7emhash67HashMapIii12const_hasherSt8equal_toIiESaISt4pairIiiEEE6cbeginEv
FNDA:0,_ZNK7emhash67HashMapIii12const_hasherSt8equal_toIiESaISt4pairIiiEEE6cbeginEv
FN:622,_ZNK7emhash67HashMapIii13range4_hasherSt8equal_toIiESaISt4pairIiiEEE6cbeginEv
FNDA:0,_ZNK7emhash67HashMapIii13range4_hasherSt8equal_toIiESaISt4pairIiiEEE6cbeginEv
FN:651,_ZN7emhash67HashMapIii12const_hasherSt8equal_toIiESaISt4pairIiiEEE3endEv
FNDA:176500,_ZN7emhash67HashMapIii12const_hasherSt8equal_toIiESaISt4pairIiiEEE3endEv
FN:651,_ZN7emhash67HashMapIii13range4_hasherSt8equal_toIiESaISt4pairIiiEEE3endEv
FNDA:111000,_ZN7emhash67HashMapIii13range4_hasherSt8equal_toIiESaISt4pairIiiEEE3endEv
FN:651,_ZN7emhash67HashMapIii13linear_hasherSt8equal_toIiESaISt4pairIiiEEE3endEv
FNDA:111000,_ZN7emhash67HashMapIii13linear_hasherSt8equal_toIiESaISt4pairIiiEEE3endEv
FN:655,_ZNK7emhash67HashMapIii12const_hasherSt8equal_toIiESaISt4pairIiiEEE4sizeEv
FNDA:4,_ZNK7emhash67HashMapIii12const_hasherSt8equal_toIiESaISt4pairIiiEEE4sizeEv
FN:658,_ZNK7emhash67HashMapIii12const_hasherSt8equal_toIiESaISt4pairIiiEEE12bucket_countEv
FNDA:4,_ZNK7emhash67HashMapIii12const_hasherSt8equal_toIiESaISt4pairIiiEEE12bucket_countEv
FN:658,_ZNK7emhash67HashMapIii13linear_hasherSt8equal_toIiESaISt4pairIiiEEE12bucket_countEv
FNDA:3,_ZNK7emhash67HashMapIii13linear_hasherSt8equal_toIiESaISt4pairIiiEEE12bucket_countEv
FN:658,_ZNK7emhash67HashMapIii13range4_hasherSt8equal_toIiESaISt4pairIiiEEE12bucket_countEv
FNDA:3,_ZNK7emhash67HashMapIii13range4_hasherSt8equal_toIiESaISt4pairIiiEEE12bucket_countEv
FN:659,_ZNK7emhash67HashMapIii13range4_hasherSt8equal_toIiESaISt4pairIiiEEE11load_factorEv
FNDA:3,_ZNK7emhash67HashMapIii13range4_hasherSt8equal_toIiESaISt4pairIiiEEE11load_factorEv
FN:659,_ZNK7emhash67HashMapIii13linear_hasherSt8equal_toIiESaISt4pairIiiEEE11load_factorEv
FNDA:3,_ZNK7emhash67HashMapIii13linear_hasherSt8equal_toIiESaISt4pairIiiEEE11load_factorEv
FN:659,_ZNK7emhash67HashMapIii12const_hasherSt8equal_toIiESaISt4pairIiiEEE11load_factorEv
FNDA:4,_ZNK7emhash67HashMapIii12const_hasherSt8equal_toIiESaISt4pairIiiEEE11load_factorEv
FN:665,_ZN7emhash67HashMapIii13range4_hasherSt8equal_toIiESaISt4pairIiiEEE15max_load_factorEf
FNDA:12,_ZN7emhash67HashMapIii13range4_hasherSt8equal_toIiESaISt4pairIiiEEE15max_load_factorEf
FN:665,_ZN7emhash67HashMapIii12const_hasherSt8equal_toIiESaISt4pairIiiEEE15max_load_factorEf
FNDA:23,_ZN7emhash67HashMapIii12const_hasherSt8equal_toIiESaISt4pairIiiEEE15max_load_factorEf
FN:665,_ZN7emhash67HashMapIii13linear_hasherSt8equal_toIiESaISt4pairIiiEEE15max_load_factorEf
FNDA:12,_ZN7emhash67HashMapIii13linear_hasherSt8equal_toIiESaISt4pairIiiEEE15max_load_factorEf
FN:671,_ZNK7emhash67HashMapIii13range4_hasherSt8equal_toIiESaISt4pairIiiEEE8max_sizeEv
FNDA:208,_ZNK7emhash67HashMapIii13range4_hasherSt8equal_toIiESaISt4pairIiiEEE8max_sizeEv
FN:671,_ZNK7emhash67HashMapIii12const_hasherSt8equal_toIiESaISt4pairIiiEEE8max_sizeEv
FNDA:398,_ZNK7emhash67HashMapIii12const_hasherSt8equal_toIiESaISt4pairIiiEEE8max_sizeEv
FN:671,_ZNK7emhash67HashMapIii13linear_hasherSt8equal_toIiESaISt4pairIiiEEE8max_sizeEv
FNDA:208,_ZNK7emhash67HashMapIii13linear_hasherSt8equal_toIiESaISt4pairIiiEEE8max_sizeEv
FN:804,_ZN7emhash67HashMapIii13linear_hasherSt8equal_toIiESaISt4pairIiiEEE4findIiEENS7_8iteratorERKT_
FNDA:114289,_ZN7emhash67HashMapIii13linear_hasherSt8equal_toIiESaISt4pairIiiEEE4findIiEENS7_8iteratorERKT_
FN:804,_ZN7emhash67HashMapIii12const_hasherSt8equal_toIiESaISt4pairIiiEEE4findIiEENS7_8iteratorERKT_
FNDA:168689,_ZN7emhash67HashMapIii12const_hasherSt8equal_toIiESaISt4pairIiiEEE4findIiEENS7_8iteratorERKT_
FN:804,_ZN7emhash67HashMapIii13range4_hasherSt8equal_toIiESaISt4pairIiiEEE4findIiEENS7_8iteratorERKT_
FNDA:114289,_ZN7emhash67HashMapIii13range4_hasherSt8equal_toIiESaISt4pairIiiEEE4findIiEENS7_8iteratorERKT_
FN:1016,_ZN7emhash67HashMapIii13range4_hasherSt8equal_toIiESaISt4pairIiiEEEixERKi
FNDA:50032,_ZN7emhash67HashMapIii13range4_hasherSt8equal_toIiESaISt4pairIiiEEEixERKi
FN:1016,_ZN7emhash67HashMapIii13linear_hasherSt8equal_toIiESaISt4pairIiiEEEixERKi
FNDA:50032,_ZN7emhash67HashMapIii13linear_hasherSt8equal_toIiESaISt4pairIiiEEEixERKi
FN:1016,_ZN7emhash67HashMapIii12const_hasherSt8equal_toIiESaISt4pairIiiEEEixERKi
FNDA:134982,_ZN7emhash67HashMapIii12const_hasherSt8equal_toIiESaISt4pairIiiEEEixERKi
FN:1043,_ZN7emhash67HashMapIii13linear_hasherSt8equal_toIiESaISt4pairIiiEEE5eraseIiEEjRKT_
FNDA:13279,_ZN7emhash67HashMapIii13linear_hasherSt8equal_toIiESaISt4pairIiiEEE5eraseIiEEjRKT_
FN:1043,_ZN7emhash67HashMapIii12const_hasherSt8equal_toIiESaISt4pairIiiEEE5eraseIiEEjRKT_
FNDA:23829,_ZN7emhash67HashMapIii12const_hasherSt8equal_toIiESaISt4pairIiiEEE5eraseIiEEjRKT_
FN:1043,_ZN7emhash67HashMapIii13range4_hasherSt8equal_toIiESaISt4pairIiiEEE5eraseIiEEjRKT_
FNDA:13279,_ZN7emhash67HashMapIii13range4_hasherSt8equal_toIiESaISt4pairIiiEEE5eraseIiEEjRKT_
FN:1089,_ZN7emhash67HashMapIii13range4_hasherSt8equal_toIiESaISt4pairIiiEEE18need_explicit_dtorEv
FNDA:72389,_ZN7emhash67HashMapIii13range4_hasherSt8equal_toIiESaISt4pairIiiEEE18need_explicit_dtorEv
FN:1089,_ZN7emhash67HashMapIii12const_hasherSt8equal_toIiESaISt4pairIiiEEE18need_explicit_dtorEv
FNDA:155702,_ZN7emhash67HashMapIii12const_hasherSt8equal_toIiESaISt4pairIiiEEE18need_explicit_dtorEv
FN:1089,_ZN7emhash67HashMapIii13linear_hasherSt8equal_toIiESaISt4pairIiiEEE18need_explicit_dtorEv
FNDA:72389,_ZN7emhash67HashMapIii13linear_hasherSt8equal_toIiESaISt4pairIiiEEE18need_explicit_dtorEv
FN:1105,_ZN7emhash67HashMapIii12const_hasherSt8equal_toIiESaISt4pairIiiEEE7clearkvEv
FNDA:0,_ZN7emhash67HashMapIii12const_hasherSt8equal_toIiESaISt4pairIiiEEE7clearkvEv
FN:1113,_ZN7emhash67HashMapIii12const_hasherSt8equal_toIiESaISt4pairIiiEEE5clearEv
FNDA:1,_ZN7emhash67HashMapIii12const_hasherSt8equal_toIiESaISt4pairIiiEEE5clearEv
FN:1135,_ZN7emhash67HashMapIii13range4_hasherSt8equal_toIiESaISt4pairIiiEEE7reserveEm
FNDA:50032,_ZN7emhash67HashMapIii13range4_hasherSt8equal_toIiESaISt4pairIiiEEE7reserveEm
FN:1135,_ZN7emhash67HashMapIii13linear_hasherSt8equal_toIiESaISt4pairIiiEEE7reserveEm
FNDA:50032,_ZN7emhash67HashMapIii13linear_hasherSt8equal_toIiESaISt4pairIiiEEE7reserveEm
FN:1135,_ZN7emhash67HashMapIii12const_hasherSt8equal_toIiESaISt4pairIiiEEE7reserveEm
FNDA:134982,_ZN7emhash67HashMapIii12const_hasherSt8equal_toIiESaISt4pairIiiEEE7reserveEm
FN:1148,_ZN7emhash67HashMapIii13range4_hasherSt8equal_toIiESaISt4pairIiiEEE6rehashEm
FNDA:104,_ZN7emhash67HashMapIii13range4_hasherSt8equal_toIiESaISt4pairIiiEEE6rehashEm
FN:1148,_ZN7emhash67HashMapIii13linear_hasherSt8equal_toIiESaISt4pairIiiEEE6rehashEm
FNDA:104,_ZN7emhash67HashMapIii13linear_hasherSt8equal_toIiESaISt4pairIiiEEE6rehashEm
FN:1148,_ZN7emhash67HashMapIii12const_hasherSt8equal_toIiESaISt4pairIiiEEE6rehashEm
FNDA:199,_ZN7emhash67HashMapIii12const_hasherSt8equal_toIiESaISt4pairIiiEEE6rehashEm
FN:1263,_ZN7emhash67HashMapIii13linear_hasherSt8equal_toIiESaISt4pairIiiEEE17check_expand_needEv
FNDA:50032,_ZN7emhash67HashMapIii13linear_hasherSt8equal_toIiESaISt4pairIiiEEE17check_expand_needEv
FN:1263,_ZN7emhash67HashMapIii13range4_hasherSt8equal_toIiESaISt4pairIiiEEE17check_expand_needEv
FNDA:50032,_ZN7emhash67HashMapIii13range4_hasherSt8equal_toIiESaISt4pairIiiEEE17check_expand_needEv
FN:1263,_ZN7emhash67HashMapIii12const_hasherSt8equal_toIiESaISt4pairIiiEEE17check_expand_needEv
FNDA:134982,_ZN7emhash67HashMapIii12const_hasherSt8equal_toIiESaISt4pairIiiEEE17check_expand_needEv
FN:1285,_ZN7emhash67HashMapIii13linear_hasherSt8equal_toIiESaISt4pairIiiEEE12clear_bucketEj
FNDA:13109,_ZN7emhash67HashMapIii13linear_hasherSt8equal_toIiESaISt4pairIiiEEE12clear_bucketEj
FN:1285,_ZN7emhash67HashMapIii13range4_hasherSt8equal_toIiESaISt4pairIiiEEE12clear_bucketEj
FNDA:13109,_ZN7emhash67HashMapIii13range4_hasherSt8equal_toIiESaISt4pairIiiEEE12clear_bucketEj
FN:1285,_ZN7emhash67HashMapIii12const_hasherSt8equal_toIiESaISt4pairIiiEEE12clear_bucketEj
FNDA:23659,_ZN7emhash67HashMapIii12const_hasherSt8equal_toIiESaISt4pairIiiEEE12clear_bucketEj
FN:1298,_ZN7emhash67HashMapIii13linear_hasherSt8equal_toIiESaISt4pairIiiEEE9erase_keyIiLj0EEEjRKT_
FNDA:13279,_ZN7emhash67HashMapIii13linear_hasherSt8equal_toIiESaISt4pairIiiEEE9erase_keyIiLj0EEEjRKT_
FN:1298,_ZN7emhash67HashMapIii13range4_hasherSt8equal_toIiESaISt4pairIiiEEE9erase_keyIiLj0EEEjRKT_
FNDA:13279,_ZN7emhash67HashMapIii13range4_hasherSt8equal_toIiESaISt4pairIiiEEE9erase_keyIiLj0EEEjRKT_
FN:1298,_ZN7emhash67HashMapIii12const_hasherSt8equal_toIiESaISt4pairIiiEEE9erase_keyIiLj0EEEjRKT_
FNDA:23829,_ZN7emhash67HashMapIii12const_hasherSt8equal_toIiESaISt4pairIiiEEE9erase_keyIiLj0EEEjRKT_
FN:1468,_ZN7emhash67HashMapIii13linear_hasherSt8equal_toIiESaISt4pairIiiEEE14kickout_bucketEj
FNDA:0,_ZN7emhash67HashMapIii13linear_hasherSt8equal_toIiESaISt4pairIiiEEE14kickout_bucketEj
FN:1468,_ZN7emhash67HashMapIii13range4_hasherSt8equal_toIiESaISt4pairIiiEEE14kickout_bucketEj
FNDA:0,_ZN7emhash67HashMapIii13range4_hasherSt8equal_toIiESaISt4pairIiiEEE14kickout_bucketEj
FN:1468,_ZN7emhash67HashMapIii12const_hasherSt8equal_toIiESaISt4pairIiiEEE14kickout_bucketEj
FNDA:0,_ZN7emhash67HashMapIii12const_hasherSt8equal_toIiESaISt4pairIiiEEE14kickout_bucketEj
FN:1493,_ZN7emhash67HashMapIii13range4_hasherSt8equal_toIiESaISt4pairIiiEEE16find_or_allocateIiEEjRKT_
FNDA:50032,_ZN7emhash67HashMapIii13range4_hasherSt8equal_toIiESaISt4pairIiiEEE16find_or_allocateIiEEjRKT_
FN:1493,_ZN7emhash67HashMapIii13linear_hasherSt8equal_toIiESaISt4pairIiiEEE16find_or_allocateIiEEjRKT_
FNDA:50032,_ZN7emhash67HashMapIii13linear_hasherSt8equal_toIiESaISt4pairIiiEEE16find_or_allocateIiEEjRKT_
FN:1493,_ZN7emhash67HashMapIii12const_hasherSt8equal_toIiESaISt4pairIiiEEE16find_or_allocateIiEEjRKT_
FNDA:134982,_ZN7emhash67HashMapIii12const_hasherSt8equal_toIiESaISt4pairIiiEEE16find_or_allocateIiEEjRKT_
FN:1585,_ZNK7emhash67HashMapIii13range4_hasherSt8equal_toIiESaISt4pairIiiEEE16find_last_bucketEj
FNDA:58556,_ZNK7emhash67HashMapIii13range4_hasherSt8equal_toIiESaISt4pairIiiEEE16find_last_bucketEj
FN:1585,_ZNK7emhash67HashMapIii13linear_hasherSt8equal_toIiESaISt4pairIiiEEE16find_last_bucketEj
FNDA:0,_ZNK7emhash67HashMapIii13linear_hasherSt8equal_toIiESaISt4pairIiiEEE16find_last_bucketEj
FN:1585,_ZNK7emhash67HashMapIii12const_hasherSt8equal_toIiESaISt4pairIiiEEE16find_last_bucketEj
FNDA:131667,_ZNK7emhash67HashMapIii12const_hasherSt8equal_toIiESaISt4pairIiiEEE16find_last_bucketEj
FN:1598,_ZNK7emhash67HashMapIii13linear_hasherSt8equal_toIiESaISt4pairIiiEEE16find_prev_bucketEjj
FNDA:0,_ZNK7emhash67HashMapIii13linear_hasherSt8equal_toIiESaISt4pairIiiEEE16find_prev_bucketEjj
FN:1598,_ZNK7emhash67HashMapIii12const_hasherSt8equal_toIiESaISt4pairIiiEEE16find_prev_bucketEjj
FNDA:0,_ZNK7emhash67HashMapIii12const_hasherSt8equal_toIiESaISt4pairIiiEEE16find_prev_bucketEjj
FN:1598,_ZNK7emhash67HashMapIii13range4_hasherSt8equal_toIiESaISt4pairIiiEEE16find_prev_bucketEjj
FNDA:0,_ZNK7emhash67HashMapIii13range4_hasherSt8equal_toIiESaISt4pairIiiEEE16find_prev_bucketEjj
FN:1708,_ZN7emhash67HashMapIii12const_hasherSt8equal_toIiESaISt4pairIiiEEE14AllocPairCountEm
FNDA:398,_ZN7emhash67HashMapIii12const_hasherSt8equal_toIiESaISt4pairIiiEEE14AllocPairCountEm
FN:1708,_ZN7emhash67HashMapIii13linear_hasherSt8equal_toIiESaISt4pairIiiEEE14AllocPairCountEm
FNDA:208,_ZN7emhash67HashMapIii13linear_hasherSt8equal_toIiESaISt4pairIiiEEE14AllocPairCountEm
FN:1708,_ZN7emhash67HashMapIii13range4_hasherSt8equal_toIiESaISt4pairIiiEEE14AllocPairCountEm
FNDA:208,_ZN7emhash67HashMapIii13range4_hasherSt8equal_toIiESaISt4pairIiiEEE14AllocPairCountEm
FN:1713,_ZN7emhash67HashMapIii13linear_hasherSt8equal_toIiESaISt4pairIiiEEE12alloc_bucketEm
FNDA:104,_ZN7emhash67HashMapIii13linear_hasherSt8equal_toIiESaISt4pairIiiEEE12alloc_bucketEm
FN:1713,_ZN7emhash67HashMapIii13range4_hasherSt8equal_toIiESaISt4pairIiiEEE12alloc_bucketEm
FNDA:104,_ZN7emhash67HashMapIii13range4_hasherSt8equal_toIiESaISt4pairIiiEEE12alloc_bucketEm
FN:1713,_ZN7emhash67HashMapIii12const_hasherSt8equal_toIiESaISt4pairIiiEEE12alloc_bucketEm
FNDA:199,_ZN7emhash67HashMapIii12const_hasherSt8equal_toIiESaISt4pairIiiEEE12alloc_bucketEm
FN:1723,_ZN7emhash67HashMapIii13linear_hasherSt8equal_toIiESaISt4pairIiiEEE14dealloc_bucketEPNS_5entryIiiEEm
FNDA:116,_ZN7emhash67HashMapIii13linear_hasherSt8equal_toIiESaISt4pairIiiEEE14dealloc_bucketEPNS_5entryIiiEEm
FN:1723,_ZN7emhash67HashMapIii13range4_hasherSt8equal_toIiESaISt4pairIiiEEE14dealloc_bucketEPNS_5entryIiiEEm
FNDA:116,_ZN7emhash67HashMapIii13range4_hasherSt8equal_toIiESaISt4pairIiiEEE14dealloc_bucketEPNS_5entryIiiEEm
FN:1723,_ZN7emhash67HashMapIii12const_hasherSt8equal_toIiESaISt4pairIiiEEE14dealloc_bucketEPNS_5entryIiiEEm
FNDA:222,_ZN7emhash67HashMapIii12const_hasherSt8equal_toIiESaISt4pairIiiEEE14dealloc_bucketEPNS_5entryIiiEEm
DA:132,344250
DA:152,344250
DA:157,344250
DA:164,250555
DA:165,250555
DA:166,250555
DA:174,0
DA:175,0
DA:176,0
DA:179,198442
DA:180,198442
DA:181,198442
DA:183,7373
DA:184,7373
DA:185,7373
DA:186,7373
DA:187,7373
DA:284,225289
DA:284,225289
DA:284,345189
DA:287,0
DA:288,0
DA:289,0
DA:290,0
DA:291,0
DA:292,0
DA:294,0
DA:296,0
DA:287,0
DA:288,0
DA:289,0
DA:290,0
DA:291,0
DA:292,0
DA:294,0
DA:296,0
DA:287,0
DA:288,0
DA:289,0
DA:290,0
DA:291,0
DA:292,0
DA:294,0
DA:296,0
DA:305,0
DA:306,0
DA:307,0
DA:305,0
DA:306,0
DA:307,0
DA:305,0
DA:306,0
DA:307,0
DA:333,48850
DA:335,54400
DA:336,111000
DA:336,111000
DA:336,122100
DA:341,0
DA:342,0
DA:343,0
DA:344,0
DA:348,0
DA:349,0
DA:350,0
DA:352,0
DA:341,0
DA:342,0
DA:343,0
DA:344,0
DA:348,0
DA:349,0
DA:350,0
DA:352,0
DA:341,0
DA:342,0
DA:343,0
DA:344,0
DA:348,0
DA:349,0
DA:350,0
DA:352,0
DA:371,0
DA:371,0
DA:371,0
DA:376,0
DA:377,0
DA:378,0
DA:376,0
DA:377,0
DA:378,0
DA:376,0
DA:377,0
DA:378,0
DA:381,0
DA:382,0
DA:383,0
DA:384,0
DA:385,0
DA:386,0
DA:388,0
DA:390,0
DA:381,0
DA:382,0
DA:383,0
DA:384,0
DA:385,0
DA:386,0
DA:388,0
DA:390,0
DA:381,0
DA:382,0
DA:383,0
DA:384,0
DA:385,0
DA:386,0
DA:388,0
DA:390,0
DA:392,0
DA:394,0
DA:396,0
DA:397,0
DA:399,0
DA:400,0
DA:394,0
DA:396,0
DA:397,0
DA:399,0
DA:400,0
DA:394,0
DA:396,0
DA:397,0
DA:399,0
DA:400,0
DA:415,0
DA:415,0
DA:415,0
DA:421,0
DA:422,0
DA:423,0
DA:424,0
DA:425,0
DA:429,0
DA:430,0
DA:431,0
DA:433,0
DA:421,0
DA:422,0
DA:423,0
DA:424,0
DA:425,0
DA:429,0
DA:430,0
DA:431,0
DA:433,0
DA:421,0
DA:422,0
DA:423,0
DA:424,0
DA:425,0
DA:429,0
DA:430,0
DA:431,0
DA:433,0
DA:443,12
DA:447,12
DA:448,12
DA:449,12
DA:450,12
DA:451,12
DA:452,12
DA:453,12
DA:454,12
DA:443,12
DA:447,12
DA:448,12
DA:449,12
DA:450,12
DA:451,12
DA:452,12
DA:453,12
DA:454,12
DA:443,23
DA:447,23
DA:448,23
DA:449,23
DA:450,23
DA:451,23
DA:452,23
DA:453,23
DA:454,23
DA:456,12
DA:456,12
DA:456,23
DA:550,12
DA:551,12
DA:552,0
DA:553,0
DA:554,0
DA:557,12
DA:558,12
DA:559,12
DA:550,12
DA:551,12
DA:552,0
DA:553,0
DA:554,0
DA:557,12
DA:558,12
DA:559,12
DA:550,23
DA:551,23
DA:552,0
DA:553,0
DA:554,0
DA:557,23
DA:558,23
DA:559,23
DA:622,0
DA:629,0
DA:630,0
DA:631,0
DA:632,0
DA:634,0
DA:635,0
DA:636,0
DA:622,0
DA:629,0
DA:630,0
DA:631,0
DA:632,0
DA:634,0
DA:635,0
DA:636,0
DA:622,0
DA:629,0
DA:630,0
DA:631,0
DA:632,0
DA:634,0
DA:635,0
DA:636,0
DA:651,111000
DA:651,111000
DA:651,176500
DA:655,4
DA:658,3
DA:658,3
DA:658,4
DA:659,3
DA:659,3
DA:659,4
DA:665,12
DA:666,12
DA:667,12
DA:668,12
DA:665,12
DA:666,12
DA:667,12
DA:668,12
DA:665,23
DA:666,23
DA:667,23
DA:668,23
DA:671,208
DA:671,208
DA:671,398
DA:804,114289
DA:805,114289
DA:804,114289
DA:805,114289
DA:804,168689
DA:805,168689
DA:1016,50032
DA:1017,50032
DA:1018,50032
DA:1019,50032
DA:1021,50032
DA:1022,44864
DA:1026,50032
DA:1016,50032
DA:1017,50032
DA:1018,50032
DA:1019,50032
DA:1021,50032
DA:1022,44864
DA:1026,50032
DA:1016,134982
DA:1017,134982
DA:1018,134982
DA:1019,134982
DA:1021,134982
DA:1022,108714
DA:1026,134982
DA:1043,13279
DA:1044,13279
DA:1045,13279
DA:1046,170
DA:1048,13109
DA:1049,13109
DA:1043,13279
DA:1044,13279
DA:1045,13279
DA:1046,170
DA:1048,13109
DA:1049,13109
DA:1043,23829
DA:1044,23829
DA:1045,23829
DA:1046,170
DA:1048,23659
DA:1049,23659
DA:1089,72389
DA:1091,72389
DA:1089,72389
DA:1091,72389
DA:1089,155702
DA:1091,155702
DA:1105,0
DA:1106,0
DA:1107,0
DA:1108,0
DA:1109,0
DA:1110,0
DA:1113,1
DA:1114,1
DA:1115,0
DA:1116,1
DA:1117,1
DA:1118,1
DA:1125,1
DA:1130,1
DA:1135,50032
DA:1136,50032
DA:1137,50032
DA:1138,49940
DA:1143,92
DA:1144,92
DA:1135,50032
DA:1136,50032
DA:1137,50032
DA:1138,49940
DA:1143,92
DA:1144,92
DA:1135,134982
DA:1136,134982
DA:1137,134982
DA:1138,134806
DA:1143,176
DA:1144,176
DA:1148,104
DA:1149,104
DA:1150,0
DA:1151,104
DA:1152,552
DA:1153,448
DA:1161,104
DA:1162,0
DA:1165,104
DA:1167,104
DA:1168,104
DA:1169,104
DA:1171,104
DA:1173,104
DA:1174,104
DA:1175,104
DA:1176,0
DA:1177,0
DA:1180,104
DA:1181,104
DA:1182,104
DA:1190,104
DA:1198,104
DA:1201,104
DA:1202,104
DA:1203,104
DA:1204,104
DA:1205,0
DA:1213,74156
DA:1214,74144
DA:1215,14876
DA:1217,59268
DA:1218,59268
DA:1219,59268
DA:1224,59268
DA:1225,0
DA:1227,59268
DA:1228,92
DA:1230,0
DA:1231,0
DA:1232,0
DA:1257,104
DA:1258,104
DA:1148,104
DA:1149,104
DA:1150,0
DA:1151,104
DA:1152,552
DA:1153,448
DA:1161,104
DA:1162,0
DA:1165,104
DA:1167,104
DA:1168,104
DA:1169,104
DA:1171,104
DA:1173,104
DA:1174,104
DA:1175,104
DA:1176,0
DA:1177,0
DA:1180,104
DA:1181,104
DA:1182,104
DA:1190,104
DA:1198,104
DA:1201,104
DA:1202,104
DA:1203,104
DA:1204,104
DA:1205,0
DA:1213,74156
DA:1214,74144
DA:1215,14876
DA:1217,59268
DA:1218,59268
DA:1219,59268
DA:1224,59268
DA:1225,0
DA:1227,59268
DA:1228,92
DA:1230,0
DA:1231,0
DA:1232,0
DA:1257,104
DA:1258,104
DA:1148,199
DA:1149,199
DA:1150,0
DA:1151,199
DA:1152,1094
DA:1153,895
DA:1161,199
DA:1162,0
DA:1165,199
DA:1167,199
DA:1168,199
DA:1169,199
DA:1171,199
DA:1173,199
DA:1174,199
DA:1175,199
DA:1176,0
DA:1177,0
DA:1180,199
DA:1181,199
DA:1182,199
DA:1190,199
DA:1198,199
DA:1201,199
DA:1202,199
DA:1203,199
DA:1204,199
DA:1205,0
DA:1213,161511
DA:1214,161488
DA:1215,29469
DA:1217,132019
DA:1218,132019
DA:1219,132019
DA:1224,132019
DA:1225,0
DA:1227,132019
DA:1228,176
DA:1230,0
DA:1231,0
DA:1232,0
DA:1257,199
DA:1258,199
DA:1263,50032
DA:1270,50032
DA:1263,50032
DA:1270,50032
DA:1263,134982
DA:1270,134982
DA:1285,13109
DA:1286,13109
DA:1287,13109
DA:1288,13109
DA:1289,0
DA:1291,13109
DA:1295,13109
DA:1285,13109
DA:1286,13109
DA:1287,13109
DA:1288,13109
DA:1289,0
DA:1291,13109
DA:1295,13109
DA:1285,23659
DA:1286,23659
DA:1287,23659
DA:1288,23659
DA:1289,0
DA:1291,23659
DA:1295,23659
DA:1298,13279
DA:1299,13279
DA:1300,26558
DA:1301,13279
DA:1303,13279
DA:1304,13109
DA:1308,13109
DA:1310,170
DA:1311,170
DA:1312,0
DA:1313,0
DA:1314,0
DA:1315,0
DA:1316,0
DA:1317,0
DA:1320,0
DA:1321,0
DA:1322,0
DA:1323,0
DA:1324,0
DA:1325,0
DA:1326,0
DA:1327,0
DA:1330,0
DA:1331,0
DA:1332,0
DA:1333,0
DA:1336,0
DA:1298,13279
DA:1299,13279
DA:1300,26558
DA:1301,13279
DA:1303,13279
DA:1304,12
DA:1308,12
DA:1310,13267
DA:1311,0
DA:1312,13267
DA:1313,3691
DA:1314,3691
DA:1315,3691
DA:1316,3691
DA:1317,3691
DA:1320,9576
DA:1321,9576
DA:1322,6376293
DA:1323,6385869
DA:1324,6385869
DA:1325,9406
DA:1326,9406
DA:1327,9406
DA:1330,6376463
DA:1331,170
DA:1332,6376293
DA:1333,6376293
DA:1336,170
DA:1298,23829
DA:1299,23829
DA:1300,47658
DA:1301,23829
DA:1303,23829
DA:1304,3
DA:1308,3
DA:1310,23826
DA:1311,0
DA:1312,23826
DA:1313,3682
DA:1314,3682
DA:1315,3682
DA:1316,3682
DA:1317,3682
DA:1320,20144
DA:1321,20144
DA:1322,58478469
DA:1323,58498613
DA:1324,58498613
DA:1325,19974
DA:1326,19974
DA:1327,19974
DA:1330,58478639
DA:1331,170
DA:1332,58478469
DA:1333,58478469
DA:1336,170
DA:1411,397267
DA:1412,397267
DA:1413,397267
DA:1415,397267
DA:1416,248
DA:1417,397019
DA:1418,114209
DA:1419,282810
DA:1420,0
DA:1443,282810
DA:1444,888856398
DA:1445,889139208
DA:1446,276764
DA:1448,888862444
DA:1449,888862444
DA:1450,6046
DA:1451,888856398
DA:1461,794534
DA:1468,0
DA:1469,0
DA:1470,0
DA:1471,0
DA:1472,0
DA:1473,0
DA:1474,0
DA:1475,0
DA:1476,0
DA:1478,0
DA:1482,0
DA:1483,0
DA:1484,0
DA:1468,0
DA:1469,0
DA:1470,0
DA:1471,0
DA:1472,0
DA:1473,0
DA:1474,0
DA:1475,0
DA:1476,0
DA:1478,0
DA:1482,0
DA:1483,0
DA:1484,0
DA:1468,0
DA:1469,0
DA:1470,0
DA:1471,0
DA:1472,0
DA:1473,0
DA:1474,0
DA:1475,0
DA:1476,0
DA:1478,0
DA:1482,0
DA:1483,0
DA:1484,0
DA:1493,50032
DA:1494,100064
DA:1495,50032
DA:1502,50032
DA:1503,50032
DA:1507,0
DA:1508,0
DA:1509,0
DA:1510,0
DA:1513,0
DA:1515,0
DA:1516,0
DA:1521,0
DA:1525,0
DA:1526,0
DA:1527,0
DA:1528,0
DA:1533,0
DA:1534,0
DA:1493,50032
DA:1494,100064
DA:1495,50032
DA:1502,50032
DA:1503,54
DA:1507,49978
DA:1508,48
DA:1509,49930
DA:1510,0
DA:1513,49930
DA:1515,56675655
DA:1516,56725585
DA:1521,5162
DA:1525,56720423
DA:1526,56720423
DA:1527,44768
DA:1528,56675655
DA:1533,44768
DA:1534,44768
DA:1493,134982
DA:1494,269964
DA:1495,134982
DA:1502,134982
DA:1503,31
DA:1507,134951
DA:1508,23
DA:1509,134928
DA:1510,0
DA:1513,134928
DA:1515,654267766
DA:1516,654402694
DA:1521,26260
DA:1525,654376434
DA:1526,654376434
DA:1527,108668
DA:1528,654267766
DA:1533,108668
DA:1534,108668
DA:1551,344250
DA:1552,344250
DA:1554,344250
DA:1555,344250
DA:1557,344250
DA:1558,193116
DA:1560,151134
DA:1568,151134
DA:1569,1754
DA:1570,152888
DA:1571,152888
DA:1572,149638
DA:1574,3250
DA:1575,3250
DA:1576,3250
DA:1577,1496
DA:1578,1496
DA:1580,1754
DA:1585,0
DA:1586,0
DA:1587,0
DA:1588,0
DA:1590,0
DA:1591,0
DA:1592,0
DA:1593,0
DA:1594,0
DA:1585,58556
DA:1586,58556
DA:1587,58556
DA:1588,320
DA:1590,28868388
DA:1591,28926624
DA:1592,28926624
DA:1593,58236
DA:1594,28868388
DA:1585,131667
DA:1586,131667
DA:1587,131667
DA:1588,176
DA:1590,275355048
DA:1591,275486539
DA:1592,275486539
DA:1593,131491
DA:1594,275355048
DA:1598,0
DA:1599,0
DA:1600,0
DA:1601,0
DA:1603,0
DA:1604,0
DA:1605,0
DA:1606,0
DA:1607,0
DA:1598,0
DA:1599,0
DA:1600,0
DA:1601,0
DA:1603,0
DA:1604,0
DA:1605,0
DA:1606,0
DA:1607,0
DA:1598,0
DA:1599,0
DA:1600,0
DA:1601,0
DA:1603,0
DA:1604,0
DA:1605,0
DA:1606,0
DA:1607,0
DA:1612,501110
DA:1613,250555
DA:1614,250555
DA:1618,59812
DA:1622,190743
DA:1623,520
DA:1624,190223
DA:1625,0
DA:1627,190223
DA:1629,190223
DA:1672,0
DA:1683,933255
DA:1708,208
DA:1709,208
DA:1710,208
DA:1708,208
DA:1709,208
DA:1710,208
DA:1708,398
DA:1709,398
DA:1710,398
DA:1713,104
DA:1714,104
DA:1715,0
DA:1716,104
DA:1717,104
DA:1718,104
DA:1719,0
DA:1720,104
DA:1713,104
DA:1714,104
DA:1715,0
DA:1716,104
DA:1717,104
DA:1718,104
DA:1719,0
DA:1720,104
DA:1713,199
DA:1714,199
DA:1715,0
DA:1716,199
DA:1717,199
DA:1718,199
DA:1719,0
DA:1720,199
DA:1723,116
DA:1724,116
DA:1725,104
DA:1726,104
DA:1728,116
DA:1723,116
DA:1724,116
DA:1725,104
DA:1726,104
DA:1728,116
DA:1723,222
DA:1724,222
DA:1725,199
DA:1726,199
DA:1728,222
end_of_record
SF:/mnt/d/emhash/include/emilib/emihmap3.hpp
FN:122,_ZN7emilib3L3CTZEm
FNDA:1671618308,_ZN7emilib3L3CTZEm
FN:163,_ZNK7emilib37HashMapIii12const_hasherSt8equal_toIiEE9hash_key2IiLa0EEEaRjRKT_
FNDA:465391,_ZNK7emilib37HashMapIii12const_hasherSt8equal_toIiEE9hash_key2IiLa0EEEaRjRKT_
FN:163,_ZNK7emilib37HashMapIii13range4_hasherSt8equal_toIiEE9hash_key2IiLa0EEEaRjRKT_
FNDA:239844,_ZNK7emilib37HashMapIii13range4_hasherSt8equal_toIiEE9hash_key2IiLa0EEEaRjRKT_
FN:163,_ZNK7emilib37HashMapIii13linear_hasherSt8equal_toIiEE9hash_key2IiLa0EEEaRjRKT_
FNDA:239844,_ZNK7emilib37HashMapIii13linear_hasherSt8equal_toIiEE9hash_key2IiLa0EEEaRjRKT_
FN:188,_ZN7emilib37HashMapIii13linear_hasherSt8equal_toIiEE8iteratorC2EPKS4_j
FNDA:225289,_ZN7emilib37HashMapIii13linear_hasherSt8equal_toIiEE8iteratorC2EPKS4_j
FN:188,_ZN7emilib37HashMapIii12const_hasherSt8equal_toIiEE8iteratorC2EPKS4_j
FNDA:345189,_ZN7emilib37HashMapIii12const_hasherSt8equal_toIiEE8iteratorC2EPKS4_j
FN:188,_ZN7emilib37HashMapIii13range4_hasherSt8equal_toIiEE8iteratorC2EPKS4_j
FNDA:225289,_ZN7emilib37HashMapIii13range4_hasherSt8equal_toIiEE8iteratorC2EPKS4_j
FN:192,_ZN7emilib37HashMapIii13linear_hasherSt8equal_toIiEE8iterator4initEv
FNDA:0,_ZN7emilib37HashMapIii13linear_hasherSt8equal_toIiEE8iterator4initEv
FN:192,_ZN7emilib37HashMapIii12const_hasherSt8equal_toIiEE8iterator4initEv
FNDA:0,_ZN7emilib37HashMapIii12const_hasherSt8equal_toIiEE8iterator4initEv
FN:192,_ZN7emilib37HashMapIii13range4_hasherSt8equal_toIiEE8iterator4initEv
FNDA:0,_ZN7emilib37HashMapIii13range4_hasherSt8equal_toIiEE8iterator4initEv
FN:205,_ZNK7emilib37HashMapIii13range4_hasherSt8equal_toIiEE8iterator6bucketEv
FNDA:0,_ZNK7emilib37HashMapIii13range4_hasherSt8equal_toIiEE8iterator6bucketEv
FN:205,_ZNK7emilib37HashMapIii13linear_hasherSt8equal_toIiEE8iterator6bucketEv
FNDA:0,_ZNK7emilib37HashMapIii13linear_hasherSt8equal_toIiEE8iterator6bucketEv
FN:205,_ZNK7emilib37HashMapIii12const_hasherSt8equal_toIiEE8iterator6bucketEv
FNDA:0,_ZNK7emilib37HashMapIii12const_hasherSt8equal_toIiEE8iterator6bucketEv
FN:207,_ZN7emilib37HashMapIii13linear_hasherSt8equal_toIiEE8iteratorppEv
FNDA:0,_ZN7emilib37HashMapIii13linear_hasherSt8equal_toIiEE8iteratorppEv
FN:207,_ZN7emilib37HashMapIii13range4_hasherSt8equal_toIiEE8iteratorppEv
FNDA:0,_ZN7emilib37HashMapIii13range4_hasherSt8equal_toIiEE8iteratorppEv
FN:207,_ZN7emilib37HashMapIii12const_hasherSt8equal_toIiEE8iteratorppEv
FNDA:0,_ZN7emilib37HashMapIii12const_hasherSt8equal_toIiEE8iteratorppEv
FN:227,_ZNK7emilib37HashMapIii12const_hasherSt8equal_toIiEE8iteratorptEv
FNDA:48850,_ZNK7emilib37HashMapIii12const_hasherSt8equal_toIiEE8iteratorptEv
FN:229,_ZNK7emilib37HashMapIii12const_hasherSt8equal_toIiEE8iteratoreqERKS5_
FNDA:54400,_ZNK7emilib37HashMapIii12const_hasherSt8equal_toIiEE8iteratoreqERKS5_
FN:230,_ZNK7emilib37HashMapIii13linear_hasherSt8equal_toIiEE8iteratorneERKS5_
FNDA:111000,_ZNK7emilib37HashMapIii13linear_hasherSt8equal_toIiEE8iteratorneERKS5_
FN:230,_ZNK7emilib37HashMapIii12const_hasherSt8equal_toIiEE8iteratorneERKS5_
FNDA:122100,_ZNK7emilib37HashMapIii12const_hasherSt8equal_toIiEE8iteratorneERKS5_
FN:230,_ZNK7emilib37HashMapIii13range4_hasherSt8equal_toIiEE8iteratorneERKS5_
FNDA:111000,_ZNK7emilib37HashMapIii13range4_hasherSt8equal_toIiEE8iteratorneERKS5_
FN:235,_ZN7emilib37HashMapIii13linear_hasherSt8equal_toIiEE8iterator17goto_next_elementEv
FNDA:0,_ZN7emilib37HashMapIii13linear_hasherSt8equal_toIiEE8iterator17goto_next_elementEv
FN:235,_ZN7emilib37HashMapIii13range4_hasherSt8equal_toIiEE8iterator17goto_next_elementEv
FNDA:0,_ZN7emilib37HashMapIii13range4_hasherSt8equal_toIiEE8iterator17goto_next_elementEv
FN:235,_ZN7emilib37HashMapIii12const_hasherSt8equal_toIiEE8iterator17goto_next_elementEv
FNDA:0,_ZN7emilib37HashMapIii12const_hasherSt8equal_toIiEE8iterator17goto_next_elementEv
FN:325,_ZN7emilib37HashMapIii12const_hasherSt8equal_toIiEEC2Ejf
FNDA:23,_ZN7emilib37HashMapIii12const_hasherSt8equal_toIiEEC2Ejf
FN:325,_ZN7emilib37HashMapIii13range4_hasherSt8equal_toIiEEC2Ejf
FNDA:12,_ZN7emilib37HashMapIii13range4_hasherSt8equal_toIiEEC2Ejf
FN:325,_ZN7emilib37HashMapIii13linear_hasherSt8equal_toIiEEC2Ejf
FNDA:12,_ZN7emilib37HashMapIii13linear_hasherSt8equal_toIiEEC2Ejf
FN:368,_ZN7emilib37HashMapIii13linear_hasherSt8equal_toIiEED2Ev
FNDA:12,_ZN7emilib37HashMapIii13linear_hasherSt8equal_toIiEED2Ev
FN:368,_ZN7emilib37HashMapIii12const_hasherSt8equal_toIiEED2Ev
FNDA:23,_ZN7emilib37HashMapIii12const_hasherSt8equal_toIiEED2Ev
FN:368,_ZN7emilib37HashMapIii13range4_hasherSt8equal_toIiEED2Ev
FNDA:12,_ZN7emilib37HashMapIii13range4_hasherSt8equal_toIiEED2Ev
FN:416,_ZN7emilib37HashMapIii13range4_hasherSt8equal_toIiEE5beginEv
FNDA:0,_ZN7emilib37HashMapIii13range4_hasherSt8equal_toIiEE5beginEv
FN:416,_ZN7emilib37HashMapIii13linear_hasherSt8equal_toIiEE5beginEv
FNDA:0,_ZN7emilib37HashMapIii13linear_hasherSt8equal_toIiEE5beginEv
FN:416,_ZN7emilib37HashMapIii12const_hasherSt8equal_toIiEE5beginEv
FNDA:0,_ZN7emilib37HashMapIii12const_hasherSt8equal_toIiEE5beginEv
FN:422,_ZN7emilib37HashMapIii13range4_hasherSt8equal_toIiEE3endEv
FNDA:111000,_ZN7emilib37HashMapIii13range4_hasherSt8equal_toIiEE3endEv
FN:422,_ZN7emilib37HashMapIii12const_hasherSt8equal_toIiEE3endEv
FNDA:176500,_ZN7emilib37HashMapIii12const_hasherSt8equal_toIiEE3endEv
FN:422,_ZN7emilib37HashMapIii13linear_hasherSt8equal_toIiEE3endEv
FNDA:111000,_ZN7emilib37HashMapIii13linear_hasherSt8equal_toIiEE3endEv
FN:428,_ZNK7emilib37HashMapIii12const_hasherSt8equal_toIiEE4sizeEv
FNDA:4,_ZNK7emilib37HashMapIii12const_hasherSt8equal_toIiEE4sizeEv
FN:433,_ZNK7emilib37HashMapIii13range4_hasherSt8equal_toIiEE12bucket_countEv
FNDA:3,_ZNK7emilib37HashMapIii13range4_hasherSt8equal_toIiEE12bucket_countEv
FN:433,_ZNK7emilib37HashMapIii13linear_hasherSt8equal_toIiEE12bucket_countEv
FNDA:3,_ZNK7emilib37HashMapIii13linear_hasherSt8equal_toIiEE12bucket_countEv
FN:433,_ZNK7emilib37HashMapIii12const_hasherSt8equal_toIiEE12bucket_countEv
FNDA:4,_ZNK7emilib37HashMapIii12const_hasherSt8equal_toIiEE12bucket_countEv
FN:436,_ZNK7emilib37HashMapIii13linear_hasherSt8equal_toIiEE11load_factorEv
FNDA:3,_ZNK7emilib37HashMapIii13linear_hasherSt8equal_toIiEE11load_factorEv
FN:436,_ZNK7emilib37HashMapIii13range4_hasherSt8equal_toIiEE11load_factorEv
FNDA:3,_ZNK7emilib37HashMapIii13range4_hasherSt8equal_toIiEE11load_factorEv
FN:436,_ZNK7emilib37HashMapIii12const_hasherSt8equal_toIiEE11load_factorEv
FNDA:4,_ZNK7emilib37HashMapIii12const_hasherSt8equal_toIiEE11load_factorEv
FN:445,_ZNK7emilib37HashMapIii13range4_hasherSt8equal_toIiEE8max_sizeEv
FNDA:92,_ZNK7emilib37HashMapIii13range4_hasherSt8equal_toIiEE8max_sizeEv
FN:445,_ZNK7emilib37HashMapIii13linear_hasherSt8equal_toIiEE8max_sizeEv
FNDA:92,_ZNK7emilib37HashMapIii13linear_hasherSt8equal_toIiEE8max_sizeEv
FN:445,_ZNK7emilib37HashMapIii12const_hasherSt8equal_toIiEE8max_sizeEv
FNDA:177,_ZNK7emilib37HashMapIii12const_hasherSt8equal_toIiEE8max_sizeEv
FN:450,_ZN7emilib37HashMapIii13linear_hasherSt8equal_toIiEE4findIiEENS4_8iteratorERKT_
FNDA:114289,_ZN7emilib37HashMapIii13linear_hasherSt8equal_toIiEE4findIiEENS4_8iteratorERKT_
FN:450,_ZN7emilib37HashMapIii12const_hasherSt8equal_toIiEE4findIiEENS4_8iteratorERKT_
FNDA:168689,_ZN7emilib37HashMapIii12const_hasherSt8equal_toIiEE4findIiEENS4_8iteratorERKT_
FN:450,_ZN7emilib37HashMapIii13range4_hasherSt8equal_toIiEE4findIiEENS4_8iteratorERKT_
FNDA:114289,_ZN7emilib37HashMapIii13range4_hasherSt8equal_toIiEE4findIiEENS4_8iteratorERKT_
FN:654,_ZN7emilib37HashMapIii13range4_hasherSt8equal_toIiEEixERKi
FNDA:50032,_ZN7emilib37HashMapIii13range4_hasherSt8equal_toIiEEixERKi
FN:654,_ZN7emilib37HashMapIii12const_hasherSt8equal_toIiEEixERKi
FNDA:134982,_ZN7emilib37HashMapIii12const_hasherSt8equal_toIiEEixERKi
FN:654,_ZN7emilib37HashMapIii13linear_hasherSt8equal_toIiEEixERKi
FNDA:50032,_ZN7emilib37HashMapIii13linear_hasherSt8equal_toIiEEixERKi
FN:681,_ZN7emilib37HashMapIii13linear_hasherSt8equal_toIiEE5eraseERKi
FNDA:13279,_ZN7emilib37HashMapIii13linear_hasherSt8equal_toIiEE5eraseERKi
FN:681,_ZN7emilib37HashMapIii12const_hasherSt8equal_toIiEE5eraseERKi
FNDA:23829,_ZN7emilib37HashMapIii12const_hasherSt8equal_toIiEE5eraseERKi
FN:681,_ZN7emilib37HashMapIii13range4_hasherSt8equal_toIiEE5eraseERKi
FNDA:13279,_ZN7emilib37HashMapIii13range4_hasherSt8equal_toIiEE5eraseERKi
FN:694,_ZN7emilib37HashMapIii13linear_hasherSt8equal_toIiEE6_eraseEj
FNDA:13109,_ZN7emilib37HashMapIii13linear_hasherSt8equal_toIiEE6_eraseEj
FN:694,_ZN7emilib37HashMapIii13range4_hasherSt8equal_toIiEE6_eraseEj
FNDA:13109,_ZN7emilib37HashMapIii13range4_hasherSt8equal_toIiEE6_eraseEj
FN:694,_ZN7emilib37HashMapIii12const_hasherSt8equal_toIiEE6_eraseEj
FNDA:23659,_ZN7emilib37HashMapIii12const_hasherSt8equal_toIiEE6_eraseEj
FN:727,_ZN7emilib37HashMapIii12const_hasherSt8equal_toIiEE18need_explicit_dtorEv
FNDA:161574,_ZN7emilib37HashMapIii12const_hasherSt8equal_toIiEE18need_explicit_dtorEv
FN:727,_ZN7emilib37HashMapIii13range4_hasherSt8equal_toIiEE18need_explicit_dtorEv
FNDA:75365,_ZN7emilib37HashMapIii13range4_hasherSt8equal_toIiEE18need_explicit_dtorEv
FN:727,_ZN7emilib37HashMapIii13linear_hasherSt8equal_toIiEE18need_explicit_dtorEv
FNDA:75365,_ZN7emilib37HashMapIii13linear_hasherSt8equal_toIiEE18need_explicit_dtorEv
FN:743,_ZN7emilib37HashMapIii13linear_hasherSt8equal_toIiEE10clear_metaEv
FNDA:92,_ZN7emilib37HashMapIii13linear_hasherSt8equal_toIiEE10clear_metaEv
FN:743,_ZN7emilib37HashMapIii13range4_hasherSt8equal_toIiEE10clear_metaEv
FNDA:92,_ZN7emilib37HashMapIii13range4_hasherSt8equal_toIiEE10clear_metaEv
FN:743,_ZN7emilib37HashMapIii12const_hasherSt8equal_toIiEE10clear_metaEv
FNDA:178,_ZN7emilib37HashMapIii12const_hasherSt8equal_toIiEE10clear_metaEv
FN:751,_ZN7emilib37HashMapIii12const_hasherSt8equal_toIiEE10clear_dataEv
FNDA:24,_ZN7emilib37HashMapIii12const_hasherSt8equal_toIiEE10clear_dataEv
FN:751,_ZN7emilib37HashMapIii13range4_hasherSt8equal_toIiEE10clear_dataEv
FNDA:12,_ZN7emilib37HashMapIii13range4_hasherSt8equal_toIiEE10clear_dataEv
FN:751,_ZN7emilib37HashMapIii13linear_hasherSt8equal_toIiEE10clear_dataEv
FNDA:12,_ZN7emilib37HashMapIii13linear_hasherSt8equal_toIiEE10clear_dataEv
FN:762,_ZN7emilib37HashMapIii12const_hasherSt8equal_toIiEE5clearEv
FNDA:1,_ZN7emilib37HashMapIii12const_hasherSt8equal_toIiEE5clearEv
FN:781,_ZN7emilib37HashMapIii12const_hasherSt8equal_toIiEE6rehashEm
FNDA:177,_ZN7emilib37HashMapIii12const_hasherSt8equal_toIiEE6rehashEm
FN:781,_ZN7emilib37HashMapIii13range4_hasherSt8equal_toIiEE6rehashEm
FNDA:92,_ZN7emilib37HashMapIii13range4_hasherSt8equal_toIiEE6rehashEm
FN:781,_ZN7emilib37HashMapIii13linear_hasherSt8equal_toIiEE6rehashEm
FNDA:92,_ZN7emilib37HashMapIii13linear_hasherSt8equal_toIiEE6rehashEm
FN:852,_ZN7emilib37HashMapIii12const_hasherSt8equal_toIiEE19prefetch_heap_blockEPc
FNDA:55163503,_ZN7emilib37HashMapIii12const_hasherSt8equal_toIiEE19prefetch_heap_blockEPc
FN:852,_ZN7emilib37HashMapIii13linear_hasherSt8equal_toIiEE19prefetch_heap_blockEPc
FNDA:239426,_ZN7emilib37HashMapIii13linear_hasherSt8equal_toIiEE19prefetch_heap_blockEPc
FN:852,_ZN7emilib37HashMapIii13range4_hasherSt8equal_toIiEE19prefetch_heap_blockEPc
FNDA:34358430,_ZN7emilib37HashMapIii13range4_hasherSt8equal_toIiEE19prefetch_heap_blockEPc
FN:864,_ZNK7emilib37HashMapIii12const_hasherSt8equal_toIiEE10group_maskEj
FNDA:95488544,_ZNK7emilib37HashMapIii12const_hasherSt8equal_toIiEE10group_maskEj
FN:864,_ZNK7emilib37HashMapIii13linear_hasherSt8equal_toIiEE10group_maskEj
FNDA:58391,_ZNK7emilib37HashMapIii13linear_hasherSt8equal_toIiEE10group_maskEj
FN:864,_ZNK7emilib37HashMapIii13range4_hasherSt8equal_toIiEE10group_maskEj
FNDA:49560708,_ZNK7emilib37HashMapIii13range4_hasherSt8equal_toIiEE10group_maskEj
FN:866,_ZN7emilib37HashMapIii12const_hasherSt8equal_toIiEE10set_statesEja
FNDA:246605,_ZN7emilib37HashMapIii12const_hasherSt8equal_toIiEE10set_statesEja
FN:866,_ZN7emilib37HashMapIii13range4_hasherSt8equal_toIiEE10set_statesEja
FNDA:107108,_ZN7emilib37HashMapIii13range4_hasherSt8equal_toIiEE10set_statesEja
FN:866,_ZN7emilib37HashMapIii13linear_hasherSt8equal_toIiEE10set_statesEja
FNDA:107108,_ZN7emilib37HashMapIii13linear_hasherSt8equal_toIiEE10set_statesEja
FN:868,_ZN7emilib37HashMapIii13linear_hasherSt8equal_toIiEE10set_offsetEj
FNDA:0,_ZN7emilib37HashMapIii13linear_hasherSt8equal_toIiEE10set_offsetEj
FN:868,_ZN7emilib37HashMapIii13range4_hasherSt8equal_toIiEE10set_offsetEj
FNDA:6608,_ZN7emilib37HashMapIii13range4_hasherSt8equal_toIiEE10set_offsetEj
FN:868,_ZN7emilib37HashMapIii12const_hasherSt8equal_toIiEE10set_offsetEj
FNDA:14614,_ZN7emilib37HashMapIii12const_hasherSt8equal_toIiEE10set_offsetEj
FN:870,_ZNK7emilib37HashMapIii13linear_hasherSt8equal_toIiEE15get_next_bucketEjj
FNDA:464,_ZNK7emilib37HashMapIii13linear_hasherSt8equal_toIiEE15get_next_bucketEjj
FN:870,_ZNK7emilib37HashMapIii12const_hasherSt8equal_toIiEE15get_next_bucketEjj
FNDA:118717111,_ZNK7emilib37HashMapIii12const_hasherSt8equal_toIiEE15get_next_bucketEjj
FN:870,_ZNK7emilib37HashMapIii13range4_hasherSt8equal_toIiEE15get_next_bucketEjj
FNDA:58960928,_ZNK7emilib37HashMapIii13range4_hasherSt8equal_toIiEE15get_next_bucketEjj
FN:885,_ZNK7emilib37HashMapIii13range4_hasherSt8equal_toIiEE18find_filled_bucketIiEEjRKT_
FNDA:127568,_ZNK7emilib37HashMapIii13range4_hasherSt8equal_toIiEE18find_filled_bucketIiEEjRKT_
FN:885,_ZNK7emilib37HashMapIii13linear_hasherSt8equal_toIiEE18find_filled_bucketIiEEjRKT_
FNDA:127568,_ZNK7emilib37HashMapIii13linear_hasherSt8equal_toIiEE18find_filled_bucketIiEEjRKT_
FN:885,_ZNK7emilib37HashMapIii12const_hasherSt8equal_toIiEE18find_filled_bucketIiEEjRKT_
FNDA:192518,_ZNK7emilib37HashMapIii12const_hasherSt8equal_toIiEE18find_filled_bucketIiEEjRKT_
FN:917,_ZN7emilib37HashMapIii13range4_hasherSt8equal_toIiEE16find_or_allocateIiEEjRKT_Rb
FNDA:50032,_ZN7emilib37HashMapIii13range4_hasherSt8equal_toIiEE16find_or_allocateIiEEjRKT_Rb
FN:917,_ZN7emilib37HashMapIii12const_hasherSt8equal_toIiEE16find_or_allocateIiEEjRKT_Rb
FNDA:134982,_ZN7emilib37HashMapIii12const_hasherSt8equal_toIiEE16find_or_allocateIiEEjRKT_Rb
FN:917,_ZN7emilib37HashMapIii13linear_hasherSt8equal_toIiEE16find_or_allocateIiEEjRKT_Rb
FNDA:50032,_ZN7emilib37HashMapIii13linear_hasherSt8equal_toIiEE16find_or_allocateIiEEjRKT_Rb
FN:975,_ZNK7emilib37HashMapIii12const_hasherSt8equal_toIiEE12empty_deleteEj
FNDA:18898878,_ZNK7emilib37HashMapIii12const_hasherSt8equal_toIiEE12empty_deleteEj
FN:975,_ZNK7emilib37HashMapIii13range4_hasherSt8equal_toIiEE12empty_deleteEj
FNDA:8089964,_ZNK7emilib37HashMapIii13range4_hasherSt8equal_toIiEE12empty_deleteEj
FN:975,_ZNK7emilib37HashMapIii13linear_hasherSt8equal_toIiEE12empty_deleteEj
FNDA:62244,_ZNK7emilib37HashMapIii13linear_hasherSt8equal_toIiEE12empty_deleteEj
FN:980,_ZNK7emilib37HashMapIii13linear_hasherSt8equal_toIiEE11filled_maskEj
FNDA:0,_ZNK7emilib37HashMapIii13linear_hasherSt8equal_toIiEE11filled_maskEj
FN:980,_ZNK7emilib37HashMapIii12const_hasherSt8equal_toIiEE11filled_maskEj
FNDA:0,_ZNK7emilib37HashMapIii12const_hasherSt8equal_toIiEE11filled_maskEj
FN:980,_ZNK7emilib37HashMapIii13range4_hasherSt8equal_toIiEE11filled_maskEj
FNDA:0,_ZNK7emilib37HashMapIii13range4_hasherSt8equal_toIiEE11filled_maskEj
FN:985,_ZN7emilib37HashMapIii12const_hasherSt8equal_toIiEE15find_empty_slotEjj
FNDA:143983,_ZN7emilib37HashMapIii12const_hasherSt8equal_toIiEE15find_empty_slotEjj
FN:985,_ZN7emilib37HashMapIii13linear_hasherSt8equal_toIiEE15find_empty_slotEjj
FNDA:62244,_ZN7emilib37HashMapIii13linear_hasherSt8equal_toIiEE15find_empty_slotEjj
FN:985,_ZN7emilib37HashMapIii13range4_hasherSt8equal_toIiEE15find_empty_slotEjj
FNDA:65012,_ZN7emilib37HashMapIii13range4_hasherSt8equal_toIiEE15find_empty_slotEjj
FN:1001,_ZNK7emilib37HashMapIii12const_hasherSt8equal_toIiEE16find_filled_slotEj
FNDA:0,_ZNK7emilib37HashMapIii12const_hasherSt8equal_toIiEE16find_filled_slotEj
FN:1001,_ZNK7emilib37HashMapIii13range4_hasherSt8equal_toIiEE16find_filled_slotEj
FNDA:0,_ZNK7emilib37HashMapIii13range4_hasherSt8equal_toIiEE16find_filled_slotEj
FN:1001,_ZNK7emilib37HashMapIii13linear_hasherSt8equal_toIiEE16find_filled_slotEj
FNDA:0,_ZNK7emilib37HashMapIii13linear_hasherSt8equal_toIiEE16find_filled_slotEj
DA:122,1671618308
DA:127,1671618308
DA:130,1671618308
DA:163,239844
DA:164,239844
DA:171,239844
DA:172,239844
DA:174,239844
DA:163,239844
DA:164,239844
DA:171,239844
DA:172,239844
DA:174,239844
DA:163,465391
DA:164,465391
DA:171,465391
DA:172,465391
DA:174,465391
DA:188,225289
DA:189,225289
DA:190,225289
DA:188,225289
DA:189,225289
DA:190,225289
DA:188,345189
DA:189,345189
DA:190,345189
DA:192,0
DA:193,0
DA:194,0
DA:195,0
DA:196,0
DA:197,0
DA:199,0
DA:201,0
DA:192,0
DA:193,0
DA:194,0
DA:195,0
DA:196,0
DA:197,0
DA:199,0
DA:201,0
DA:192,0
DA:193,0
DA:194,0
DA:195,0
DA:196,0
DA:197,0
DA:199,0
DA:201,0
DA:205,0
DA:205,0
DA:205,0
DA:207,0
DA:209,0
DA:210,0
DA:212,0
DA:213,0
DA:207,0
DA:209,0
DA:210,0
DA:212,0
DA:213,0
DA:207,0
DA:209,0
DA:210,0
DA:212,0
DA:213,0
DA:227,48850
DA:229,54400
DA:230,111000
DA:230,111000
DA:230,122100
DA:235,0
DA:236,0
DA:237,0
DA:238,0
DA:239,0
DA:243,0
DA:244,0
DA:246,0
DA:235,0
DA:236,0
DA:237,0
DA:238,0
DA:239,0
DA:243,0
DA:244,0
DA:246,0
DA:235,0
DA:236,0
DA:237,0
DA:238,0
DA:239,0
DA:243,0
DA:244,0
DA:246,0
DA:325,12
DA:326,12
DA:327,12
DA:328,12
DA:325,12
DA:326,12
DA:327,12
DA:328,12
DA:325,23
DA:326,23
DA:327,23
DA:328,23
DA:368,12
DA:369,12
DA:370,12
DA:371,12
DA:372,12
DA:373,12
DA:368,12
DA:369,12
DA:370,12
DA:371,12
DA:372,12
DA:373,12
DA:368,23
DA:369,23
DA:370,23
DA:371,23
DA:372,23
DA:373,23
DA:416,0
DA:416,0
DA:416,0
DA:422,111000
DA:422,111000
DA:422,176500
DA:428,4
DA:433,3
DA:433,3
DA:433,4
DA:436,3
DA:436,3
DA:436,4
DA:445,92
DA:445,92
DA:445,177
DA:450,114289
DA:450,114289
DA:450,168689
DA:654,50032
DA:655,50032
DA:656,50032
DA:658,50032
DA:659,44864
DA:660,44864
DA:663,50032
DA:654,50032
DA:655,50032
DA:656,50032
DA:658,50032
DA:659,44864
DA:660,44864
DA:663,50032
DA:654,134982
DA:655,134982
DA:656,134982
DA:658,134982
DA:659,108714
DA:660,108714
DA:663,134982
DA:681,13279
DA:682,13279
DA:683,13279
DA:684,170
DA:686,13109
DA:687,13109
DA:681,13279
DA:682,13279
DA:683,13279
DA:684,170
DA:686,13109
DA:687,13109
DA:681,23829
DA:682,23829
DA:683,23829
DA:684,170
DA:686,23659
DA:687,23659
DA:694,13109
DA:695,13109
DA:696,13109
DA:697,0
DA:699,13109
DA:700,13109
DA:706,13109
DA:694,13109
DA:695,13109
DA:696,13109
DA:697,0
DA:699,13109
DA:700,13109
DA:706,13109
DA:694,23659
DA:695,23659
DA:696,23659
DA:697,0
DA:699,23659
DA:700,23659
DA:706,23659
DA:727,75365
DA:729,75365
DA:727,75365
DA:729,75365
DA:727,161574
DA:729,161574
DA:743,92
DA:744,92
DA:746,92
DA:747,92
DA:748,92
DA:749,92
DA:743,92
DA:744,92
DA:746,92
DA:747,92
DA:748,92
DA:749,92
DA:743,178
DA:744,178
DA:746,178
DA:747,178
DA:748,178
DA:749,178
DA:751,12
DA:752,12
DA:753,0
DA:754,0
DA:755,0
DA:756,0
DA:759,12
DA:751,12
DA:752,12
DA:753,0
DA:754,0
DA:755,0
DA:756,0
DA:759,12
DA:751,24
DA:752,24
DA:753,0
DA:754,0
DA:755,0
DA:756,0
DA:759,24
DA:762,1
DA:763,1
DA:764,1
DA:765,1
DA:767,1
DA:781,92
DA:782,92
DA:783,0
DA:785,92
DA:786,448
DA:787,356
DA:790,92
DA:791,0
DA:793,92
DA:794,92
DA:795,92
DA:797,92
DA:798,92
DA:800,92
DA:801,92
DA:802,92
DA:803,92
DA:808,92
DA:809,92
DA:810,92
DA:811,92
DA:812,92
DA:815,92
DA:816,92
DA:823,74140
DA:824,74048
DA:825,62244
DA:827,62244
DA:828,62244
DA:830,62244
DA:831,62244
DA:832,62244
DA:833,62244
DA:834,0
DA:844,92
DA:845,92
DA:781,92
DA:782,92
DA:783,0
DA:785,92
DA:786,448
DA:787,356
DA:790,92
DA:791,0
DA:793,92
DA:794,92
DA:795,92
DA:797,92
DA:798,92
DA:800,92
DA:801,92
DA:802,92
DA:803,92
DA:808,92
DA:809,92
DA:810,92
DA:811,92
DA:812,92
DA:815,92
DA:816,92
DA:823,74140
DA:824,74048
DA:825,62244
DA:827,62244
DA:828,62244
DA:830,62244
DA:831,62244
DA:832,62244
DA:833,62244
DA:834,0
DA:844,92
DA:845,92
DA:781,177
DA:782,177
DA:783,0
DA:785,177
DA:786,895
DA:787,718
DA:790,177
DA:791,0
DA:793,177
DA:794,177
DA:795,177
DA:797,177
DA:798,177
DA:800,177
DA:801,177
DA:802,177
DA:803,177
DA:808,177
DA:809,177
DA:810,177
DA:811,177
DA:812,177
DA:815,177
DA:816,177
DA:823,161489
DA:824,161312
DA:825,137891
DA:827,137891
DA:828,137891
DA:830,137891
DA:831,137891
DA:832,137891
DA:833,137891
DA:834,0
DA:844,177
DA:845,177
DA:852,239426
DA:860,239426
DA:862,239426
DA:852,34358430
DA:860,34358430
DA:862,34358430
DA:852,55163503
DA:860,55163503
DA:862,55163503
DA:864,58391
DA:864,49560708
DA:864,95488544
DA:866,107108
DA:866,107108
DA:866,246605
DA:868,0
DA:868,6608
DA:868,14614
DA:870,464
DA:872,464
DA:873,464
DA:875,0
DA:881,464
DA:870,58960928
DA:872,58960928
DA:873,1402247
DA:875,57558681
DA:881,58960928
DA:870,118717111
DA:872,118717111
DA:873,2726239
DA:875,115990872
DA:881,118717111
DA:885,127568
DA:887,127568
DA:888,127568
DA:889,127568
DA:891,127568
DA:894,255136
DA:895,127568
DA:896,127568
DA:897,127150
DA:899,127150
DA:900,127150
DA:901,127150
DA:902,0
DA:905,418
DA:906,1
DA:907,417
DA:908,417
DA:909,0
DA:910,0
DA:885,127568
DA:887,127568
DA:888,127568
DA:889,127568
DA:891,127568
DA:894,73209954
DA:895,36604977
DA:896,36604977
DA:897,34243386
DA:899,136161082
DA:900,136161082
DA:901,127150
DA:902,136033932
DA:905,36477827
DA:906,47
DA:907,36477780
DA:908,371
DA:909,36477409
DA:910,36477409
DA:885,192518
DA:887,192518
DA:888,192518
DA:889,192518
DA:891,192518
DA:894,114398844
DA:895,57199422
DA:896,57199422
DA:897,54884538
DA:899,816280273
DA:900,816280273
DA:901,186550
DA:902,816093723
DA:905,57012872
DA:906,597
DA:907,57012275
DA:908,5371
DA:909,57006904
DA:910,57006904
DA:917,50032
DA:918,50032
DA:919,50032
DA:920,80
DA:923,50032
DA:924,50032
DA:925,50032
DA:926,50032
DA:927,50032
DA:928,50032
DA:929,50032
DA:932,100064
DA:934,50032
DA:936,50032
DA:937,5168
DA:938,5168
DA:939,5168
DA:940,5168
DA:942,0
DA:946,44864
DA:948,89728
DA:949,44864
DA:950,44400
DA:951,44400
DA:952,44400
DA:953,464
DA:954,464
DA:959,464
DA:961,464
DA:963,464
DA:964,464
DA:965,464
DA:968,0
DA:970,0
DA:972,0
DA:917,50032
DA:918,50032
DA:919,50032
DA:920,80
DA:923,50032
DA:924,50032
DA:925,50032
DA:926,50032
DA:927,50032
DA:928,50032
DA:929,50032
DA:932,29010734
DA:934,14505367
DA:936,71924627
DA:937,57424428
DA:938,57424428
DA:939,5168
DA:940,5168
DA:942,57419260
DA:946,14500199
DA:948,26139544
DA:949,13069772
DA:950,41632
DA:951,41632
DA:952,41632
DA:953,13028140
DA:954,5070
DA:959,14458567
DA:961,14458567
DA:963,3232
DA:964,464
DA:965,464
DA:968,2768
DA:970,2768
DA:972,2768
DA:917,134982
DA:918,134982
DA:919,134982
DA:920,154
DA:923,134982
DA:924,134982
DA:925,134982
DA:926,134982
DA:927,134982
DA:928,134982
DA:929,134982
DA:932,86146388
DA:934,43073194
DA:936,704197100
DA:937,661150174
DA:938,661150174
DA:939,26268
DA:940,26268
DA:942,661123906
DA:946,43046926
DA:948,76904026
DA:949,38452013
DA:950,91614
DA:951,91614
DA:952,91614
DA:953,38360399
DA:954,15614
DA:959,42955312
DA:961,42955312
DA:963,17100
DA:964,11008
DA:965,11008
DA:968,6092
DA:970,6092
DA:972,6092
DA:975,62244
DA:976,62244
DA:977,186732
DA:975,8089964
DA:976,8089964
DA:977,24269892
DA:975,18898878
DA:976,18898878
DA:977,56696634
DA:980,0
DA:981,0
DA:982,0
DA:980,0
DA:981,0
DA:982,0
DA:980,0
DA:981,0
DA:982,0
DA:985,62244
DA:987,62244
DA:988,62244
DA:989,62244
DA:990,62244
DA:991,62244
DA:992,0
DA:993,62244
DA:995,0
DA:996,0
DA:985,8089964
DA:987,8089964
DA:988,8089964
DA:989,65012
DA:990,65012
DA:991,65012
DA:992,6608
DA:993,65012
DA:995,8024952
DA:996,8024952
DA:985,18898878
DA:987,18898878
DA:988,18898878
DA:989,143983
DA:990,143983
DA:991,143983
DA:992,14614
DA:993,143983
DA:995,18754895
DA:996,18754895
DA:1001,0
DA:1002,0
DA:1003,0
DA:1005,0
DA:1006,0
DA:1007,0
DA:1008,0
DA:1009,0
DA:1001,0
DA:1002,0
DA:1003,0
DA:1005,0
DA:1006,0
DA:1007,0
DA:1008,0
DA:1009,0
DA:1001,0
DA:1002,0
DA:1003,0
DA:1005,0
DA:1006,0
DA:1007,0
DA:1008,0
DA:1009,0
end_of_record
TN:
SF:/mnt/d/emhash/include/emilib/emihmap2.hpp
FN:130,_ZN7emilib2L3CTZEm
FNDA:538359,_ZN7emilib2L3CTZEm
FN:170,_ZNK7emilib27HashMapIiiSt4hashIiESt8equal_toIiEE9hash_key2IiLa0EEEaRjRKT_
FNDA:590321,_ZNK7emilib27HashMapIiiSt4hashIiESt8equal_toIiEE9hash_key2IiLa0EEEaRjRKT_
FN:191,_ZN7emilib27HashMapIiiSt4hashIiESt8equal_toIiEE8iteratorC2EPKS5_j
FNDA:328106,_ZN7emilib27HashMapIiiSt4hashIiESt8equal_toIiEE8iteratorC2EPKS5_j
FN:197,_ZN7emilib27HashMapIiiSt4hashIiESt8equal_toIiEE8iterator4initEv
FNDA:3,_ZN7emilib27HashMapIiiSt4hashIiESt8equal_toIiEE8iterator4initEv
FN:210,_ZNK7emilib27HashMapIiiSt4hashIiESt8equal_toIiEE8iterator6bucketEv
FNDA:100,_ZNK7emilib27HashMapIiiSt4hashIiESt8equal_toIiEE8iterator6bucketEv
FN:212,_ZN7emilib27HashMapIiiSt4hashIiESt8equal_toIiEE8iteratorppEv
FNDA:199,_ZN7emilib27HashMapIiiSt4hashIiESt8equal_toIiEE8iteratorppEv
FN:221,_ZN7emilib27HashMapIiiSt4hashIiESt8equal_toIiEE8iteratorppEi
FNDA:50,_ZN7emilib27HashMapIiiSt4hashIiESt8equal_toIiEE8iteratorppEi
FN:231,_ZNK7emilib27HashMapIiiSt4hashIiESt8equal_toIiEE8iteratordeEv
FNDA:149,_ZNK7emilib27HashMapIiiSt4hashIiESt8equal_toIiEE8iteratordeEv
FN:232,_ZNK7emilib27HashMapIiiSt4hashIiESt8equal_toIiEE8iteratorptEv
FNDA:149186,_ZNK7emilib27HashMapIiiSt4hashIiESt8equal_toIiEE8iteratorptEv
FN:234,_ZNK7emilib27HashMapIiiSt4hashIiESt8equal_toIiEE8iteratoreqERKS6_
FNDA:141696,_ZNK7emilib27HashMapIiiSt4hashIiESt8equal_toIiEE8iteratoreqERKS6_
FN:235,_ZNK7emilib27HashMapIiiSt4hashIiESt8equal_toIiEE8iteratorneERKS6_
FNDA:25105,_ZNK7emilib27HashMapIiiSt4hashIiESt8equal_toIiEE8iteratorneERKS6_
FN:240,_ZN7emilib27HashMapIiiSt4hashIiESt8equal_toIiEE8iterator17goto_next_elementEv
FNDA:249,_ZN7emilib27HashMapIiiSt4hashIiESt8equal_toIiEE8iterator17goto_next_elementEv
FN:272,_ZN7emilib27HashMapIiiSt4hashIiESt8equal_toIiEE14const_iteratorC2EPKS5_j
FNDA:618,_ZN7emilib27HashMapIiiSt4hashIiESt8equal_toIiEE14const_iteratorC2EPKS5_j
FN:274,_ZN7emilib27HashMapIiiSt4hashIiESt8equal_toIiEE14const_iterator4initEv
FNDA:618,_ZN7emilib27HashMapIiiSt4hashIiESt8equal_toIiEE14const_iterator4initEv
FN:285,_ZNK7emilib27HashMapIiiSt4hashIiESt8equal_toIiEE14const_iterator6bucketEv
FNDA:0,_ZNK7emilib27HashMapIiiSt4hashIiESt8equal_toIiEE14const_iterator6bucketEv
FN:289,_ZN7emilib27HashMapIiiSt4hashIiESt8equal_toIiEE14const_iteratorppEv
FNDA:400,_ZN7emilib27HashMapIiiSt4hashIiESt8equal_toIiEE14const_iteratorppEv
FN:300,_ZNK7emilib27HashMapIiiSt4hashIiESt8equal_toIiEE14const_iteratordeEv
FNDA:0,_ZNK7emilib27HashMapIiiSt4hashIiESt8equal_toIiEE14const_iteratordeEv
FN:301,_ZNK7emilib27HashMapIiiSt4hashIiESt8equal_toIiEE14const_iteratorptEv
FNDA:1106,_ZNK7emilib27HashMapIiiSt4hashIiESt8equal_toIiEE14const_iteratorptEv
FN:305,_ZNK7emilib27HashMapIiiSt4hashIiESt8equal_toIiEE14const_iteratoreqERKS6_
FNDA:302,_ZNK7emilib27HashMapIiiSt4hashIiESt8equal_toIiEE14const_iteratoreqERKS6_
FN:306,_ZNK7emilib27HashMapIiiSt4hashIiESt8equal_toIiEE14const_iteratorneERKS6_
FNDA:407,_ZNK7emilib27HashMapIiiSt4hashIiESt8equal_toIiEE14const_iteratorneERKS6_
FN:309,_ZN7emilib27HashMapIiiSt4hashIiESt8equal_toIiEE14const_iterator17goto_next_elementEv
FNDA:400,_ZN7emilib27HashMapIiiSt4hashIiESt8equal_toIiEE14const_iterator17goto_next_elementEv
FN:331,_ZN7emilib27HashMapIiiSt4hashIiESt8equal_toIiEEC2Ejf
FNDA:38,_ZN7emilib27HashMapIiiSt4hashIiESt8equal_toIiEEC2Ejf
FN:336,_ZN7emilib27HashMapIiiSt4hashIiESt8equal_toIiEEC2ERKS5_
FNDA:1,_ZN7emilib27HashMapIiiSt4hashIiESt8equal_toIiEEC2ERKS5_
FN:341,_ZN7emilib27HashMapIiiSt4hashIiESt8equal_toIiEEC2EOS5_
FNDA:1,_ZN7emilib27HashMapIiiSt4hashIiESt8equal_toIiEEC2EOS5_
FN:348,_ZN7emilib27HashMapIiiSt4hashIiESt8equal_toIiEEC2ESt16initializer_listISt4pairIKiiEE
FNDA:1,_ZN7emilib27HashMapIiiSt4hashIiESt8equal_toIiEEC2ESt16initializer_listISt4pairIKiiEE
FN:354,_ZN7emilib27HashMapIiiSt4hashIiESt8equal_toIiEEC2IN9__gnu_cxx17__normal_iteratorIPSt4pairIiiESt6vectorISA_SaISA_EEEEEET_SG_j
FNDA:1,_ZN7emilib27HashMapIiiSt4hashIiESt8equal_toIiEEC2IN9__gnu_cxx17__normal_iteratorIPSt4pairIiiESt6vectorISA_SaISA_EEEEEET_SG_j
FN:366,_ZN7emilib27HashMapIiiSt4hashIiESt8equal_toIiEEaSEOS5_
FNDA:1,_ZN7emilib27HashMapIiiSt4hashIiESt8equal_toIiEEaSEOS5_
FN:374,_ZN7emilib27HashMapIiiSt4hashIiESt8equal_toIiEED2Ev
FNDA:42,_ZN7emilib27HashMapIiiSt4hashIiESt8equal_toIiEED2Ev
FN:382,_ZN7emilib27HashMapIiiSt4hashIiESt8equal_toIiEE5cloneERKS5_
FNDA:1,_ZN7emilib27HashMapIiiSt4hashIiESt8equal_toIiEE5cloneERKS5_
FN:417,_ZN7emilib27HashMapIiiSt4hashIiESt8equal_toIiEE4swapERS5_
FNDA:3,_ZN7emilib27HashMapIiiSt4hashIiESt8equal_toIiEE4swapERS5_
FN:431,_ZN7emilib27HashMapIiiSt4hashIiESt8equal_toIiEE5beginEv
FNDA:4,_ZN7emilib27HashMapIiiSt4hashIiESt8equal_toIiEE5beginEv
FN:433,_ZNK7emilib27HashMapIiiSt4hashIiESt8equal_toIiEE6cbeginEv
FNDA:7,_ZNK7emilib27HashMapIiiSt4hashIiESt8equal_toIiEE6cbeginEv
FN:435,_ZNK7emilib27HashMapIiiSt4hashIiESt8equal_toIiEE5beginEv
FNDA:7,_ZNK7emilib27HashMapIiiSt4hashIiESt8equal_toIiEE5beginEv
FN:437,_ZN7emilib27HashMapIiiSt4hashIiESt8equal_toIiEE3endEv
FNDA:166835,_ZN7emilib27HashMapIiiSt4hashIiESt8equal_toIiEE3endEv
FN:439,_ZNK7emilib27HashMapIiiSt4hashIiESt8equal_toIiEE4cendEv
FNDA:309,_ZNK7emilib27HashMapIiiSt4hashIiESt8equal_toIiEE4cendEv
FN:441,_ZNK7emilib27HashMapIiiSt4hashIiESt8equal_toIiEE3endEv
FNDA:309,_ZNK7emilib27HashMapIiiSt4hashIiESt8equal_toIiEE3endEv
FN:443,_ZNK7emilib27HashMapIiiSt4hashIiESt8equal_toIiEE4sizeEv
FNDA:49,_ZNK7emilib27HashMapIiiSt4hashIiESt8equal_toIiEE4sizeEv
FN:445,_ZNK7emilib27HashMapIiiSt4hashIiESt8equal_toIiEE5emptyEv
FNDA:16,_ZNK7emilib27HashMapIiiSt4hashIiESt8equal_toIiEE5emptyEv
FN:448,_ZNK7emilib27HashMapIiiSt4hashIiESt8equal_toIiEE12bucket_countEv
FNDA:626,_ZNK7emilib27HashMapIiiSt4hashIiESt8equal_toIiEE12bucket_countEv
FN:451,_ZNK7emilib27HashMapIiiSt4hashIiESt8equal_toIiEE11load_factorEv
FNDA:3,_ZNK7emilib27HashMapIiiSt4hashIiESt8equal_toIiEE11load_factorEv
FN:453,_ZNK7emilib27HashMapIiiSt4hashIiESt8equal_toIiEE15max_load_factorEv
FNDA:2,_ZNK7emilib27HashMapIiiSt4hashIiESt8equal_toIiEE15max_load_factorEv
FN:460,_ZNK7emilib27HashMapIiiSt4hashIiESt8equal_toIiEE8max_sizeEv
FNDA:189,_ZNK7emilib27HashMapIiiSt4hashIiESt8equal_toIiEE8max_sizeEv
FN:461,_ZNK7emilib27HashMapIiiSt4hashIiESt8equal_toIiEE16max_bucket_countEv
FNDA:1,_ZNK7emilib27HashMapIiiSt4hashIiESt8equal_toIiEE16max_bucket_countEv
FN:465,_ZN7emilib27HashMapIiiSt4hashIiESt8equal_toIiEE4findIiEENS5_8iteratorERKT_
FNDA:168327,_ZN7emilib27HashMapIiiSt4hashIiESt8equal_toIiEE4findIiEENS5_8iteratorERKT_
FN:467,_ZNK7emilib27HashMapIiiSt4hashIiESt8equal_toIiEE4findIiEENS5_14const_iteratorERKT_
FNDA:302,_ZNK7emilib27HashMapIiiSt4hashIiESt8equal_toIiEE4findIiEENS5_14const_iteratorERKT_
FN:471,_ZNK7emilib27HashMapIiiSt4hashIiESt8equal_toIiEE8containsIiEEbRKT_
FNDA:50907,_ZNK7emilib27HashMapIiiSt4hashIiESt8equal_toIiEE8containsIiEEbRKT_
FN:475,_ZNK7emilib27HashMapIiiSt4hashIiESt8equal_toIiEE5countIiEEjRKT_
FNDA:1,_ZNK7emilib27HashMapIiiSt4hashIiESt8equal_toIiEE5countIiEEjRKT_
FN:503,_ZNK7emilib27HashMapIiiSt4hashIiESt8equal_toIiEEeqISt13unordered_mapIiiS2_S4_SaISt4pairIKiiEEEEEbRKT_
FNDA:1,_ZNK7emilib27HashMapIiiSt4hashIiESt8equal_toIiEEeqISt13unordered_mapIiiS2_S4_SaISt4pairIKiiEEEEEbRKT_
FN:503,_ZNK7emilib27HashMapIiiSt4hashIiESt8equal_toIiEEeqIS5_EEbRKT_
FNDA:7,_ZNK7emilib27HashMapIiiSt4hashIiESt8equal_toIiEEeqIS5_EEbRKT_
FN:515,_ZNK7emilib27HashMapIiiSt4hashIiESt8equal_toIiEEneIS5_EEbRKT_
FNDA:4,_ZNK7emilib27HashMapIiiSt4hashIiESt8equal_toIiEEneIS5_EEbRKT_
FN:517,_ZN7emilib27HashMapIiiSt4hashIiESt8equal_toIiEE5mergeERS5_
FNDA:2,_ZN7emilib27HashMapIiiSt4hashIiESt8equal_toIiEE5mergeERS5_
FN:539,_ZN7emilib27HashMapIiiSt4hashIiESt8equal_toIiEE9do_insertIiiEESt4pairINS5_8iteratorEbEOT_OT0_
FNDA:4,_ZN7emilib27HashMapIiiSt4hashIiESt8equal_toIiEE9do_insertIiiEESt4pairINS5_8iteratorEbEOT_OT0_
FN:550,_ZN7emilib27HashMapIiiSt4hashIiESt8equal_toIiEE9do_insertERKSt4pairIKiiE
FNDA:6,_ZN7emilib27HashMapIiiSt4hashIiESt8equal_toIiEE9do_insertERKSt4pairIKiiE
FN:560,_ZN7emilib27HashMapIiiSt4hashIiESt8equal_toIiEE9do_insertEOSt4pairIKiiE
FNDA:52,_ZN7emilib27HashMapIiiSt4hashIiESt8equal_toIiEE9do_insertEOSt4pairIKiiE
FN:570,_ZN7emilib27HashMapIiiSt4hashIiESt8equal_toIiEE7emplaceIJiiEEESt4pairINS5_8iteratorEbEDpOT_
FNDA:2,_ZN7emilib27HashMapIiiSt4hashIiESt8equal_toIiEE7emplaceIJiiEEESt4pairINS5_8iteratorEbEDpOT_
FN:574,_ZN7emilib27HashMapIiiSt4hashIiESt8equal_toIiEE6insertEOSt4pairIKiiE
FNDA:52,_ZN7emilib27HashMapIiiSt4hashIiESt8equal_toIiEE6insertEOSt4pairIKiiE
FN:576,_ZN7emilib27HashMapIiiSt4hashIiESt8equal_toIiEE6insertERKSt4pairIKiiE
FNDA:3,_ZN7emilib27HashMapIiiSt4hashIiESt8equal_toIiEE6insertERKSt4pairIKiiE
FN:597,_ZN7emilib27HashMapIiiSt4hashIiESt8equal_toIiEE11try_emplaceIJiEEESt4pairINS5_8iteratorEbEOiDpOT_
FNDA:2,_ZN7emilib27HashMapIiiSt4hashIiESt8equal_toIiEE11try_emplaceIJiEEESt4pairINS5_8iteratorEbEOiDpOT_
FN:602,_ZN7emilib27HashMapIiiSt4hashIiESt8equal_toIiEE6insertESt16initializer_listISt4pairIKiiEE
FNDA:1,_ZN7emilib27HashMapIiiSt4hashIiESt8equal_toIiEE6insertESt16initializer_listISt4pairIKiiEE
FN:608,_ZN7emilib27HashMapIiiSt4hashIiESt8equal_toIiEE13insert_uniqueIRKiiEEjOT_OT0_
FNDA:50,_ZN7emilib27HashMapIiiSt4hashIiESt8equal_toIiEE13insert_uniqueIRKiiEEjOT_OT0_
FN:639,_ZN7emilib27HashMapIiiSt4hashIiESt8equal_toIiEE16insert_or_assignIiEESt4pairINS5_8iteratorEbEOiOT_
FNDA:2,_ZN7emilib27HashMapIiiSt4hashIiESt8equal_toIiEE16insert_or_assignIiEESt4pairINS5_8iteratorEbEOiOT_
FN:643,_ZN7emilib27HashMapIiiSt4hashIiESt8equal_toIiEE9do_assignIiiEESt4pairINS5_8iteratorEbEOT_OT0_
FNDA:2,_ZN7emilib27HashMapIiiSt4hashIiESt8equal_toIiEE9do_assignIiiEESt4pairINS5_8iteratorEbEOT_OT0_
FN:658,_ZN7emilib27HashMapIiiSt4hashIiESt8equal_toIiEE7set_getERKiS7_Ri
FNDA:2,_ZN7emilib27HashMapIiiSt4hashIiESt8equal_toIiEE7set_getERKiS7_Ri
FN:673,_ZN7emilib27HashMapIiiSt4hashIiESt8equal_toIiEEixERKi
FNDA:157759,_ZN7emilib27HashMapIiiSt4hashIiESt8equal_toIiEEixERKi
FN:685,_ZN7emilib27HashMapIiiSt4hashIiESt8equal_toIiEEixEOi
FNDA:11511,_ZN7emilib27HashMapIiiSt4hashIiESt8equal_toIiEEixEOi
FN:700,_ZN7emilib27HashMapIiiSt4hashIiESt8equal_toIiEE5eraseERKi
FNDA:31850,_ZN7emilib27HashMapIiiSt4hashIiESt8equal_toIiEE5eraseERKi
FN:711,_ZN7emilib27HashMapIiiSt4hashIiESt8equal_toIiEE5eraseENS5_8iteratorE
FNDA:84,_ZN7emilib27HashMapIiiSt4hashIiESt8equal_toIiEE5eraseENS5_8iteratorE
FN:713,_ZN7emilib27HashMapIiiSt4hashIiESt8equal_toIiEE6_eraseEj
FNDA:13009,_ZN7emilib27HashMapIiiSt4hashIiESt8equal_toIiEE6_eraseEj
FN:751,_ZN7emilib27HashMapIiiSt4hashIiESt8equal_toIiEE8erase_ifIZ13test_erase_ifIS5_EvPKcEUlRKT_E_EEjSA_
FNDA:1,_ZN7emilib27HashMapIiiSt4hashIiESt8equal_toIiEE8erase_ifIZ13test_erase_ifIS5_EvPKcEUlRKT_E_EEjSA_
FN:761,_ZN7emilib27HashMapIiiSt4hashIiESt8equal_toIiEE18need_explicit_dtorEv
FNDA:183809,_ZN7emilib27HashMapIiiSt4hashIiESt8equal_toIiEE18need_explicit_dtorEv
FN:769,_ZN7emilib27HashMapIiiSt4hashIiESt8equal_toIiEE21is_trivially_copyableEv
FNDA:1,_ZN7emilib27HashMapIiiSt4hashIiESt8equal_toIiEE21is_trivially_copyableEv
FN:777,_ZN7emilib27HashMapIiiSt4hashIiESt8equal_toIiEE10clear_metaEv
FNDA:1,_ZN7emilib27HashMapIiiSt4hashIiESt8equal_toIiEE10clear_metaEv
FN:783,_ZN7emilib27HashMapIiiSt4hashIiESt8equal_toIiEE10clear_dataEv
FNDA:44,_ZN7emilib27HashMapIiiSt4hashIiESt8equal_toIiEE10clear_dataEv
FN:794,_ZN7emilib27HashMapIiiSt4hashIiESt8equal_toIiEE5clearEv
FNDA:2,_ZN7emilib27HashMapIiiSt4hashIiESt8equal_toIiEE5clearEv
FN:801,_ZN7emilib27HashMapIiiSt4hashIiESt8equal_toIiEE13shrink_to_fitEv
FNDA:1,_ZN7emilib27HashMapIiiSt4hashIiESt8equal_toIiEE13shrink_to_fitEv
FN:833,_ZN7emilib27HashMapIiiSt4hashIiESt8equal_toIiEE6rehashEm
FNDA:186,_ZN7emilib27HashMapIiiSt4hashIiESt8equal_toIiEE6rehashEm
FN:908,_ZN7emilib27HashMapIiiSt4hashIiESt8equal_toIiEE19prefetch_heap_blockEPc
FNDA:538196,_ZN7emilib27HashMapIiiSt4hashIiESt8equal_toIiEE19prefetch_heap_blockEPc
FN:920,_ZNK7emilib27HashMapIiiSt4hashIiESt8equal_toIiEE10get_offsetEj
FNDA:199912,_ZNK7emilib27HashMapIiiSt4hashIiESt8equal_toIiEE10get_offsetEj
FN:928,_ZN7emilib27HashMapIiiSt4hashIiESt8equal_toIiEE10set_offsetEjj
FNDA:897,_ZN7emilib27HashMapIiiSt4hashIiESt8equal_toIiEE10set_offsetEjj
FN:937,_ZN7emilib27HashMapIiiSt4hashIiESt8equal_toIiEE10set_statesEja
FNDA:339261,_ZN7emilib27HashMapIiiSt4hashIiESt8equal_toIiEE10set_statesEja
FN:939,_ZNK7emilib27HashMapIiiSt4hashIiESt8equal_toIiEE15get_next_bucketEjj
FNDA:23133,_ZNK7emilib27HashMapIiiSt4hashIiESt8equal_toIiEE15get_next_bucketEjj
FN:962,_ZNK7emilib27HashMapIiiSt4hashIiESt8equal_toIiEE18find_filled_bucketIiEEjRKT_
FNDA:250313,_ZNK7emilib27HashMapIiiSt4hashIiESt8equal_toIiEE18find_filled_bucketIiEEjRKT_
FN:1015,_ZN7emilib27HashMapIiiSt4hashIiESt8equal_toIiEE16find_or_allocateIiEEjRKT_Rb
FNDA:169336,_ZN7emilib27HashMapIiiSt4hashIiESt8equal_toIiEE16find_or_allocateIiEEjRKT_Rb
FN:1069,_ZNK7emilib27HashMapIiiSt4hashIiESt8equal_toIiEE12empty_deleteEj
FNDA:174071,_ZNK7emilib27HashMapIiiSt4hashIiESt8equal_toIiEE12empty_deleteEj
FN:1079,_ZNK7emilib27HashMapIiiSt4hashIiESt8equal_toIiEE11filled_maskEj
FNDA:374,_ZNK7emilib27HashMapIiiSt4hashIiESt8equal_toIiEE11filled_maskEj
FN:1089,_ZN7emilib27HashMapIiiSt4hashIiESt8equal_toIiEE15find_empty_slotEjjj
FNDA:171390,_ZN7emilib27HashMapIiiSt4hashIiESt8equal_toIiEE15find_empty_slotEjjj
FN:1105,_ZNK7emilib27HashMapIiiSt4hashIiESt8equal_toIiEE15find_first_slotEj
FNDA:11,_ZNK7emilib27HashMapIiiSt4hashIiESt8equal_toIiEE15find_first_slotEj
DA:130,538359
DA:135,538359
DA:138,538359
DA:170,590321
DA:171,590321
DA:172,590257
DA:173,590257
DA:191,328106
DA:192,328106
DA:193,328106
DA:194,328106
DA:197,3
DA:198,3
DA:199,3
DA:200,3
DA:201,3
DA:202,3
DA:204,0
DA:206,3
DA:210,100
DA:212,199
DA:214,199
DA:215,2
DA:217,199
DA:218,199
DA:221,50
DA:223,50
DA:224,1
DA:226,50
DA:227,50
DA:228,50
DA:231,149
DA:232,149186
DA:234,141696
DA:235,25105
DA:240,249
DA:241,249
DA:242,249
DA:243,231
DA:244,231
DA:248,20
DA:249,20
DA:251,18
DA:272,618
DA:274,618
DA:275,618
DA:276,618
DA:277,618
DA:278,307
DA:279,307
DA:281,311
DA:283,618
DA:285,0
DA:289,400
DA:290,400
DA:291,400
DA:300,0
DA:301,1106
DA:305,302
DA:306,407
DA:309,400
DA:310,400
DA:311,400
DA:312,373
DA:313,373
DA:317,30
DA:318,30
DA:320,27
DA:331,38
DA:332,38
DA:333,38
DA:334,38
DA:336,1
DA:337,1
DA:338,1
DA:339,1
DA:341,1
DA:342,1
DA:343,1
DA:344,1
DA:346,1
DA:348,1
DA:349,1
DA:350,4
DA:351,3
DA:352,1
DA:354,1
DA:355,1
DA:356,51
DA:357,50
DA:358,1
DA:366,1
DA:367,1
DA:368,1
DA:369,1
DA:371,1
DA:374,42
DA:375,42
DA:376,42
DA:377,42
DA:378,0
DA:379,42
DA:380,42
DA:382,1
DA:383,1
DA:384,0
DA:385,0
DA:388,1
DA:390,1
DA:391,1
DA:392,0
DA:393,1
DA:394,1
DA:397,1
DA:398,0
DA:399,0
DA:400,0
DA:403,1
DA:404,1
DA:406,0
DA:407,0
DA:410,1
DA:411,1
DA:412,1
DA:413,1
DA:414,1
DA:417,3
DA:418,3
DA:419,3
DA:420,3
DA:421,3
DA:422,3
DA:423,3
DA:424,3
DA:425,3
DA:426,3
DA:427,3
DA:431,4
DA:433,7
DA:435,7
DA:437,166835
DA:439,309
DA:441,309
DA:443,49
DA:445,16
DA:448,626
DA:451,3
DA:453,2
DA:460,189
DA:461,1
DA:465,168327
DA:467,302
DA:468,302
DA:471,50907
DA:472,50907
DA:475,1
DA:476,1
DA:503,1
DA:504,1
DA:505,0
DA:507,101
DA:508,100
DA:509,100
DA:510,0
DA:512,1
DA:503,7
DA:504,7
DA:505,1
DA:507,306
DA:508,302
DA:509,302
DA:510,2
DA:512,4
DA:515,4
DA:517,2
DA:518,2
DA:519,1
DA:520,1
DA:523,101
DA:524,100
DA:525,100
DA:526,50
DA:527,50
DA:529,50
DA:539,4
DA:540,4
DA:541,4
DA:543,4
DA:544,2
DA:545,2
DA:547,4
DA:550,6
DA:551,6
DA:552,6
DA:553,6
DA:554,6
DA:555,6
DA:557,6
DA:560,52
DA:561,52
DA:562,52
DA:563,52
DA:564,51
DA:565,51
DA:567,52
DA:570,2
DA:571,2
DA:574,52
DA:576,3
DA:597,2
DA:599,2
DA:602,1
DA:603,1
DA:604,4
DA:605,3
DA:606,1
DA:608,50
DA:609,50
DA:610,50
DA:611,1
DA:614,50
DA:615,50
DA:616,50
DA:618,50
DA:619,50
DA:620,50
DA:621,50
DA:639,2
DA:640,2
DA:643,2
DA:644,2
DA:645,2
DA:648,2
DA:649,1
DA:650,1
DA:652,1
DA:655,2
DA:658,2
DA:661,2
DA:662,2
DA:664,2
DA:665,1
DA:666,1
DA:668,1
DA:670,2
DA:673,157759
DA:674,157759
DA:675,157759
DA:677,157759
DA:678,144775
DA:679,144775
DA:682,157759
DA:685,11511
DA:686,11511
DA:687,11511
DA:688,11511
DA:689,10797
DA:690,10797
DA:693,11511
DA:700,31850
DA:701,31850
DA:702,31850
DA:703,18925
DA:705,12925
DA:706,12925
DA:711,84
DA:713,13009
DA:714,13009
DA:715,13009
DA:716,0
DA:721,13009
DA:740,13009
DA:751,1
DA:752,1
DA:753,100
DA:754,99
DA:755,34
DA:756,99
DA:758,1
DA:761,183809
DA:763,183809
DA:769,1
DA:771,1
DA:777,1
DA:778,1
DA:779,1
DA:780,1
DA:781,1
DA:783,44
DA:784,44
DA:785,0
DA:786,0
DA:787,0
DA:788,0
DA:791,44
DA:794,2
DA:795,2
DA:796,1
DA:797,1
DA:799,2
DA:801,1
DA:833,186
DA:834,186
DA:835,0
DA:842,186
DA:843,757
DA:844,571
DA:847,186
DA:848,186
DA:850,186
DA:851,0
DA:853,186
DA:854,186
DA:855,186
DA:856,186
DA:858,186
DA:859,186
DA:860,186
DA:862,186
DA:863,186
DA:864,186
DA:866,186
DA:867,186
DA:868,186
DA:869,186
DA:872,186
DA:874,186
DA:876,186
DA:880,186
DA:883,186
DA:884,0
DA:887,204208
DA:888,204022
DA:889,170569
DA:891,170569
DA:892,170569
DA:894,170569
DA:895,170569
DA:896,170569
DA:897,170569
DA:898,0
DA:901,186
DA:908,538196
DA:916,538196
DA:918,539084
DA:920,199912
DA:925,199912
DA:928,897
DA:933,897
DA:935,897
DA:937,339261
DA:939,23133
DA:943,23133
DA:944,21738
DA:948,1395
DA:958,23133
DA:962,250313
DA:964,250313
DA:967,249634
DA:969,249634
DA:970,249634
DA:973,499268
DA:974,249634
DA:975,249634
DA:976,195037
DA:978,192979
DA:979,194789
DA:980,194598
DA:981,276
DA:984,113178
DA:985,56589
DA:986,42764
DA:987,13825
DA:988,10217
DA:992,5755
DA:993,11510
DA:994,5755
DA:995,5755
DA:996,2099
DA:998,2102
DA:999,2102
DA:1000,2012
DA:1001,90
DA:1008,3743
DA:1010,1596
DA:1015,169336
DA:1016,169336
DA:1017,169336
DA:1018,140
DA:1021,169336
DA:1022,169336
DA:1023,169336
DA:1024,169336
DA:1025,169336
DA:1026,169336
DA:1029,355096
DA:1030,177548
DA:1033,177787
DA:1034,13942
DA:1035,13942
DA:1036,13703
DA:1037,13703
DA:1039,239
DA:1042,163845
DA:1044,327090
DA:1045,163545
DA:1046,149148
DA:1047,149148
DA:1048,149148
DA:1050,28794
DA:1051,14397
DA:1052,5738
DA:1056,14697
DA:1057,14697
DA:1059,6485
DA:1060,5714
DA:1061,5714
DA:1064,771
DA:1065,771
DA:1066,771
DA:1069,174071
DA:1074,174071
DA:1075,522213
DA:1079,374
DA:1084,374
DA:1085,1122
DA:1089,174071
DA:1091,174071
DA:1092,174071
DA:1093,171390
DA:1094,171390
DA:1095,171390
DA:1096,897
DA:1097,171390
DA:1099,2681
DA:1100,2681
DA:1105,14
DA:1106,3
DA:1107,14
DA:1108,14
DA:1109,11
DA:1110,3
end_of_record
SF:/mnt/d/emhash/include/emilib/emihmap1.hpp
FN:100,_ZN6emilibL3CTZEj
FNDA:577085,_ZN6emilibL3CTZEj
FN:141,_ZNK6emilib7HashMapIiiSt4hashIiESt8equal_toIiEE9hash_key2IiLa0EEEaRjRKT_
FNDA:586663,_ZNK6emilib7HashMapIiiSt4hashIiESt8equal_toIiEE9hash_key2IiLa0EEEaRjRKT_
FN:166,_ZN6emilib7HashMapIiiSt4hashIiESt8equal_toIiEE8iteratorC2EPKS5_j
FNDA:167073,_ZN6emilib7HashMapIiiSt4hashIiESt8equal_toIiEE8iteratorC2EPKS5_j
FN:167,_ZN6emilib7HashMapIiiSt4hashIiESt8equal_toIiEE8iteratorC2EPKS5_jb
FNDA:165517,_ZN6emilib7HashMapIiiSt4hashIiESt8equal_toIiEE8iteratorC2EPKS5_jb
FN:169,_ZN6emilib7HashMapIiiSt4hashIiESt8equal_toIiEE8iterator4initEv
FNDA:167235,_ZN6emilib7HashMapIiiSt4hashIiESt8equal_toIiEE8iterator4initEv
FN:182,_ZNK6emilib7HashMapIiiSt4hashIiESt8equal_toIiEE8iterator6bucketEv
FNDA:100,_ZNK6emilib7HashMapIiiSt4hashIiESt8equal_toIiEE8iterator6bucketEv
FN:184,_ZN6emilib7HashMapIiiSt4hashIiESt8equal_toIiEE8iteratorppEv
FNDA:200,_ZN6emilib7HashMapIiiSt4hashIiESt8equal_toIiEE8iteratorppEv
FN:189,_ZN6emilib7HashMapIiiSt4hashIiESt8equal_toIiEE8iteratorppEi
FNDA:50,_ZN6emilib7HashMapIiiSt4hashIiESt8equal_toIiEE8iteratorppEi
FN:195,_ZNK6emilib7HashMapIiiSt4hashIiESt8equal_toIiEE8iteratordeEv
FNDA:150,_ZNK6emilib7HashMapIiiSt4hashIiESt8equal_toIiEE8iteratordeEv
FN:196,_ZNK6emilib7HashMapIiiSt4hashIiESt8equal_toIiEE8iteratorptEv
FNDA:147515,_ZNK6emilib7HashMapIiiSt4hashIiESt8equal_toIiEE8iteratorptEv
FN:198,_ZNK6emilib7HashMapIiiSt4hashIiESt8equal_toIiEE8iteratoreqERKS6_
FNDA:139978,_ZNK6emilib7HashMapIiiSt4hashIiESt8equal_toIiEE8iteratoreqERKS6_
FN:199,_ZNK6emilib7HashMapIiiSt4hashIiESt8equal_toIiEE8iteratorneERKS6_
FNDA:25106,_ZNK6emilib7HashMapIiiSt4hashIiESt8equal_toIiEE8iteratorneERKS6_
FN:204,_ZN6emilib7HashMapIiiSt4hashIiESt8equal_toIiEE8iterator17goto_next_elementEv
FNDA:250,_ZN6emilib7HashMapIiiSt4hashIiESt8equal_toIiEE8iterator17goto_next_elementEv
FN:235,_ZN6emilib7HashMapIiiSt4hashIiESt8equal_toIiEE14const_iteratorC2EPKS5_j
FNDA:305,_ZN6emilib7HashMapIiiSt4hashIiESt8equal_toIiEE14const_iteratorC2EPKS5_j
FN:236,_ZN6emilib7HashMapIiiSt4hashIiESt8equal_toIiEE14const_iteratorC2EPKS5_jb
FNDA:305,_ZN6emilib7HashMapIiiSt4hashIiESt8equal_toIiEE14const_iteratorC2EPKS5_jb
FN:240,_ZN6emilib7HashMapIiiSt4hashIiESt8equal_toIiEE14const_iterator4initEv
FNDA:305,_ZN6emilib7HashMapIiiSt4hashIiESt8equal_toIiEE14const_iterator4initEv
FN:251,_ZNK6emilib7HashMapIiiSt4hashIiESt8equal_toIiEE14const_iterator6bucketEv
FNDA:0,_ZNK6emilib7HashMapIiiSt4hashIiESt8equal_toIiEE14const_iterator6bucketEv
FN:255,_ZN6emilib7HashMapIiiSt4hashIiESt8equal_toIiEE14const_iteratorppEv
FNDA:396,_ZN6emilib7HashMapIiiSt4hashIiESt8equal_toIiEE14const_iteratorppEv
FN:266,_ZNK6emilib7HashMapIiiSt4hashIiESt8equal_toIiEE14const_iteratordeEv
FNDA:0,_ZNK6emilib7HashMapIiiSt4hashIiESt8equal_toIiEE14const_iteratordeEv
FN:267,_ZNK6emilib7HashMapIiiSt4hashIiESt8equal_toIiEE14const_iteratorptEv
FNDA:1094,_ZNK6emilib7HashMapIiiSt4hashIiESt8equal_toIiEE14const_iteratorptEv
FN:271,_ZNK6emilib7HashMapIiiSt4hashIiESt8equal_toIiEE14const_iteratoreqERKS6_
FNDA:298,_ZNK6emilib7HashMapIiiSt4hashIiESt8equal_toIiEE14const_iteratoreqERKS6_
FN:272,_ZNK6emilib7HashMapIiiSt4hashIiESt8equal_toIiEE14const_iteratorneERKS6_
FNDA:403,_ZNK6emilib7HashMapIiiSt4hashIiESt8equal_toIiEE14const_iteratorneERKS6_
FN:275,_ZN6emilib7HashMapIiiSt4hashIiESt8equal_toIiEE14const_iterator17goto_next_elementEv
FNDA:396,_ZN6emilib7HashMapIiiSt4hashIiESt8equal_toIiEE14const_iterator17goto_next_elementEv
FN:297,_ZN6emilib7HashMapIiiSt4hashIiESt8equal_toIiEEC2Ej
FNDA:38,_ZN6emilib7HashMapIiiSt4hashIiESt8equal_toIiEEC2Ej
FN:299,_ZN6emilib7HashMapIiiSt4hashIiESt8equal_toIiEEC2ERKS5_
FNDA:1,_ZN6emilib7HashMapIiiSt4hashIiESt8equal_toIiEEC2ERKS5_
FN:304,_ZN6emilib7HashMapIiiSt4hashIiESt8equal_toIiEEC2EOS5_
FNDA:1,_ZN6emilib7HashMapIiiSt4hashIiESt8equal_toIiEEC2EOS5_
FN:311,_ZN6emilib7HashMapIiiSt4hashIiESt8equal_toIiEEC2ESt16initializer_listISt4pairIKiiEE
FNDA:1,_ZN6emilib7HashMapIiiSt4hashIiESt8equal_toIiEEC2ESt16initializer_listISt4pairIKiiEE
FN:317,_ZN6emilib7HashMapIiiSt4hashIiESt8equal_toIiEEC2IN9__gnu_cxx17__normal_iteratorIPSt4pairIiiESt6vectorISA_SaISA_EEEEEET_SG_j
FNDA:1,_ZN6emilib7HashMapIiiSt4hashIiESt8equal_toIiEEC2IN9__gnu_cxx17__normal_iteratorIPSt4pairIiiESt6vectorISA_SaISA_EEEEEET_SG_j
FN:329,_ZN6emilib7HashMapIiiSt4hashIiESt8equal_toIiEEaSEOS5_
FNDA:1,_ZN6emilib7HashMapIiiSt4hashIiESt8equal_toIiEEaSEOS5_
FN:337,_ZN6emilib7HashMapIiiSt4hashIiESt8equal_toIiEED2Ev
FNDA:42,_ZN6emilib7HashMapIiiSt4hashIiESt8equal_toIiEED2Ev
FN:344,_ZN6emilib7HashMapIiiSt4hashIiESt8equal_toIiEE5cloneERKS5_
FNDA:1,_ZN6emilib7HashMapIiiSt4hashIiESt8equal_toIiEE5cloneERKS5_
FN:371,_ZN6emilib7HashMapIiiSt4hashIiESt8equal_toIiEE4swapERS5_
FNDA:3,_ZN6emilib7HashMapIiiSt4hashIiESt8equal_toIiEE4swapERS5_
FN:383,_ZN6emilib7HashMapIiiSt4hashIiESt8equal_toIiEE5beginEv
FNDA:4,_ZN6emilib7HashMapIiiSt4hashIiESt8equal_toIiEE5beginEv
FN:385,_ZNK6emilib7HashMapIiiSt4hashIiESt8equal_toIiEE6cbeginEv
FNDA:7,_ZNK6emilib7HashMapIiiSt4hashIiESt8equal_toIiEE6cbeginEv
FN:387,_ZNK6emilib7HashMapIiiSt4hashIiESt8equal_toIiEE5beginEv
FNDA:7,_ZNK6emilib7HashMapIiiSt4hashIiESt8equal_toIiEE5beginEv
FN:389,_ZN6emilib7HashMapIiiSt4hashIiESt8equal_toIiEE3endEv
FNDA:164884,_ZN6emilib7HashMapIiiSt4hashIiESt8equal_toIiEE3endEv
FN:391,_ZNK6emilib7HashMapIiiSt4hashIiESt8equal_toIiEE4cendEv
FNDA:305,_ZNK6emilib7HashMapIiiSt4hashIiESt8equal_toIiEE4cendEv
FN:393,_ZNK6emilib7HashMapIiiSt4hashIiESt8equal_toIiEE3endEv
FNDA:305,_ZNK6emilib7HashMapIiiSt4hashIiESt8equal_toIiEE3endEv
FN:395,_ZNK6emilib7HashMapIiiSt4hashIiESt8equal_toIiEE4sizeEv
FNDA:49,_ZNK6emilib7HashMapIiiSt4hashIiESt8equal_toIiEE4sizeEv
FN:397,_ZNK6emilib7HashMapIiiSt4hashIiESt8equal_toIiEE5emptyEv
FNDA:16,_ZNK6emilib7HashMapIiiSt4hashIiESt8equal_toIiEE5emptyEv
FN:400,_ZNK6emilib7HashMapIiiSt4hashIiESt8equal_toIiEE12bucket_countEv
FNDA:167819,_ZNK6emilib7HashMapIiiSt4hashIiESt8equal_toIiEE12bucket_countEv
FN:403,_ZNK6emilib7HashMapIiiSt4hashIiESt8equal_toIiEE11load_factorEv
FNDA:3,_ZNK6emilib7HashMapIiiSt4hashIiESt8equal_toIiEE11load_factorEv
FN:407,_ZN6emilib7HashMapIiiSt4hashIiESt8equal_toIiEE15max_load_factorEf
FNDA:2,_ZN6emilib7HashMapIiiSt4hashIiESt8equal_toIiEE15max_load_factorEf
FN:412,_ZNK6emilib7HashMapIiiSt4hashIiESt8equal_toIiEE8max_sizeEv
FNDA:3,_ZNK6emilib7HashMapIiiSt4hashIiESt8equal_toIiEE8max_sizeEv
FN:413,_ZNK6emilib7HashMapIiiSt4hashIiESt8equal_toIiEE16max_bucket_countEv
FNDA:1,_ZNK6emilib7HashMapIiiSt4hashIiESt8equal_toIiEE16max_bucket_countEv
FN:417,_ZN6emilib7HashMapIiiSt4hashIiESt8equal_toIiEE4findIiEENS5_8iteratorERKT_
FNDA:166827,_ZN6emilib7HashMapIiiSt4hashIiESt8equal_toIiEE4findIiEENS5_8iteratorERKT_
FN:419,_ZNK6emilib7HashMapIiiSt4hashIiESt8equal_toIiEE4findIiEENS5_14const_iteratorERKT_
FNDA:298,_ZNK6emilib7HashMapIiiSt4hashIiESt8equal_toIiEE4findIiEENS5_14const_iteratorERKT_
FN:423,_ZNK6emilib7HashMapIiiSt4hashIiESt8equal_toIiEE8containsIiEEbRKT_
FNDA:50907,_ZNK6emilib7HashMapIiiSt4hashIiESt8equal_toIiEE8containsIiEEbRKT_
FN:427,_ZNK6emilib7HashMapIiiSt4hashIiESt8equal_toIiEE5countIiEEjRKT_
FNDA:1,_ZNK6emilib7HashMapIiiSt4hashIiESt8equal_toIiEE5countIiEEjRKT_
FN:463,_ZNK6emilib7HashMapIiiSt4hashIiESt8equal_toIiEEeqISt13unordered_mapIiiS2_S4_SaISt4pairIKiiEEEEEbRKT_
FNDA:1,_ZNK6emilib7HashMapIiiSt4hashIiESt8equal_toIiEEeqISt13unordered_mapIiiS2_S4_SaISt4pairIKiiEEEEEbRKT_
FN:463,_ZNK6emilib7HashMapIiiSt4hashIiESt8equal_toIiEEeqIS5_EEbRKT_
FNDA:7,_ZNK6emilib7HashMapIiiSt4hashIiESt8equal_toIiEEeqIS5_EEbRKT_
FN:475,_ZNK6emilib7HashMapIiiSt4hashIiESt8equal_toIiEEneIS5_EEbRKT_
FNDA:4,_ZNK6emilib7HashMapIiiSt4hashIiESt8equal_toIiEEneIS5_EEbRKT_
FN:477,_ZN6emilib7HashMapIiiSt4hashIiESt8equal_toIiEE5mergeERS5_
FNDA:2,_ZN6emilib7HashMapIiiSt4hashIiESt8equal_toIiEE5mergeERS5_
FN:499,_ZN6emilib7HashMapIiiSt4hashIiESt8equal_toIiEE9do_insertIiiEESt4pairINS5_8iteratorEbEOT_OT0_
FNDA:4,_ZN6emilib7HashMapIiiSt4hashIiESt8equal_toIiEE9do_insertIiiEESt4pairINS5_8iteratorEbEOT_OT0_
FN:510,_ZN6emilib7HashMapIiiSt4hashIiESt8equal_toIiEE9do_insertERKSt4pairIKiiE
FNDA:6,_ZN6emilib7HashMapIiiSt4hashIiESt8equal_toIiEE9do_insertERKSt4pairIKiiE
FN:521,_ZN6emilib7HashMapIiiSt4hashIiESt8equal_toIiEE9do_insertEOSt4pairIKiiE
FNDA:52,_ZN6emilib7HashMapIiiSt4hashIiESt8equal_toIiEE9do_insertEOSt4pairIKiiE
FN:532,_ZN6emilib7HashMapIiiSt4hashIiESt8equal_toIiEE7emplaceIJiiEEESt4pairINS5_8iteratorEbEDpOT_
FNDA:2,_ZN6emilib7HashMapIiiSt4hashIiESt8equal_toIiEE7emplaceIJiiEEESt4pairINS5_8iteratorEbEDpOT_
FN:536,_ZN6emilib7HashMapIiiSt4hashIiESt8equal_toIiEE6insertEOSt4pairIKiiE
FNDA:52,_ZN6emilib7HashMapIiiSt4hashIiESt8equal_toIiEE6insertEOSt4pairIKiiE
FN:538,_ZN6emilib7HashMapIiiSt4hashIiESt8equal_toIiEE6insertERKSt4pairIKiiE
FNDA:3,_ZN6emilib7HashMapIiiSt4hashIiESt8equal_toIiEE6insertERKSt4pairIKiiE
FN:559,_ZN6emilib7HashMapIiiSt4hashIiESt8equal_toIiEE11try_emplaceIJiEEESt4pairINS5_8iteratorEbEOiDpOT_
FNDA:2,_ZN6emilib7HashMapIiiSt4hashIiESt8equal_toIiEE11try_emplaceIJiEEESt4pairINS5_8iteratorEbEOiDpOT_
FN:564,_ZN6emilib7HashMapIiiSt4hashIiESt8equal_toIiEE6insertESt16initializer_listISt4pairIKiiEE
FNDA:1,_ZN6emilib7HashMapIiiSt4hashIiESt8equal_toIiEE6insertESt16initializer_listISt4pairIKiiEE
FN:570,_ZN6emilib7HashMapIiiSt4hashIiESt8equal_toIiEE13insert_uniqueIRKiiEEjOT_OT0_
FNDA:50,_ZN6emilib7HashMapIiiSt4hashIiESt8equal_toIiEE13insert_uniqueIRKiiEEjOT_OT0_
FN:586,_ZN6emilib7HashMapIiiSt4hashIiESt8equal_toIiEE16insert_or_assignIiEESt4pairINS5_8iteratorEbEOiOT_
FNDA:2,_ZN6emilib7HashMapIiiSt4hashIiESt8equal_toIiEE16insert_or_assignIiEESt4pairINS5_8iteratorEbEOiOT_
FN:590,_ZN6emilib7HashMapIiiSt4hashIiESt8equal_toIiEE9do_assignIiiEESt4pairINS5_8iteratorEbEOT_OT0_
FNDA:2,_ZN6emilib7HashMapIiiSt4hashIiESt8equal_toIiEE9do_assignIiiEESt4pairINS5_8iteratorEbEOT_OT0_
FN:605,_ZN6emilib7HashMapIiiSt4hashIiESt8equal_toIiEE7set_getERKiS7_Ri
FNDA:2,_ZN6emilib7HashMapIiiSt4hashIiESt8equal_toIiEE7set_getERKiS7_Ri
FN:621,_ZN6emilib7HashMapIiiSt4hashIiESt8equal_toIiEEixERKi
FNDA:157759,_ZN6emilib7HashMapIiiSt4hashIiESt8equal_toIiEEixERKi
FN:634,_ZN6emilib7HashMapIiiSt4hashIiESt8equal_toIiEEixEOi
FNDA:11511,_ZN6emilib7HashMapIiiSt4hashIiESt8equal_toIiEEixEOi
FN:650,_ZN6emilib7HashMapIiiSt4hashIiESt8equal_toIiEE5eraseERKi
FNDA:31850,_ZN6emilib7HashMapIiiSt4hashIiESt8equal_toIiEE5eraseERKi
FN:661,_ZN6emilib7HashMapIiiSt4hashIiESt8equal_toIiEE5eraseENS5_8iteratorE
FNDA:84,_ZN6emilib7HashMapIiiSt4hashIiESt8equal_toIiEE5eraseENS5_8iteratorE
FN:663,_ZN6emilib7HashMapIiiSt4hashIiESt8equal_toIiEE6_eraseEj
FNDA:13009,_ZN6emilib7HashMapIiiSt4hashIiESt8equal_toIiEE6_eraseEj
FN:687,_ZN6emilib7HashMapIiiSt4hashIiESt8equal_toIiEE8erase_ifIZ13test_erase_ifIS5_EvPKcEUlRKT_E_EEjSA_
FNDA:1,_ZN6emilib7HashMapIiiSt4hashIiESt8equal_toIiEE8erase_ifIZ13test_erase_ifIS5_EvPKcEUlRKT_E_EEjSA_
FN:697,_ZN6emilib7HashMapIiiSt4hashIiESt8equal_toIiEE18need_explicit_dtorEv
FNDA:182270,_ZN6emilib7HashMapIiiSt4hashIiESt8equal_toIiEE18need_explicit_dtorEv
FN:705,_ZN6emilib7HashMapIiiSt4hashIiESt8equal_toIiEE21is_trivially_copyableEv
FNDA:1,_ZN6emilib7HashMapIiiSt4hashIiESt8equal_toIiEE21is_trivially_copyableEv
FN:713,_ZN6emilib7HashMapIiiSt4hashIiESt8equal_toIiEE10clear_metaEv
FNDA:187,_ZN6emilib7HashMapIiiSt4hashIiESt8equal_toIiEE10clear_metaEv
FN:724,_ZN6emilib7HashMapIiiSt4hashIiESt8equal_toIiEE10clear_dataEv
FNDA:44,_ZN6emilib7HashMapIiiSt4hashIiESt8equal_toIiEE10clear_dataEv
FN:735,_ZN6emilib7HashMapIiiSt4hashIiESt8equal_toIiEE5clearEv
FNDA:2,_ZN6emilib7HashMapIiiSt4hashIiESt8equal_toIiEE5clearEv
FN:743,_ZN6emilib7HashMapIiiSt4hashIiESt8equal_toIiEE13shrink_to_fitEv
FNDA:1,_ZN6emilib7HashMapIiiSt4hashIiESt8equal_toIiEE13shrink_to_fitEv
FN:745,_ZN6emilib7HashMapIiiSt4hashIiESt8equal_toIiEE7reserveEj
FNDA:50,_ZN6emilib7HashMapIiiSt4hashIiESt8equal_toIiEE7reserveEj
FN:772,_ZN6emilib7HashMapIiiSt4hashIiESt8equal_toIiEE6rehashEj
FNDA:186,_ZN6emilib7HashMapIiiSt4hashIiESt8equal_toIiEE6rehashEj
FN:831,_ZN6emilib7HashMapIiiSt4hashIiESt8equal_toIiEE17check_expand_needEv
FNDA:50,_ZN6emilib7HashMapIiiSt4hashIiESt8equal_toIiEE17check_expand_needEv
FN:833,_ZN6emilib7HashMapIiiSt4hashIiESt8equal_toIiEE19prefetch_heap_blockEPc
FNDA:570565,_ZN6emilib7HashMapIiiSt4hashIiESt8equal_toIiEE19prefetch_heap_blockEPc
FN:843,_ZNK6emilib7HashMapIiiSt4hashIiESt8equal_toIiEE15group_has_emptyEj
FNDA:869847,_ZNK6emilib7HashMapIiiSt4hashIiESt8equal_toIiEE15group_has_emptyEj
FN:848,_ZNK6emilib7HashMapIiiSt4hashIiESt8equal_toIiEE11group_probeEj
FNDA:1195033,_ZNK6emilib7HashMapIiiSt4hashIiESt8equal_toIiEE11group_probeEj
FN:857,_ZN6emilib7HashMapIiiSt4hashIiESt8equal_toIiEE15set_group_probeEji
FNDA:187090,_ZN6emilib7HashMapIiiSt4hashIiESt8equal_toIiEE15set_group_probeEji
FN:865,_ZN6emilib7HashMapIiiSt4hashIiESt8equal_toIiEE10set_statesEja
FNDA:324900,_ZN6emilib7HashMapIiiSt4hashIiESt8equal_toIiEE10set_statesEja
FN:870,_ZNK6emilib7HashMapIiiSt4hashIiESt8equal_toIiEE15get_next_bucketEjj
FNDA:1249205,_ZNK6emilib7HashMapIiiSt4hashIiESt8equal_toIiEE15get_next_bucketEjj
FN:885,_ZNK6emilib7HashMapIiiSt4hashIiESt8equal_toIiEE18find_filled_bucketIiEEjRKT_
FNDA:247792,_ZNK6emilib7HashMapIiiSt4hashIiESt8equal_toIiEE18find_filled_bucketIiEEjRKT_
FN:913,_ZN6emilib7HashMapIiiSt4hashIiESt8equal_toIiEE16find_or_allocateIiEEjRKT_Rb
FNDA:169336,_ZN6emilib7HashMapIiiSt4hashIiESt8equal_toIiEE16find_or_allocateIiEEjRKT_Rb
FN:968,_ZNK6emilib7HashMapIiiSt4hashIiESt8equal_toIiEE12empty_deleteEj
FNDA:298141,_ZNK6emilib7HashMapIiiSt4hashIiESt8equal_toIiEE12empty_deleteEj
FN:973,_ZNK6emilib7HashMapIiiSt4hashIiESt8equal_toIiEE11filled_maskEj
FNDA:150205,_ZNK6emilib7HashMapIiiSt4hashIiESt8equal_toIiEE11filled_maskEj
FN:979,_ZN6emilib7HashMapIiiSt4hashIiESt8equal_toIiEE15find_empty_slotEjji
FNDA:187090,_ZN6emilib7HashMapIiiSt4hashIiESt8equal_toIiEE15find_empty_slotEjji
FN:994,_ZNK6emilib7HashMapIiiSt4hashIiESt8equal_toIiEE16find_filled_slotEj
FNDA:11,_ZNK6emilib7HashMapIiiSt4hashIiESt8equal_toIiEE16find_filled_slotEj
DA:100,577085
DA:105,577085
DA:108,577085
DA:141,586663
DA:142,586663
DA:143,587067
DA:144,587067
DA:145,587067
DA:166,167073
DA:167,165517
DA:169,167235
DA:170,167235
DA:171,167235
DA:172,166974
DA:173,149177
DA:174,150032
DA:176,17797
DA:178,167829
DA:182,100
DA:184,200
DA:185,200
DA:186,200
DA:189,50
DA:190,50
DA:191,50
DA:192,50
DA:195,150
DA:196,147515
DA:198,139978
DA:199,25106
DA:204,250
DA:205,250
DA:206,250
DA:207,232
DA:208,232
DA:212,20
DA:213,20
DA:215,18
DA:235,305
DA:236,305
DA:237,305
DA:238,305
DA:240,305
DA:241,305
DA:242,305
DA:243,305
DA:244,303
DA:245,303
DA:247,2
DA:249,305
DA:251,0
DA:255,396
DA:256,396
DA:257,396
DA:266,0
DA:267,1094
DA:271,298
DA:272,403
DA:275,396
DA:276,396
DA:277,396
DA:278,369
DA:279,369
DA:283,30
DA:284,30
DA:286,27
DA:297,38
DA:299,1
DA:300,1
DA:301,1
DA:302,1
DA:304,1
DA:305,1
DA:306,1
DA:307,1
DA:309,1
DA:311,1
DA:312,1
DA:313,4
DA:314,3
DA:315,1
DA:317,1
DA:318,1
DA:319,51
DA:320,50
DA:321,1
DA:329,1
DA:330,1
DA:331,1
DA:332,1
DA:334,1
DA:337,42
DA:338,42
DA:339,42
DA:340,42
DA:341,42
DA:342,42
DA:344,1
DA:345,1
DA:346,0
DA:347,0
DA:350,1
DA:352,1
DA:353,1
DA:354,1
DA:357,1
DA:358,1
DA:359,1
DA:361,0
DA:362,0
DA:365,1
DA:367,1
DA:368,1
DA:371,3
DA:372,3
DA:373,3
DA:374,3
DA:375,3
DA:376,3
DA:377,3
DA:378,3
DA:379,3
DA:383,4
DA:385,7
DA:387,7
DA:389,164884
DA:391,305
DA:393,305
DA:395,49
DA:397,16
DA:400,167819
DA:403,3
DA:404,3
DA:407,2
DA:409,2
DA:412,3
DA:413,1
DA:417,166827
DA:419,298
DA:420,298
DA:423,50907
DA:424,50907
DA:427,1
DA:428,1
DA:463,1
DA:464,1
DA:465,0
DA:467,101
DA:468,100
DA:469,100
DA:470,0
DA:472,1
DA:463,7
DA:464,7
DA:465,1
DA:467,302
DA:468,298
DA:469,298
DA:470,2
DA:472,4
DA:475,4
DA:477,2
DA:478,2
DA:479,1
DA:480,1
DA:483,101
DA:484,100
DA:485,100
DA:486,50
DA:487,50
DA:489,50
DA:499,4
DA:500,4
DA:501,4
DA:502,4
DA:503,4
DA:504,2
DA:505,2
DA:507,4
DA:510,6
DA:511,6
DA:512,6
DA:513,6
DA:514,6
DA:515,6
DA:516,6
DA:518,6
DA:521,52
DA:522,52
DA:523,52
DA:524,52
DA:525,52
DA:526,51
DA:527,51
DA:529,52
DA:532,2
DA:533,2
DA:536,52
DA:538,3
DA:559,2
DA:561,2
DA:564,1
DA:565,1
DA:566,4
DA:567,3
DA:568,1
DA:570,50
DA:571,50
DA:574,50
DA:575,50
DA:577,50
DA:578,50
DA:579,50
DA:580,50
DA:586,2
DA:587,2
DA:590,2
DA:591,2
DA:592,2
DA:593,2
DA:595,2
DA:596,1
DA:597,1
DA:599,1
DA:602,2
DA:605,2
DA:608,2
DA:609,2
DA:610,2
DA:612,2
DA:613,1
DA:614,1
DA:616,1
DA:618,2
DA:621,157759
DA:622,157759
DA:623,157759
DA:624,157759
DA:626,157759
DA:627,144775
DA:628,144775
DA:631,157759
DA:634,11511
DA:635,11511
DA:636,11511
DA:637,11511
DA:638,11511
DA:639,10797
DA:640,10797
DA:643,11511
DA:650,31850
DA:651,31850
DA:652,31850
DA:653,18925
DA:655,12925
DA:656,12925
DA:661,84
DA:663,13009
DA:664,13009
DA:665,13009
DA:666,0
DA:667,0
DA:670,13009
DA:676,13009
DA:687,1
DA:688,1
DA:689,101
DA:690,100
DA:691,34
DA:692,100
DA:694,1
DA:697,182270
DA:699,182270
DA:705,1
DA:707,1
DA:713,187
DA:715,187
DA:717,187
DA:718,187
DA:719,25616
DA:720,25429
DA:721,187
DA:722,187
DA:724,44
DA:725,44
DA:726,0
DA:727,0
DA:728,0
DA:729,0
DA:732,44
DA:735,2
DA:736,2
DA:737,1
DA:738,1
DA:740,2
DA:741,2
DA:743,1
DA:745,50
DA:746,50
DA:747,50
DA:748,49
DA:750,1
DA:751,1
DA:772,186
DA:773,186
DA:774,186
DA:775,0
DA:782,186
DA:783,757
DA:784,571
DA:787,186
DA:788,186
DA:790,186
DA:791,186
DA:793,186
DA:794,186
DA:795,186
DA:796,186
DA:798,186
DA:799,186
DA:800,186
DA:801,186
DA:802,186
DA:805,186
DA:807,186
DA:810,204168
DA:811,203982
DA:812,169217
DA:815,169217
DA:816,169217
DA:817,169217
DA:818,169217
DA:819,169217
DA:820,169217
DA:821,169217
DA:822,0
DA:825,186
DA:826,186
DA:831,50
DA:833,570565
DA:839,570565
DA:841,571495
DA:843,869847
DA:844,869847
DA:845,869847
DA:848,1195033
DA:849,1195033
DA:854,1195033
DA:857,187090
DA:861,187090
DA:863,187090
DA:865,324900
DA:867,324900
DA:868,324900
DA:870,1249205
DA:872,1249205
DA:873,1176415
DA:875,72790
DA:881,1249205
DA:885,247792
DA:886,247792
DA:887,247792
DA:888,247288
DA:890,406276
DA:891,1307128
DA:892,653564
DA:893,653564
DA:894,215768
DA:896,213952
DA:897,213666
DA:898,213666
DA:899,197090
DA:900,17363
DA:903,455000
DA:904,54577
DA:905,412236
DA:913,169336
DA:914,169336
DA:915,169336
DA:916,140
DA:918,169336
DA:920,169336
DA:922,169336
DA:923,169336
DA:924,169336
DA:925,169336
DA:928,1750154
DA:929,875077
DA:932,898553
DA:933,37179
DA:934,37179
DA:935,37179
DA:936,13703
DA:937,13703
DA:939,23476
DA:942,861374
DA:944,1713676
DA:945,856838
DA:946,134785
DA:947,134785
DA:948,134785
DA:949,722053
DA:950,3110
DA:954,726589
DA:955,726589
DA:957,20848
DA:958,3025
DA:959,3025
DA:962,17823
DA:963,17823
DA:965,17823
DA:968,298141
DA:969,298141
DA:970,894423
DA:973,150205
DA:974,150205
DA:975,450615
DA:979,298141
DA:980,111051
DA:981,298141
DA:982,298141
DA:983,187090
DA:984,187090
DA:985,187090
DA:986,187090
DA:988,111051
DA:994,11
DA:995,11
DA:996,3
DA:998,0
DA:999,8
DA:1000,8
DA:1001,8
DA:1002,0
end_of_record
SF:/mnt/d/emhash/include/emilib/emihmap3.hpp
FN:122,_ZN7emilib3L3CTZEm
FNDA:537452,_ZN7emilib3L3CTZEm
FN:163,_ZNK7emilib37HashMapIiiSt4hashIiESt8equal_toIiEE9hash_key2IiLa0EEEaRjRKT_
FNDA:587632,_ZNK7emilib37HashMapIiiSt4hashIiESt8equal_toIiEE9hash_key2IiLa0EEEaRjRKT_
FN:188,_ZN7emilib37HashMapIiiSt4hashIiESt8equal_toIiEE8iteratorC2EPKS5_j
FNDA:321188,_ZN7emilib37HashMapIiiSt4hashIiESt8equal_toIiEE8iteratorC2EPKS5_j
FN:192,_ZN7emilib37HashMapIiiSt4hashIiESt8equal_toIiEE8iterator4initEv
FNDA:3,_ZN7emilib37HashMapIiiSt4hashIiESt8equal_toIiEE8iterator4initEv
FN:205,_ZNK7emilib37HashMapIiiSt4hashIiESt8equal_toIiEE8iterator6bucketEv
FNDA:100,_ZNK7emilib37HashMapIiiSt4hashIiESt8equal_toIiEE8iterator6bucketEv
FN:207,_ZN7emilib37HashMapIiiSt4hashIiESt8equal_toIiEE8iteratorppEv
FNDA:200,_ZN7emilib37HashMapIiiSt4hashIiESt8equal_toIiEE8iteratorppEv
FN:216,_ZN7emilib37HashMapIiiSt4hashIiESt8equal_toIiEE8iteratorppEi
FNDA:50,_ZN7emilib37HashMapIiiSt4hashIiESt8equal_toIiEE8iteratorppEi
FN:226,_ZNK7emilib37HashMapIiiSt4hashIiESt8equal_toIiEE8iteratordeEv
FNDA:150,_ZNK7emilib37HashMapIiiSt4hashIiESt8equal_toIiEE8iteratordeEv
FN:227,_ZNK7emilib37HashMapIiiSt4hashIiESt8equal_toIiEE8iteratorptEv
FNDA:146419,_ZNK7emilib37HashMapIiiSt4hashIiESt8equal_toIiEE8iteratorptEv
FN:229,_ZNK7emilib37HashMapIiiSt4hashIiESt8equal_toIiEE8iteratoreqERKS6_
FNDA:139457,_ZNK7emilib37HashMapIiiSt4hashIiESt8equal_toIiEE8iteratoreqERKS6_
FN:230,_ZNK7emilib37HashMapIiiSt4hashIiESt8equal_toIiEE8iteratorneERKS6_
FNDA:25106,_ZNK7emilib37HashMapIiiSt4hashIiESt8equal_toIiEE8iteratorneERKS6_
FN:235,_ZN7emilib37HashMapIiiSt4hashIiESt8equal_toIiEE8iterator17goto_next_elementEv
FNDA:250,_ZN7emilib37HashMapIiiSt4hashIiESt8equal_toIiEE8iterator17goto_next_elementEv
FN:266,_ZN7emilib37HashMapIiiSt4hashIiESt8equal_toIiEE14const_iteratorC2EPKS5_j
FNDA:622,_ZN7emilib37HashMapIiiSt4hashIiESt8equal_toIiEE14const_iteratorC2EPKS5_j
FN:268,_ZN7emilib37HashMapIiiSt4hashIiESt8equal_toIiEE14const_iterator4initEv
FNDA:622,_ZN7emilib37HashMapIiiSt4hashIiESt8equal_toIiEE14const_iterator4initEv
FN:279,_ZNK7emilib37HashMapIiiSt4hashIiESt8equal_toIiEE14const_iterator6bucketEv
FNDA:0,_ZNK7emilib37HashMapIiiSt4hashIiESt8equal_toIiEE14const_iterator6bucketEv
FN:283,_ZN7emilib37HashMapIiiSt4hashIiESt8equal_toIiEE14const_iteratorppEv
FNDA:402,_ZN7emilib37HashMapIiiSt4hashIiESt8equal_toIiEE14const_iteratorppEv
FN:294,_ZNK7emilib37HashMapIiiSt4hashIiESt8equal_toIiEE14const_iteratordeEv
FNDA:0,_ZNK7emilib37HashMapIiiSt4hashIiESt8equal_toIiEE14const_iteratordeEv
FN:295,_ZNK7emilib37HashMapIiiSt4hashIiESt8equal_toIiEE14const_iteratorptEv
FNDA:1112,_ZNK7emilib37HashMapIiiSt4hashIiESt8equal_toIiEE14const_iteratorptEv
FN:299,_ZNK7emilib37HashMapIiiSt4hashIiESt8equal_toIiEE14const_iteratoreqERKS6_
FNDA:304,_ZNK7emilib37HashMapIiiSt4hashIiESt8equal_toIiEE14const_iteratoreqERKS6_
FN:300,_ZNK7emilib37HashMapIiiSt4hashIiESt8equal_toIiEE14const_iteratorneERKS6_
FNDA:409,_ZNK7emilib37HashMapIiiSt4hashIiESt8equal_toIiEE14const_iteratorneERKS6_
FN:303,_ZN7emilib37HashMapIiiSt4hashIiESt8equal_toIiEE14const_iterator17goto_next_elementEv
FNDA:402,_ZN7emilib37HashMapIiiSt4hashIiESt8equal_toIiEE14const_iterator17goto_next_elementEv
FN:325,_ZN7emilib37HashMapIiiSt4hashIiESt8equal_toIiEEC2Ejf
FNDA:38,_ZN7emilib37HashMapIiiSt4hashIiESt8equal_toIiEEC2Ejf
FN:330,_ZN7emilib37HashMapIiiSt4hashIiESt8equal_toIiEEC2ERKS5_
FNDA:1,_ZN7emilib37HashMapIiiSt4hashIiESt8equal_toIiEEC2ERKS5_
FN:335,_ZN7emilib37HashMapIiiSt4hashIiESt8equal_toIiEEC2EOS5_
FNDA:1,_ZN7emilib37HashMapIiiSt4hashIiESt8equal_toIiEEC2EOS5_
FN:342,_ZN7emilib37HashMapIiiSt4hashIiESt8equal_toIiEEC2ESt16initializer_listISt4pairIKiiEE
FNDA:1,_ZN7emilib37HashMapIiiSt4hashIiESt8equal_toIiEEC2ESt16initializer_listISt4pairIKiiEE
FN:348,_ZN7emilib37HashMapIiiSt4hashIiESt8equal_toIiEEC2IN9__gnu_cxx17__normal_iteratorIPSt4pairIiiESt6vectorISA_SaISA_EEEEEET_SG_j
FNDA:1,_ZN7emilib37HashMapIiiSt4hashIiESt8equal_toIiEEC2IN9__gnu_cxx17__normal_iteratorIPSt4pairIiiESt6vectorISA_SaISA_EEEEEET_SG_j
FN:360,_ZN7emilib37HashMapIiiSt4hashIiESt8equal_toIiEEaSEOS5_
FNDA:1,_ZN7emilib37HashMapIiiSt4hashIiESt8equal_toIiEEaSEOS5_
FN:368,_ZN7emilib37HashMapIiiSt4hashIiESt8equal_toIiEED2Ev
FNDA:42,_ZN7emilib37HashMapIiiSt4hashIiESt8equal_toIiEED2Ev
FN:375,_ZN7emilib37HashMapIiiSt4hashIiESt8equal_toIiEE5cloneERKS5_
FNDA:1,_ZN7emilib37HashMapIiiSt4hashIiESt8equal_toIiEE5cloneERKS5_
FN:402,_ZN7emilib37HashMapIiiSt4hashIiESt8equal_toIiEE4swapERS5_
FNDA:3,_ZN7emilib37HashMapIiiSt4hashIiESt8equal_toIiEE4swapERS5_
FN:416,_ZN7emilib37HashMapIiiSt4hashIiESt8equal_toIiEE5beginEv
FNDA:4,_ZN7emilib37HashMapIiiSt4hashIiESt8equal_toIiEE5beginEv
FN:418,_ZNK7emilib37HashMapIiiSt4hashIiESt8equal_toIiEE6cbeginEv
FNDA:7,_ZNK7emilib37HashMapIiiSt4hashIiESt8equal_toIiEE6cbeginEv
FN:420,_ZNK7emilib37HashMapIiiSt4hashIiESt8equal_toIiEE5beginEv
FNDA:7,_ZNK7emilib37HashMapIiiSt4hashIiESt8equal_toIiEE5beginEv
FN:422,_ZN7emilib37HashMapIiiSt4hashIiESt8equal_toIiEE3endEv
FNDA:164570,_ZN7emilib37HashMapIiiSt4hashIiESt8equal_toIiEE3endEv
FN:424,_ZNK7emilib37HashMapIiiSt4hashIiESt8equal_toIiEE4cendEv
FNDA:311,_ZNK7emilib37HashMapIiiSt4hashIiESt8equal_toIiEE4cendEv
FN:426,_ZNK7emilib37HashMapIiiSt4hashIiESt8equal_toIiEE3endEv
FNDA:311,_ZNK7emilib37HashMapIiiSt4hashIiESt8equal_toIiEE3endEv
FN:428,_ZNK7emilib37HashMapIiiSt4hashIiESt8equal_toIiEE4sizeEv
FNDA:49,_ZNK7emilib37HashMapIiiSt4hashIiESt8equal_toIiEE4sizeEv
FN:430,_ZNK7emilib37HashMapIiiSt4hashIiESt8equal_toIiEE5emptyEv
FNDA:16,_ZNK7emilib37HashMapIiiSt4hashIiESt8equal_toIiEE5emptyEv
FN:433,_ZNK7emilib37HashMapIiiSt4hashIiESt8equal_toIiEE12bucket_countEv
FNDA:630,_ZNK7emilib37HashMapIiiSt4hashIiESt8equal_toIiEE12bucket_countEv
FN:436,_ZNK7emilib37HashMapIiiSt4hashIiESt8equal_toIiEE11load_factorEv
FNDA:3,_ZNK7emilib37HashMapIiiSt4hashIiESt8equal_toIiEE11load_factorEv
FN:438,_ZNK7emilib37HashMapIiiSt4hashIiESt8equal_toIiEE15max_load_factorEv
FNDA:2,_ZNK7emilib37HashMapIiiSt4hashIiESt8equal_toIiEE15max_load_factorEv
FN:445,_ZNK7emilib37HashMapIiiSt4hashIiESt8equal_toIiEE8max_sizeEv
FNDA:189,_ZNK7emilib37HashMapIiiSt4hashIiESt8equal_toIiEE8max_sizeEv
FN:446,_ZNK7emilib37HashMapIiiSt4hashIiESt8equal_toIiEE16max_bucket_countEv
FNDA:1,_ZNK7emilib37HashMapIiiSt4hashIiESt8equal_toIiEE16max_bucket_countEv
FN:450,_ZN7emilib37HashMapIiiSt4hashIiESt8equal_toIiEE4findIiEENS5_8iteratorERKT_
FNDA:164998,_ZN7emilib37HashMapIiiSt4hashIiESt8equal_toIiEE4findIiEENS5_8iteratorERKT_
FN:452,_ZNK7emilib37HashMapIiiSt4hashIiESt8equal_toIiEE4findIiEENS5_14const_iteratorERKT_
FNDA:304,_ZNK7emilib37HashMapIiiSt4hashIiESt8equal_toIiEE4findIiEENS5_14const_iteratorERKT_
FN:456,_ZNK7emilib37HashMapIiiSt4hashIiESt8equal_toIiEE8containsIiEEbRKT_
FNDA:50907,_ZNK7emilib37HashMapIiiSt4hashIiESt8equal_toIiEE8containsIiEEbRKT_
FN:460,_ZNK7emilib37HashMapIiiSt4hashIiESt8equal_toIiEE5countIiEEjRKT_
FNDA:1,_ZNK7emilib37HashMapIiiSt4hashIiESt8equal_toIiEE5countIiEEjRKT_
FN:488,_ZNK7emilib37HashMapIiiSt4hashIiESt8equal_toIiEEeqISt13unordered_mapIiiS2_S4_SaISt4pairIKiiEEEEEbRKT_
FNDA:1,_ZNK7emilib37HashMapIiiSt4hashIiESt8equal_toIiEEeqISt13unordered_mapIiiS2_S4_SaISt4pairIKiiEEEEEbRKT_
FN:488,_ZNK7emilib37HashMapIiiSt4hashIiESt8equal_toIiEEeqIS5_EEbRKT_
FNDA:7,_ZNK7emilib37HashMapIiiSt4hashIiESt8equal_toIiEEeqIS5_EEbRKT_
FN:500,_ZNK7emilib37HashMapIiiSt4hashIiESt8equal_toIiEEneIS5_EEbRKT_
FNDA:4,_ZNK7emilib37HashMapIiiSt4hashIiESt8equal_toIiEEneIS5_EEbRKT_
FN:502,_ZN7emilib37HashMapIiiSt4hashIiESt8equal_toIiEE5mergeERS5_
FNDA:2,_ZN7emilib37HashMapIiiSt4hashIiESt8equal_toIiEE5mergeERS5_
FN:524,_ZN7emilib37HashMapIiiSt4hashIiESt8equal_toIiEE9do_insertIiiEESt4pairINS5_8iteratorEbEOT_OT0_
FNDA:4,_ZN7emilib37HashMapIiiSt4hashIiESt8equal_toIiEE9do_insertIiiEESt4pairINS5_8iteratorEbEOT_OT0_
FN:535,_ZN7emilib37HashMapIiiSt4hashIiESt8equal_toIiEE9do_insertERKSt4pairIKiiE
FNDA:6,_ZN7emilib37HashMapIiiSt4hashIiESt8equal_toIiEE9do_insertERKSt4pairIKiiE
FN:545,_ZN7emilib37HashMapIiiSt4hashIiESt8equal_toIiEE9do_insertEOSt4pairIKiiE
FNDA:52,_ZN7emilib37HashMapIiiSt4hashIiESt8equal_toIiEE9do_insertEOSt4pairIKiiE
FN:555,_ZN7emilib37HashMapIiiSt4hashIiESt8equal_toIiEE7emplaceIJiiEEESt4pairINS5_8iteratorEbEDpOT_
FNDA:2,_ZN7emilib37HashMapIiiSt4hashIiESt8equal_toIiEE7emplaceIJiiEEESt4pairINS5_8iteratorEbEDpOT_
FN:559,_ZN7emilib37HashMapIiiSt4hashIiESt8equal_toIiEE6insertEOSt4pairIKiiE
FNDA:52,_ZN7emilib37HashMapIiiSt4hashIiESt8equal_toIiEE6insertEOSt4pairIKiiE
FN:561,_ZN7emilib37HashMapIiiSt4hashIiESt8equal_toIiEE6insertERKSt4pairIKiiE
FNDA:3,_ZN7emilib37HashMapIiiSt4hashIiESt8equal_toIiEE6insertERKSt4pairIKiiE
FN:581,_ZN7emilib37HashMapIiiSt4hashIiESt8equal_toIiEE11try_emplaceIJiEEESt4pairINS5_8iteratorEbEOiDpOT_
FNDA:2,_ZN7emilib37HashMapIiiSt4hashIiESt8equal_toIiEE11try_emplaceIJiEEESt4pairINS5_8iteratorEbEOiDpOT_
FN:585,_ZN7emilib37HashMapIiiSt4hashIiESt8equal_toIiEE6insertESt16initializer_listISt4pairIKiiEE
FNDA:1,_ZN7emilib37HashMapIiiSt4hashIiESt8equal_toIiEE6insertESt16initializer_listISt4pairIKiiEE
FN:591,_ZN7emilib37HashMapIiiSt4hashIiESt8equal_toIiEE13insert_uniqueIRKiiEEjOT_OT0_
FNDA:50,_ZN7emilib37HashMapIiiSt4hashIiESt8equal_toIiEE13insert_uniqueIRKiiEEjOT_OT0_
FN:622,_ZN7emilib37HashMapIiiSt4hashIiESt8equal_toIiEE16insert_or_assignIiEESt4pairINS5_8iteratorEbEOiOT_
FNDA:2,_ZN7emilib37HashMapIiiSt4hashIiESt8equal_toIiEE16insert_or_assignIiEESt4pairINS5_8iteratorEbEOiOT_
FN:626,_ZN7emilib37HashMapIiiSt4hashIiESt8equal_toIiEE9do_assignIiiEESt4pairINS5_8iteratorEbEOT_OT0_
FNDA:2,_ZN7emilib37HashMapIiiSt4hashIiESt8equal_toIiEE9do_assignIiiEESt4pairINS5_8iteratorEbEOT_OT0_
FN:641,_ZN7emilib37HashMapIiiSt4hashIiESt8equal_toIiEE7set_getERKiS7_Ri
FNDA:2,_ZN7emilib37HashMapIiiSt4hashIiESt8equal_toIiEE7set_getERKiS7_Ri
FN:654,_ZN7emilib37HashMapIiiSt4hashIiESt8equal_toIiEEixERKi
FNDA:157759,_ZN7emilib37HashMapIiiSt4hashIiESt8equal_toIiEEixERKi
FN:666,_ZN7emilib37HashMapIiiSt4hashIiESt8equal_toIiEEixEOi
FNDA:11511,_ZN7emilib37HashMapIiiSt4hashIiESt8equal_toIiEEixEOi
FN:681,_ZN7emilib37HashMapIiiSt4hashIiESt8equal_toIiEE5eraseERKi
FNDA:31850,_ZN7emilib37HashMapIiiSt4hashIiESt8equal_toIiEE5eraseERKi
FN:692,_ZN7emilib37HashMapIiiSt4hashIiESt8equal_toIiEE5eraseENS5_8iteratorE
FNDA:84,_ZN7emilib37HashMapIiiSt4hashIiESt8equal_toIiEE5eraseENS5_8iteratorE
FN:694,_ZN7emilib37HashMapIiiSt4hashIiESt8equal_toIiEE6_eraseEj
FNDA:13009,_ZN7emilib37HashMapIiiSt4hashIiESt8equal_toIiEE6_eraseEj
FN:717,_ZN7emilib37HashMapIiiSt4hashIiESt8equal_toIiEE8erase_ifIZ13test_erase_ifIS5_EvPKcEUlRKT_E_EEjSA_
FNDA:1,_ZN7emilib37HashMapIiiSt4hashIiESt8equal_toIiEE8erase_ifIZ13test_erase_ifIS5_EvPKcEUlRKT_E_EEjSA_
FN:727,_ZN7emilib37HashMapIiiSt4hashIiESt8equal_toIiEE18need_explicit_dtorEv
FNDA:183622,_ZN7emilib37HashMapIiiSt4hashIiESt8equal_toIiEE18need_explicit_dtorEv
FN:735,_ZN7emilib37HashMapIiiSt4hashIiESt8equal_toIiEE21is_trivially_copyableEv
FNDA:1,_ZN7emilib37HashMapIiiSt4hashIiESt8equal_toIiEE21is_trivially_copyableEv
FN:743,_ZN7emilib37HashMapIiiSt4hashIiESt8equal_toIiEE10clear_metaEv
FNDA:187,_ZN7emilib37HashMapIiiSt4hashIiESt8equal_toIiEE10clear_metaEv
FN:751,_ZN7emilib37HashMapIiiSt4hashIiESt8equal_toIiEE10clear_dataEv
FNDA:44,_ZN7emilib37HashMapIiiSt4hashIiESt8equal_toIiEE10clear_dataEv
FN:762,_ZN7emilib37HashMapIiiSt4hashIiESt8equal_toIiEE5clearEv
FNDA:2,_ZN7emilib37HashMapIiiSt4hashIiESt8equal_toIiEE5clearEv
FN:769,_ZN7emilib37HashMapIiiSt4hashIiESt8equal_toIiEE13shrink_to_fitEv
FNDA:1,_ZN7emilib37HashMapIiiSt4hashIiESt8equal_toIiEE13shrink_to_fitEv
FN:781,_ZN7emilib37HashMapIiiSt4hashIiESt8equal_toIiEE6rehashEm
FNDA:186,_ZN7emilib37HashMapIiiSt4hashIiESt8equal_toIiEE6rehashEm
FN:852,_ZN7emilib37HashMapIiiSt4hashIiESt8equal_toIiEE19prefetch_heap_blockEPc
FNDA:536898,_ZN7emilib37HashMapIiiSt4hashIiESt8equal_toIiEE19prefetch_heap_blockEPc
FN:864,_ZNK7emilib37HashMapIiiSt4hashIiESt8equal_toIiEE10group_maskEj
FNDA:246024,_ZNK7emilib37HashMapIiiSt4hashIiESt8equal_toIiEE10group_maskEj
FN:866,_ZN7emilib37HashMapIiiSt4hashIiESt8equal_toIiEE10set_statesEja
FNDA:326252,_ZN7emilib37HashMapIiiSt4hashIiESt8equal_toIiEE10set_statesEja
FN:868,_ZN7emilib37HashMapIiiSt4hashIiESt8equal_toIiEE10set_offsetEj
FNDA:81,_ZN7emilib37HashMapIiiSt4hashIiESt8equal_toIiEE10set_offsetEj
FN:870,_ZNK7emilib37HashMapIiiSt4hashIiESt8equal_toIiEE15get_next_bucketEjj
FNDA:31405,_ZNK7emilib37HashMapIiiSt4hashIiESt8equal_toIiEE15get_next_bucketEjj
FN:885,_ZNK7emilib37HashMapIiiSt4hashIiESt8equal_toIiEE18find_filled_bucketIiEEjRKT_
FNDA:247230,_ZNK7emilib37HashMapIiiSt4hashIiESt8equal_toIiEE18find_filled_bucketIiEEjRKT_
FN:917,_ZN7emilib37HashMapIiiSt4hashIiESt8equal_toIiEE16find_or_allocateIiEEjRKT_Rb
FNDA:169336,_ZN7emilib37HashMapIiiSt4hashIiESt8equal_toIiEE16find_or_allocateIiEEjRKT_Rb
FN:975,_ZNK7emilib37HashMapIiiSt4hashIiESt8equal_toIiEE12empty_deleteEj
FNDA:173091,_ZNK7emilib37HashMapIiiSt4hashIiESt8equal_toIiEE12empty_deleteEj
FN:980,_ZNK7emilib37HashMapIiiSt4hashIiESt8equal_toIiEE11filled_maskEj
FNDA:370,_ZNK7emilib37HashMapIiiSt4hashIiESt8equal_toIiEE11filled_maskEj
FN:985,_ZN7emilib37HashMapIiiSt4hashIiESt8equal_toIiEE15find_empty_slotEjj
FNDA:170678,_ZN7emilib37HashMapIiiSt4hashIiESt8equal_toIiEE15find_empty_slotEjj
FN:1001,_ZNK7emilib37HashMapIiiSt4hashIiESt8equal_toIiEE16find_filled_slotEj
FNDA:11,_ZNK7emilib37HashMapIiiSt4hashIiESt8equal_toIiEE16find_filled_slotEj
DA:122,537452
DA:127,537452
DA:130,537452
DA:163,587632
DA:164,587632
DA:171,588631
DA:172,588631
DA:174,588631
DA:188,321188
DA:189,321188
DA:190,321188
DA:192,3
DA:193,3
DA:194,3
DA:195,3
DA:196,3
DA:197,3
DA:199,0
DA:201,3
DA:205,100
DA:207,200
DA:209,200
DA:210,2
DA:212,200
DA:213,200
DA:216,50
DA:218,50
DA:219,1
DA:221,50
DA:222,50
DA:223,50
DA:226,150
DA:227,146419
DA:229,139457
DA:230,25106
DA:235,250
DA:236,250
DA:237,250
DA:238,232
DA:239,232
DA:243,20
DA:244,20
DA:246,18
DA:266,622
DA:268,622
DA:269,622
DA:270,622
DA:271,622
DA:272,309
DA:273,309
DA:275,313
DA:277,622
DA:279,0
DA:283,402
DA:284,402
DA:285,402
DA:294,0
DA:295,1112
DA:299,304
DA:300,409
DA:303,402
DA:304,402
DA:305,402
DA:306,375
DA:307,375
DA:311,30
DA:312,30
DA:314,27
DA:325,38
DA:326,38
DA:327,38
DA:328,38
DA:330,1
DA:331,1
DA:332,1
DA:333,1
DA:335,1
DA:336,1
DA:337,1
DA:338,1
DA:340,1
DA:342,1
DA:343,1
DA:344,4
DA:345,3
DA:346,1
DA:348,1
DA:349,1
DA:350,51
DA:351,50
DA:352,1
DA:360,1
DA:361,1
DA:362,1
DA:363,1
DA:365,1
DA:368,42
DA:369,42
DA:370,42
DA:371,42
DA:372,42
DA:373,42
DA:375,1
DA:376,1
DA:377,0
DA:378,0
DA:381,1
DA:383,1
DA:384,1
DA:385,1
DA:388,1
DA:389,1
DA:391,0
DA:392,0
DA:395,1
DA:396,1
DA:397,1
DA:398,1
DA:399,1
DA:402,3
DA:403,3
DA:404,3
DA:405,3
DA:406,3
DA:407,3
DA:408,3
DA:409,3
DA:410,3
DA:411,3
DA:412,3
DA:416,4
DA:418,7
DA:420,7
DA:422,164570
DA:424,311
DA:426,311
DA:428,49
DA:430,16
DA:433,630
DA:436,3
DA:438,2
DA:445,189
DA:446,1
DA:450,164998
DA:452,304
DA:453,304
DA:456,50907
DA:457,50907
DA:460,1
DA:461,1
DA:488,1
DA:489,1
DA:490,0
DA:492,101
DA:493,100
DA:494,100
DA:495,0
DA:497,1
DA:488,7
DA:489,7
DA:490,1
DA:492,308
DA:493,304
DA:494,304
DA:495,2
DA:497,4
DA:500,4
DA:502,2
DA:503,2
DA:504,1
DA:505,1
DA:508,101
DA:509,100
DA:510,100
DA:511,50
DA:512,50
DA:514,50
DA:524,4
DA:525,4
DA:526,4
DA:528,4
DA:529,2
DA:530,2
DA:532,4
DA:535,6
DA:536,6
DA:537,6
DA:538,6
DA:539,6
DA:540,6
DA:542,6
DA:545,52
DA:546,52
DA:547,52
DA:548,52
DA:549,51
DA:550,51
DA:552,52
DA:555,2
DA:556,2
DA:559,52
DA:561,3
DA:581,2
DA:582,2
DA:585,1
DA:586,1
DA:587,4
DA:588,3
DA:589,1
DA:591,50
DA:592,50
DA:593,50
DA:594,1
DA:597,50
DA:598,50
DA:599,50
DA:601,50
DA:602,50
DA:603,50
DA:604,50
DA:622,2
DA:623,2
DA:626,2
DA:627,2
DA:628,2
DA:631,2
DA:632,1
DA:633,1
DA:635,1
DA:638,2
DA:641,2
DA:642,2
DA:643,2
DA:645,2
DA:646,1
DA:647,1
DA:649,1
DA:651,2
DA:654,157759
DA:655,157759
DA:656,157759
DA:658,157759
DA:659,144775
DA:660,144775
DA:663,157759
DA:666,11511
DA:667,11511
DA:668,11511
DA:669,11511
DA:670,10797
DA:671,10797
DA:674,11511
DA:681,31850
DA:682,31850
DA:683,31850
DA:684,18925
DA:686,12925
DA:687,12925
DA:692,84
DA:694,13009
DA:695,13009
DA:696,13009
DA:697,0
DA:699,13009
DA:700,13009
DA:706,13009
DA:717,1
DA:718,1
DA:719,101
DA:720,100
DA:721,34
DA:722,100
DA:724,1
DA:727,183622
DA:729,183622
DA:735,1
DA:737,1
DA:743,187
DA:744,187
DA:746,187
DA:747,187
DA:748,187
DA:749,187
DA:751,44
DA:752,44
DA:753,0
DA:754,0
DA:755,0
DA:756,0
DA:759,44
DA:762,2
DA:763,2
DA:764,1
DA:765,1
DA:767,2
DA:769,1
DA:781,186
DA:782,186
DA:783,0
DA:785,186
DA:786,757
DA:787,571
DA:790,186
DA:791,0
DA:793,186
DA:794,186
DA:795,186
DA:797,186
DA:798,186
DA:800,186
DA:801,186
DA:802,186
DA:803,186
DA:808,186
DA:809,186
DA:810,186
DA:811,186
DA:812,186
DA:815,186
DA:816,186
DA:823,204220
DA:824,204034
DA:825,170569
DA:827,170569
DA:828,170569
DA:830,170569
DA:831,170569
DA:832,170569
DA:833,170569
DA:834,0
DA:844,186
DA:845,186
DA:852,536898
DA:860,536898
DA:862,538253
DA:864,246024
DA:866,326252
DA:868,81
DA:870,31405
DA:872,31405
DA:873,30984
DA:875,421
DA:881,31405
DA:885,247230
DA:887,247230
DA:888,247230
DA:889,247507
DA:891,247507
DA:894,527006
DA:895,263503
DA:896,263503
DA:897,196368
DA:899,195783
DA:900,195548
DA:901,194836
DA:902,445
DA:905,67554
DA:906,54327
DA:907,14373
DA:908,250
DA:909,14123
DA:910,15996
DA:917,169336
DA:918,169336
DA:919,169336
DA:920,140
DA:923,169336
DA:924,169336
DA:925,169336
DA:926,169336
DA:927,169336
DA:928,169336
DA:929,169336
DA:932,363492
DA:934,181746
DA:936,182023
DA:937,13980
DA:938,13980
DA:939,13703
DA:940,13703
DA:942,277
DA:946,168043
DA:948,328630
DA:949,164315
DA:950,153174
DA:951,153174
DA:952,153174
DA:953,11141
DA:954,2443
DA:959,14869
DA:961,14869
DA:963,2459
DA:964,2400
DA:965,2400
DA:968,59
DA:970,59
DA:972,59
DA:975,173091
DA:976,173091
DA:977,519273
DA:980,370
DA:981,370
DA:982,1110
DA:985,173091
DA:987,173091
DA:988,173091
DA:989,170678
DA:990,170678
DA:991,170678
DA:992,81
DA:993,170678
DA:995,2413
DA:996,2413
DA:1001,11
DA:1002,11
DA:1003,3
DA:1005,0
DA:1006,8
DA:1007,8
DA:1008,8
DA:1009,0
end_of_record
TN:
SF:/mnt/d/emhash/include/emhash/hash_table5.hpp
FN:136,_ZN7emhash55entryIiiEC2EOiS2_i
FNDA:5500,_ZN7emhash55entryIiiEC2EOiS2_i
FN:136,_ZN7emhash55entryINSt7__cxx1112basic_stringIcSt11char_traitsIcESaIcEEEiEC2EOS6_Oii
FNDA:2,_ZN7emhash55entryINSt7__cxx1112basic_stringIcSt11char_traitsIcESaIcEEEiEC2EOS6_Oii
FN:141,_ZN7emhash55entryIjjEC2IRjjEEOT_OT0_i
FNDA:1,_ZN7emhash55entryIjjEC2IRjjEEOT_OT0_i
FN:141,_ZN7emhash55entryIssEC2IRKssEEOT_OT0_i
FNDA:391,_ZN7emhash55entryIssEC2IRKssEEOT_OT0_i
FN:141,_ZN7emhash55entryIaaEC2IRaaEEOT_OT0_i
FNDA:1,_ZN7emhash55entryIaaEC2IRaaEEOT_OT0_i
FN:141,_ZN7emhash55entryIaaEC2IRaS3_EEOT_OT0_i
FNDA:0,_ZN7emhash55entryIaaEC2IRaS3_EEOT_OT0_i
FN:141,_ZN7emhash55entryIaaEC2IRKaaEEOT_OT0_i
FNDA:391,_ZN7emhash55entryIaaEC2IRKaaEEOT_OT0_i
FN:141,_ZN7emhash55entryIssEC2IRsS3_EEOT_OT0_i
FNDA:400,_ZN7emhash55entryIssEC2IRsS3_EEOT_OT0_i
FN:141,_ZN7emhash55entryIssEC2IRssEEOT_OT0_i
FNDA:1,_ZN7emhash55entryIssEC2IRssEEOT_OT0_i
FN:141,_ZN7emhash55entryIiiEC2IRiS3_EEOT_OT0_i
FNDA:400,_ZN7emhash55entryIiiEC2IRiS3_EEOT_OT0_i
FN:141,_ZN7emhash55entryIiiEC2IRiiEEOT_OT0_i
FNDA:1,_ZN7emhash55entryIiiEC2IRiiEEOT_OT0_i
FN:141,_ZN7emhash55entryIllEC2IRKllEEOT_OT0_i
FNDA:391,_ZN7emhash55entryIllEC2IRKllEEOT_OT0_i
FN:141,_ZN7emhash55entryIiiEC2IRKiiEEOT_OT0_i
FNDA:398,_ZN7emhash55entryIiiEC2IRKiiEEOT_OT0_i
FN:141,_ZN7emhash55entryIllEC2IRlS3_EEOT_OT0_i
FNDA:400,_ZN7emhash55entryIllEC2IRlS3_EEOT_OT0_i
FN:141,_ZN7emhash55entryIllEC2IRllEEOT_OT0_i
FNDA:1,_ZN7emhash55entryIllEC2IRllEEOT_OT0_i
FN:141,_ZN7emhash55entryIhhEC2IRKhhEEOT_OT0_i
FNDA:391,_ZN7emhash55entryIhhEC2IRKhhEEOT_OT0_i
FN:141,_ZN7emhash55entryIhhEC2IRhS3_EEOT_OT0_i
FNDA:400,_ZN7emhash55entryIhhEC2IRhS3_EEOT_OT0_i
FN:141,_ZN7emhash55entryIhhEC2IRhhEEOT_OT0_i
FNDA:1,_ZN7emhash55entryIhhEC2IRhhEEOT_OT0_i
FN:141,_ZN7emhash55entryImmEC2IRKmmEEOT_OT0_i
FNDA:391,_ZN7emhash55entryImmEC2IRKmmEEOT_OT0_i
FN:141,_ZN7emhash55entryIjjEC2IRjS3_EEOT_OT0_i
FNDA:400,_ZN7emhash55entryIjjEC2IRjS3_EEOT_OT0_i
FN:141,_ZN7emhash55entryImmEC2IRmS3_EEOT_OT0_i
FNDA:400,_ZN7emhash55entryImmEC2IRmS3_EEOT_OT0_i
FN:141,_ZN7emhash55entryIjjEC2IRKjjEEOT_OT0_i
FNDA:391,_ZN7emhash55entryIjjEC2IRKjjEEOT_OT0_i
FN:141,_ZN7emhash55entryImmEC2IRmmEEOT_OT0_i
FNDA:1,_ZN7emhash55entryImmEC2IRmmEEOT_OT0_i
FN:141,_ZN7emhash55entryIttEC2IRttEEOT_OT0_i
FNDA:1,_ZN7emhash55entryIttEC2IRttEEOT_OT0_i
FN:141,_ZN7emhash55entryIttEC2IRKttEEOT_OT0_i
FNDA:391,_ZN7emhash55entryIttEC2IRKttEEOT_OT0_i
FN:141,_ZN7emhash55entryIttEC2IRtS3_EEOT_OT0_i
FNDA:400,_ZN7emhash55entryIttEC2IRtS3_EEOT_OT0_i
FN:162,_ZN7emhash55entryIllEC2EOS1_
FNDA:512,_ZN7emhash55entryIllEC2EOS1_
FN:162,_ZN7emhash55entryIhhEC2EOS1_
FNDA:512,_ZN7emhash55entryIhhEC2EOS1_
FN:162,_ZN7emhash55entryIttEC2EOS1_
FNDA:512,_ZN7emhash55entryIttEC2EOS1_
FN:162,_ZN7emhash55entryIssEC2EOS1_
FNDA:512,_ZN7emhash55entryIssEC2EOS1_
FN:162,_ZN7emhash55entryImmEC2EOS1_
FNDA:512,_ZN7emhash55entryImmEC2EOS1_
FN:162,_ZN7emhash55entryINSt7__cxx1112basic_stringIcSt11char_traitsIcESaIcEEEiEC2EOS7_
FNDA:0,_ZN7emhash55entryINSt7__cxx1112basic_stringIcSt11char_traitsIcESaIcEEEiEC2EOS7_
FN:162,_ZN7emhash55entryIaaEC2EOS1_
FNDA:123,_ZN7emhash55entryIaaEC2EOS1_
FN:162,_ZN7emhash55entryIjjEC2EOS1_
FNDA:512,_ZN7emhash55entryIjjEC2EOS1_
FN:162,_ZN7emhash55entryIiiEC2EOS1_
FNDA:2122,_ZN7emhash55entryIiiEC2EOS1_
FN:164,_ZN7emhash55entryIllEaSEOS1_
FNDA:0,_ZN7emhash55entryIllEaSEOS1_
FN:164,_ZN7emhash55entryIaaEaSEOS1_
FNDA:0,_ZN7emhash55entryIaaEaSEOS1_
FN:164,_ZN7emhash55entryImmEaSEOS1_
FNDA:0,_ZN7emhash55entryImmEaSEOS1_
FN:164,_ZN7emhash55entryIhhEaSEOS1_
FNDA:0,_ZN7emhash55entryIhhEaSEOS1_
FN:164,_ZN7emhash55entryIttEaSEOS1_
FNDA:0,_ZN7emhash55entryIttEaSEOS1_
FN:164,_ZN7emhash55entryIiiEaSEOS1_
FNDA:0,_ZN7emhash55entryIiiEaSEOS1_
FN:164,_ZN7emhash55entryINSt7__cxx1112basic_stringIcSt11char_traitsIcESaIcEEEiEaSEOS7_
FNDA:0,_ZN7emhash55entryINSt7__cxx1112basic_stringIcSt11char_traitsIcESaIcEEEiEaSEOS7_
FN:164,_ZN7emhash55entryIjjEaSEOS1_
FNDA:0,_ZN7emhash55entryIjjEaSEOS1_
FN:164,_ZN7emhash55entryIssEaSEOS1_
FNDA:0,_ZN7emhash55entryIssEaSEOS1_
FN:292,_ZN7emhash57HashMapIllSt4hashIlESt8equal_toIlESaISt4pairIllEEE8iteratorC2EPKS8_i
FNDA:5466,_ZN7emhash57HashMapIllSt4hashIlESt8equal_toIlESaISt4pairIllEEE8iteratorC2EPKS8_i
FN:292,_ZN7emhash57HashMapIjjSt4hashIjESt8equal_toIjESaISt4pairIjjEEE8iteratorC2EPKS8_i
FNDA:5466,_ZN7emhash57HashMapIjjSt4hashIjESt8equal_toIjESaISt4pairIjjEEE8iteratorC2EPKS8_i
FN:292,_ZN7emhash57HashMapIttSt4hashItESt8equal_toItESaISt4pairIttEEE8iteratorC2EPKS8_i
FNDA:5466,_ZN7emhash57HashMapIttSt4hashItESt8equal_toItESaISt4pairIttEEE8iteratorC2EPKS8_i
FN:292,_ZN7emhash57HashMapIhhSt4hashIhESt8equal_toIhESaISt4pairIhhEEE8iteratorC2EPKS8_i
FNDA:5466,_ZN7emhash57HashMapIhhSt4hashIhESt8equal_toIhESaISt4pairIhhEEE8iteratorC2EPKS8_i
FN:292,_ZN7emhash57HashMapImmSt4hashImESt8equal_toImESaISt4pairImmEEE8iteratorC2EPKS8_i
FNDA:5466,_ZN7emhash57HashMapImmSt4hashImESt8equal_toImESaISt4pairImmEEE8iteratorC2EPKS8_i
FN:292,_ZN7emhash57HashMapIssSt4hashIsESt8equal_toIsESaISt4pairIssEEE8iteratorC2EPKS8_i
FNDA:5466,_ZN7emhash57HashMapIssSt4hashIsESt8equal_toIsESaISt4pairIssEEE8iteratorC2EPKS8_i
FN:292,_ZN7emhash57HashMapIaaSt4hashIaESt8equal_toIaESaISt4pairIaaEEE8iteratorC2EPKS8_i
FNDA:4482,_ZN7emhash57HashMapIaaSt4hashIaESt8equal_toIaESaISt4pairIaaEEE8iteratorC2EPKS8_i
FN:292,_ZN7emhash57HashMapIiiSt4hashIiESt8equal_toIiESaISt4pairIiiEEE8iteratorC2EPKS8_i
FNDA:10056,_ZN7emhash57HashMapIiiSt4hashIiESt8equal_toIiESaISt4pairIiiEEE8iteratorC2EPKS8_i
FN:292,_ZN7emhash57HashMapINSt7__cxx1112basic_stringIcSt11char_traitsIcESaIcEEEiSt4hashIS6_ESt8equal_toIS6_ESaISt4pairIS6_iEEE8iteratorC2EPKSE_i
FNDA:10,_ZN7emhash57HashMapINSt7__cxx1112basic_stringIcSt11char_traitsIcESaIcEEEiSt4hashIS6_ESt8equal_toIS6_ESaISt4pairIS6_iEEE8iteratorC2EPKSE_i
FN:306,_ZNK7emhash57HashMapIllSt4hashIlESt8equal_toIlESaISt4pairIllEEE8iteratorptEv
FNDA:2,_ZNK7emhash57HashMapIllSt4hashIlESt8equal_toIlESaISt4pairIllEEE8iteratorptEv
FN:306,_ZNK7emhash57HashMapIhhSt4hashIhESt8equal_toIhESaISt4pairIhhEEE8iteratorptEv
FNDA:2,_ZNK7emhash57HashMapIhhSt4hashIhESt8equal_toIhESaISt4pairIhhEEE8iteratorptEv
FN:306,_ZNK7emhash57HashMapIiiSt4hashIiESt8equal_toIiESaISt4pairIiiEEE8iteratorptEv
FNDA:10,_ZNK7emhash57HashMapIiiSt4hashIiESt8equal_toIiESaISt4pairIiiEEE8iteratorptEv
FN:306,_ZNK7emhash57HashMapIttSt4hashItESt8equal_toItESaISt4pairIttEEE8iteratorptEv
FNDA:2,_ZNK7emhash57HashMapIttSt4hashItESt8equal_toItESaISt4pairIttEEE8iteratorptEv
FN:306,_ZNK7emhash57HashMapIaaSt4hashIaESt8equal_toIaESaISt4pairIaaEEE8iteratorptEv
FNDA:2,_ZNK7emhash57HashMapIaaSt4hashIaESt8equal_toIaESaISt4pairIaaEEE8iteratorptEv
FN:306,_ZNK7emhash57HashMapIjjSt4hashIjESt8equal_toIjESaISt4pairIjjEEE8iteratorptEv
FNDA:2,_ZNK7emhash57HashMapIjjSt4hashIjESt8equal_toIjESaISt4pairIjjEEE8iteratorptEv
FN:306,_ZNK7emhash57HashMapImmSt4hashImESt8equal_toImESaISt4pairImmEEE8iteratorptEv
FNDA:2,_ZNK7emhash57HashMapImmSt4hashImESt8equal_toImESaISt4pairImmEEE8iteratorptEv
FN:306,_ZNK7emhash57HashMapIssSt4hashIsESt8equal_toIsESaISt4pairIssEEE8iteratorptEv
FNDA:2,_ZNK7emhash57HashMapIssSt4hashIsESt8equal_toIsESaISt4pairIssEEE8iteratorptEv
FN:308,_ZNK7emhash57HashMapIhhSt4hashIhESt8equal_toIhESaISt4pairIhhEEE8iteratoreqERKS9_
FNDA:11,_ZNK7emhash57HashMapIhhSt4hashIhESt8equal_toIhESaISt4pairIhhEEE8iteratoreqERKS9_
FN:308,_ZNK7emhash57HashMapImmSt4hashImESt8equal_toImESaISt4pairImmEEE8iteratoreqERKS9_
FNDA:11,_ZNK7emhash57HashMapImmSt4hashImESt8equal_toImESaISt4pairImmEEE8iteratoreqERKS9_
FN:308,_ZNK7emhash57HashMapIllSt4hashIlESt8equal_toIlESaISt4pairIllEEE8iteratoreqERKS9_
FNDA:11,_ZNK7emhash57HashMapIllSt4hashIlESt8equal_toIlESaISt4pairIllEEE8iteratoreqERKS9_
FN:308,_ZNK7emhash57HashMapIjjSt4hashIjESt8equal_toIjESaISt4pairIjjEEE8iteratoreqERKS9_
FNDA:11,_ZNK7emhash57HashMapIjjSt4hashIjESt8equal_toIjESaISt4pairIjjEEE8iteratoreqERKS9_
FN:308,_ZNK7emhash57HashMapINSt7__cxx1112basic_stringIcSt11char_traitsIcESaIcEEEiSt4hashIS6_ESt8equal_toIS6_ESaISt4pairIS6_iEEE8iteratoreqERKSF_
FNDA:3,_ZNK7emhash57HashMapINSt7__cxx1112basic_stringIcSt11char_traitsIcESaIcEEEiSt4hashIS6_ESt8equal_toIS6_ESaISt4pairIS6_iEEE8iteratoreqERKSF_
FN:308,_ZNK7emhash57HashMapIaaSt4hashIaESt8equal_toIaESaISt4pairIaaEEE8iteratoreqERKS9_
FNDA:11,_ZNK7emhash57HashMapIaaSt4hashIaESt8equal_toIaESaISt4pairIaaEEE8iteratoreqERKS9_
FN:308,_ZNK7emhash57HashMapIiiSt4hashIiESt8equal_toIiESaISt4pairIiiEEE8iteratoreqERKS9_
FNDA:22,_ZNK7emhash57HashMapIiiSt4hashIiESt8equal_toIiESaISt4pairIiiEEE8iteratoreqERKS9_
FN:308,_ZNK7emhash57HashMapIssSt4hashIsESt8equal_toIsESaISt4pairIssEEE8iteratoreqERKS9_
FNDA:11,_ZNK7emhash57HashMapIssSt4hashIsESt8equal_toIsESaISt4pairIssEEE8iteratoreqERKS9_
FN:308,_ZNK7emhash57HashMapIttSt4hashItESt8equal_toItESaISt4pairIttEEE8iteratoreqERKS9_
FNDA:11,_ZNK7emhash57HashMapIttSt4hashItESt8equal_toItESaISt4pairIttEEE8iteratoreqERKS9_
FN:309,_ZNK7emhash57HashMapIaaSt4hashIaESt8equal_toIaESaISt4pairIaaEEE8iteratorneERKS9_
FNDA:2230,_ZNK7emhash57HashMapIaaSt4hashIaESt8equal_toIaESaISt4pairIaaEEE8iteratorneERKS9_
FN:309,_ZNK7emhash57HashMapIhhSt4hashIhESt8equal_toIhESaISt4pairIhhEEE8iteratorneERKS9_
FNDA:2722,_ZNK7emhash57HashMapIhhSt4hashIhESt8equal_toIhESaISt4pairIhhEEE8iteratorneERKS9_
FN:309,_ZNK7emhash57HashMapIssSt4hashIsESt8equal_toIsESaISt4pairIssEEE8iteratorneERKS9_
FNDA:2722,_ZNK7emhash57HashMapIssSt4hashIsESt8equal_toIsESaISt4pairIssEEE8iteratorneERKS9_
FN:309,_ZNK7emhash57HashMapINSt7__cxx1112basic_stringIcSt11char_traitsIcESaIcEEEiSt4hashIS6_ESt8equal_toIS6_ESaISt4pairIS6_iEEE8iteratorneERKSF_
FNDA:2,_ZNK7emhash57HashMapINSt7__cxx1112basic_stringIcSt11char_traitsIcESaIcEEEiSt4hashIS6_ESt8equal_toIS6_ESaISt4pairIS6_iEEE8iteratorneERKSF_
FN:309,_ZNK7emhash57HashMapIttSt4hashItESt8equal_toItESaISt4pairIttEEE8iteratorneERKS9_
FNDA:2722,_ZNK7emhash57HashMapIttSt4hashItESt8equal_toItESaISt4pairIttEEE8iteratorneERKS9_
FN:309,_ZNK7emhash57HashMapIiiSt4hashIiESt8equal_toIiESaISt4pairIiiEEE8iteratorneERKS9_
FNDA:5006,_ZNK7emhash57HashMapIiiSt4hashIiESt8equal_toIiESaISt4pairIiiEEE8iteratorneERKS9_
FN:309,_ZNK7emhash57HashMapIllSt4hashIlESt8equal_toIlESaISt4pairIllEEE8iteratorneERKS9_
FNDA:2722,_ZNK7emhash57HashMapIllSt4hashIlESt8equal_toIlESaISt4pairIllEEE8iteratorneERKS9_
FN:309,_ZNK7emhash57HashMapIjjSt4hashIjESt8equal_toIjESaISt4pairIjjEEE8iteratorneERKS9_
FNDA:2722,_ZNK7emhash57HashMapIjjSt4hashIjESt8equal_toIjESaISt4pairIjjEEE8iteratorneERKS9_
FN:309,_ZNK7emhash57HashMapImmSt4hashImESt8equal_toImESaISt4pairImmEEE8iteratorneERKS9_
FNDA:2722,_ZNK7emhash57HashMapImmSt4hashImESt8equal_toImESaISt4pairImmEEE8iteratorneERKS9_
FN:370,_ZN7emhash57HashMapIjjSt4hashIjESt8equal_toIjESaISt4pairIjjEEE4initEif
FNDA:11,_ZN7emhash57HashMapIjjSt4hashIjESt8equal_toIjESaISt4pairIjjEEE4initEif
FN:370,_ZN7emhash57HashMapImmSt4hashImESt8equal_toImESaISt4pairImmEEE4initEif
FNDA:11,_ZN7emhash57HashMapImmSt4hashImESt8equal_toImESaISt4pairImmEEE4initEif
FN:370,_ZN7emhash57HashMapIssSt4hashIsESt8equal_toIsESaISt4pairIssEEE4initEif
FNDA:11,_ZN7emhash57HashMapIssSt4hashIsESt8equal_toIsESaISt4pairIssEEE4initEif
FN:370,_ZN7emhash57HashMapIttSt4hashItESt8equal_toItESaISt4pairIttEEE4initEif
FNDA:11,_ZN7emhash57HashMapIttSt4hashItESt8equal_toItESaISt4pairIttEEE4initEif
FN:370,_ZN7emhash57HashMapIhhSt4hashIhESt8equal_toIhESaISt4pairIhhEEE4initEif
FNDA:11,_ZN7emhash57HashMapIhhSt4hashIhESt8equal_toIhESaISt4pairIhhEEE4initEif
FN:370,_ZN7emhash57HashMapIiiSt4hashIiESt8equal_toIiESaISt4pairIiiEEE4initEif
FNDA:15,_ZN7emhash57HashMapIiiSt4hashIiESt8equal_toIiESaISt4pairIiiEEE4initEif
FN:370,_ZN7emhash57HashMapINSt7__cxx1112basic_stringIcSt11char_traitsIcESaIcEEEiSt4hashIS6_ESt8equal_toIS6_ESaISt4pairIS6_iEEE4initEif
FNDA:1,_ZN7emhash57HashMapINSt7__cxx1112basic_stringIcSt11char_traitsIcESaIcEEEiSt4hashIS6_ESt8equal_toIS6_ESaISt4pairIS6_iEEE4initEif
FN:370,_ZN7emhash57HashMapIllSt4hashIlESt8equal_toIlESaISt4pairIllEEE4initEif
FNDA:11,_ZN7emhash57HashMapIllSt4hashIlESt8equal_toIlESaISt4pairIllEEE4initEif
FN:370,_ZN7emhash57HashMapIaaSt4hashIaESt8equal_toIaESaISt4pairIaaEEE4initEif
FNDA:11,_ZN7emhash57HashMapIaaSt4hashIaESt8equal_toIaESaISt4pairIaaEEE4initEif
FN:382,_ZN7emhash57HashMapIhhSt4hashIhESt8equal_toIhESaISt4pairIhhEEEC2Eif
FNDA:11,_ZN7emhash57HashMapIhhSt4hashIhESt8equal_toIhESaISt4pairIhhEEEC2Eif
FN:382,_ZN7emhash57HashMapIttSt4hashItESt8equal_toItESaISt4pairIttEEEC2Eif
FNDA:11,_ZN7emhash57HashMapIttSt4hashItESt8equal_toItESaISt4pairIttEEEC2Eif
FN:382,_ZN7emhash57HashMapIjjSt4hashIjESt8equal_toIjESaISt4pairIjjEEEC2Eif
FNDA:11,_ZN7emhash57HashMapIjjSt4hashIjESt8equal_toIjESaISt4pairIjjEEEC2Eif
FN:382,_ZN7emhash57HashMapImmSt4hashImESt8equal_toImESaISt4pairImmEEEC2Eif
FNDA:11,_ZN7emhash57HashMapImmSt4hashImESt8equal_toImESaISt4pairImmEEEC2Eif
FN:382,_ZN7emhash57HashMapIllSt4hashIlESt8equal_toIlESaISt4pairIllEEEC2Eif
FNDA:11,_ZN7emhash57HashMapIllSt4hashIlESt8equal_toIlESaISt4pairIllEEEC2Eif
FN:382,_ZN7emhash57HashMapIssSt4hashIsESt8equal_toIsESaISt4pairIssEEEC2Eif
FNDA:11,_ZN7emhash57HashMapIssSt4hashIsESt8equal_toIsESaISt4pairIssEEEC2Eif
FN:382,_ZN7emhash57HashMapINSt7__cxx1112basic_stringIcSt11char_traitsIcESaIcEEEiSt4hashIS6_ESt8equal_toIS6_ESaISt4pairIS6_iEEEC2Eif
FNDA:1,_ZN7emhash57HashMapINSt7__cxx1112basic_stringIcSt11char_traitsIcESaIcEEEiSt4hashIS6_ESt8equal_toIS6_ESaISt4pairIS6_iEEEC2Eif
FN:382,_ZN7emhash57HashMapIiiSt4hashIiESt8equal_toIiESaISt4pairIiiEEEC2Eif
FNDA:15,_ZN7emhash57HashMapIiiSt4hashIiESt8equal_toIiESaISt4pairIiiEEEC2Eif
FN:382,_ZN7emhash57HashMapIaaSt4hashIaESt8equal_toIaESaISt4pairIaaEEEC2Eif
FNDA:11,_ZN7emhash57HashMapIaaSt4hashIaESt8equal_toIaESaISt4pairIaaEEEC2Eif
FN:490,_ZN7emhash57HashMapIttSt4hashItESt8equal_toItESaISt4pairIttEEED2Ev
FNDA:11,_ZN7emhash57HashMapIttSt4hashItESt8equal_toItESaISt4pairIttEEED2Ev
FN:490,_ZN7emhash57HashMapINSt7__cxx1112basic_stringIcSt11char_traitsIcESaIcEEEiSt4hashIS6_ESt8equal_toIS6_ESaISt4pairIS6_iEEED2Ev
FNDA:1,_ZN7emhash57HashMapINSt7__cxx1112basic_stringIcSt11char_traitsIcESaIcEEEiSt4hashIS6_ESt8equal_toIS6_ESaISt4pairIS6_iEEED2Ev
FN:490,_ZN7emhash57HashMapIhhSt4hashIhESt8equal_toIhESaISt4pairIhhEEED2Ev
FNDA:11,_ZN7emhash57HashMapIhhSt4hashIhESt8equal_toIhESaISt4pairIhhEEED2Ev
FN:490,_ZN7emhash57HashMapIaaSt4hashIaESt8equal_toIaESaISt4pairIaaEEED2Ev
FNDA:11,_ZN7emhash57HashMapIaaSt4hashIaESt8equal_toIaESaISt4pairIaaEEED2Ev
FN:490,_ZN7emhash57HashMapIiiSt4hashIiESt8equal_toIiESaISt4pairIiiEEED2Ev
FNDA:15,_ZN7emhash57HashMapIiiSt4hashIiESt8equal_toIiESaISt4pairIiiEEED2Ev
FN:490,_ZN7emhash57HashMapImmSt4hashImESt8equal_toImESaISt4pairImmEEED2Ev
FNDA:11,_ZN7emhash57HashMapImmSt4hashImESt8equal_toImESaISt4pairImmEEED2Ev
FN:490,_ZN7emhash57HashMapIssSt4hashIsESt8equal_toIsESaISt4pairIssEEED2Ev
FNDA:11,_ZN7emhash57HashMapIssSt4hashIsESt8equal_toIsESaISt4pairIssEEED2Ev
FN:490,_ZN7emhash57HashMapIjjSt4hashIjESt8equal_toIjESaISt4pairIjjEEED2Ev
FNDA:11,_ZN7emhash57HashMapIjjSt4hashIjESt8equal_toIjESaISt4pairIjjEEED2Ev
FN:490,_ZN7emhash57HashMapIllSt4hashIlESt8equal_toIlESaISt4pairIllEEED2Ev
FNDA:11,_ZN7emhash57HashMapIllSt4hashIlESt8equal_toIlESaISt4pairIllEEED2Ev
FN:530,_ZN7emhash57HashMapIiiSt4hashIiESt8equal_toIiESaISt4pairIiiEEE4swapERS8_
FNDA:1,_ZN7emhash57HashMapIiiSt4hashIiESt8equal_toIiESaISt4pairIiiEEE4swapERS8_
FN:530,_ZN7emhash57HashMapIhhSt4hashIhESt8equal_toIhESaISt4pairIhhEEE4swapERS8_
FNDA:1,_ZN7emhash57HashMapIhhSt4hashIhESt8equal_toIhESaISt4pairIhhEEE4swapERS8_
FN:530,_ZN7emhash57HashMapImmSt4hashImESt8equal_toImESaISt4pairImmEEE4swapERS8_
FNDA:1,_ZN7emhash57HashMapImmSt4hashImESt8equal_toImESaISt4pairImmEEE4swapERS8_
FN:530,_ZN7emhash57HashMapIttSt4hashItESt8equal_toItESaISt4pairIttEEE4swapERS8_
FNDA:1,_ZN7emhash57HashMapIttSt4hashItESt8equal_toItESaISt4pairIttEEE4swapERS8_
FN:530,_ZN7emhash57HashMapIllSt4hashIlESt8equal_toIlESaISt4pairIllEEE4swapERS8_
FNDA:1,_ZN7emhash57HashMapIllSt4hashIlESt8equal_toIlESaISt4pairIllEEE4swapERS8_
FN:530,_ZN7emhash57HashMapIssSt4hashIsESt8equal_toIsESaISt4pairIssEEE4swapERS8_
FNDA:1,_ZN7emhash57HashMapIssSt4hashIsESt8equal_toIsESaISt4pairIssEEE4swapERS8_
FN:530,_ZN7emhash57HashMapIjjSt4hashIjESt8equal_toIjESaISt4pairIjjEEE4swapERS8_
FNDA:1,_ZN7emhash57HashMapIjjSt4hashIjESt8equal_toIjESaISt4pairIjjEEE4swapERS8_
FN:530,_ZN7emhash57HashMapIaaSt4hashIaESt8equal_toIaESaISt4pairIaaEEE4swapERS8_
FNDA:1,_ZN7emhash57HashMapIaaSt4hashIaESt8equal_toIaESaISt4pairIaaEEE4swapERS8_
FN:614,_ZN7emhash57HashMapIhhSt4hashIhESt8equal_toIhESaISt4pairIhhEEE3endEv
FNDA:2733,_ZN7emhash57HashMapIhhSt4hashIhESt8equal_toIhESaISt4pairIhhEEE3endEv
FN:614,_ZN7emhash57HashMapIssSt4hashIsESt8equal_toIsESaISt4pairIssEEE3endEv
FNDA:2733,_ZN7emhash57HashMapIssSt4hashIsESt8equal_toIsESaISt4pairIssEEE3endEv
FN:614,_ZN7emhash57HashMapIaaSt4hashIaESt8equal_toIaESaISt4pairIaaEEE3endEv
FNDA:2241,_ZN7emhash57HashMapIaaSt4hashIaESt8equal_toIaESaISt4pairIaaEEE3endEv
FN:614,_ZN7emhash57HashMapIttSt4hashItESt8equal_toItESaISt4pairIttEEE3endEv
FNDA:2733,_ZN7emhash57HashMapIttSt4hashItESt8equal_toItESaISt4pairIttEEE3endEv
FN:614,_ZN7emhash57HashMapINSt7__cxx1112basic_stringIcSt11char_traitsIcESaIcEEEiSt4hashIS6_ESt8equal_toIS6_ESaISt4pairIS6_iEEE3endEv
FNDA:5,_ZN7emhash57HashMapINSt7__cxx1112basic_stringIcSt11char_traitsIcESaIcEEEiSt4hashIS6_ESt8equal_toIS6_ESaISt4pairIS6_iEEE3endEv
FN:614,_ZN7emhash57HashMapIllSt4hashIlESt8equal_toIlESaISt4pairIllEEE3endEv
FNDA:2733,_ZN7emhash57HashMapIllSt4hashIlESt8equal_toIlESaISt4pairIllEEE3endEv
FN:614,_ZN7emhash57HashMapImmSt4hashImESt8equal_toImESaISt4pairImmEEE3endEv
FNDA:2733,_ZN7emhash57HashMapImmSt4hashImESt8equal_toImESaISt4pairImmEEE3endEv
FN:614,_ZN7emhash57HashMapIiiSt4hashIiESt8equal_toIiESaISt4pairIiiEEE3endEv
FNDA:5028,_ZN7emhash57HashMapIiiSt4hashIiESt8equal_toIiESaISt4pairIiiEEE3endEv
FN:614,_ZN7emhash57HashMapIjjSt4hashIjESt8equal_toIjESaISt4pairIjjEEE3endEv
FNDA:2733,_ZN7emhash57HashMapIjjSt4hashIjESt8equal_toIjESaISt4pairIjjEEE3endEv
FN:620,_ZNK7emhash57HashMapIhhSt4hashIhESt8equal_toIhESaISt4pairIhhEEE12bucket_countEv
FNDA:2726,_ZNK7emhash57HashMapIhhSt4hashIhESt8equal_toIhESaISt4pairIhhEEE12bucket_countEv
FN:620,_ZNK7emhash57HashMapIttSt4hashItESt8equal_toItESaISt4pairIttEEE12bucket_countEv
FNDA:2726,_ZNK7emhash57HashMapIttSt4hashItESt8equal_toItESaISt4pairIttEEE12bucket_countEv
FN:620,_ZNK7emhash57HashMapIssSt4hashIsESt8equal_toIsESaISt4pairIssEEE12bucket_countEv
FNDA:2726,_ZNK7emhash57HashMapIssSt4hashIsESt8equal_toIsESaISt4pairIssEEE12bucket_countEv
FN:620,_ZNK7emhash57HashMapIllSt4hashIlESt8equal_toIlESaISt4pairIllEEE12bucket_countEv
FNDA:2726,_ZNK7emhash57HashMapIllSt4hashIlESt8equal_toIlESaISt4pairIllEEE12bucket_countEv
FN:620,_ZNK7emhash57HashMapIaaSt4hashIaESt8equal_toIaESaISt4pairIaaEEE12bucket_countEv
FNDA:2234,_ZNK7emhash57HashMapIaaSt4hashIaESt8equal_toIaESaISt4pairIaaEEE12bucket_countEv
FN:620,_ZNK7emhash57HashMapImmSt4hashImESt8equal_toImESaISt4pairImmEEE12bucket_countEv
FNDA:2726,_ZNK7emhash57HashMapImmSt4hashImESt8equal_toImESaISt4pairImmEEE12bucket_countEv
FN:620,_ZNK7emhash57HashMapIiiSt4hashIiESt8equal_toIiESaISt4pairIiiEEE12bucket_countEv
FNDA:4792,_ZNK7emhash57HashMapIiiSt4hashIiESt8equal_toIiESaISt4pairIiiEEE12bucket_countEv
FN:620,_ZNK7emhash57HashMapIjjSt4hashIjESt8equal_toIjESaISt4pairIjjEEE12bucket_countEv
FNDA:2726,_ZNK7emhash57HashMapIjjSt4hashIjESt8equal_toIjESaISt4pairIjjEEE12bucket_countEv
FN:626,_ZNK7emhash57HashMapIllSt4hashIlESt8equal_toIlESaISt4pairIllEEE11load_factorEv
FNDA:1,_ZNK7emhash57HashMapIllSt4hashIlESt8equal_toIlESaISt4pairIllEEE11load_factorEv
FN:626,_ZNK7emhash57HashMapIjjSt4hashIjESt8equal_toIjESaISt4pairIjjEEE11load_factorEv
FNDA:1,_ZNK7emhash57HashMapIjjSt4hashIjESt8equal_toIjESaISt4pairIjjEEE11load_factorEv
FN:626,_ZNK7emhash57HashMapIttSt4hashItESt8equal_toItESaISt4pairIttEEE11load_factorEv
FNDA:1,_ZNK7emhash57HashMapIttSt4hashItESt8equal_toItESaISt4pairIttEEE11load_factorEv
FN:626,_ZNK7emhash57HashMapIssSt4hashIsESt8equal_toIsESaISt4pairIssEEE11load_factorEv
FNDA:1,_ZNK7emhash57HashMapIssSt4hashIsESt8equal_toIsESaISt4pairIssEEE11load_factorEv
FN:626,_ZNK7emhash57HashMapIaaSt4hashIaESt8equal_toIaESaISt4pairIaaEEE11load_factorEv
FNDA:1,_ZNK7emhash57HashMapIaaSt4hashIaESt8equal_toIaESaISt4pairIaaEEE11load_factorEv
FN:626,_ZNK7emhash57HashMapIhhSt4hashIhESt8equal_toIhESaISt4pairIhhEEE11load_factorEv
FNDA:1,_ZNK7emhash57HashMapIhhSt4hashIhESt8equal_toIhESaISt4pairIhhEEE11load_factorEv
FN:626,_ZNK7emhash57HashMapImmSt4hashImESt8equal_toImESaISt4pairImmEEE11load_factorEv
FNDA:1,_ZNK7emhash57HashMapImmSt4hashImESt8equal_toImESaISt4pairImmEEE11load_factorEv
FN:626,_ZNK7emhash57HashMapIiiSt4hashIiESt8equal_toIiESaISt4pairIiiEEE11load_factorEv
FNDA:1,_ZNK7emhash57HashMapIiiSt4hashIiESt8equal_toIiESaISt4pairIiiEEE11load_factorEv
FN:630,_ZN7emhash57HashMapIhhSt4hashIhESt8equal_toIhESaISt4pairIhhEEE15max_load_factorEf
FNDA:11,_ZN7emhash57HashMapIhhSt4hashIhESt8equal_toIhESaISt4pairIhhEEE15max_load_factorEf
FN:630,_ZN7emhash57HashMapIiiSt4hashIiESt8equal_toIiESaISt4pairIiiEEE15max_load_factorEf
FNDA:15,_ZN7emhash57HashMapIiiSt4hashIiESt8equal_toIiESaISt4pairIiiEEE15max_load_factorEf
FN:630,_ZN7emhash57HashMapIssSt4hashIsESt8equal_toIsESaISt4pairIssEEE15max_load_factorEf
FNDA:11,_ZN7emhash57HashMapIssSt4hashIsESt8equal_toIsESaISt4pairIssEEE15max_load_factorEf
FN:630,_ZN7emhash57HashMapIaaSt4hashIaESt8equal_toIaESaISt4pairIaaEEE15max_load_factorEf
FNDA:11,_ZN7emhash57HashMapIaaSt4hashIaESt8equal_toIaESaISt4pairIaaEEE15max_load_factorEf
FN:630,_ZN7emhash57HashMapImmSt4hashImESt8equal_toImESaISt4pairImmEEE15max_load_factorEf
FNDA:11,_ZN7emhash57HashMapImmSt4hashImESt8equal_toImESaISt4pairImmEEE15max_load_factorEf
FN:630,_ZN7emhash57HashMapIllSt4hashIlESt8equal_toIlESaISt4pairIllEEE15max_load_factorEf
FNDA:11,_ZN7emhash57HashMapIllSt4hashIlESt8equal_toIlESaISt4pairIllEEE15max_load_factorEf
FN:630,_ZN7emhash57HashMapIttSt4hashItESt8equal_toItESaISt4pairIttEEE15max_load_factorEf
FNDA:11,_ZN7emhash57HashMapIttSt4hashItESt8equal_toItESaISt4pairIttEEE15max_load_factorEf
FN:630,_ZN7emhash57HashMapINSt7__cxx1112basic_stringIcSt11char_traitsIcESaIcEEEiSt4hashIS6_ESt8equal_toIS6_ESaISt4pairIS6_iEEE15max_load_factorEf
FNDA:1,_ZN7emhash57HashMapINSt7__cxx1112basic_stringIcSt11char_traitsIcESaIcEEEiSt4hashIS6_ESt8equal_toIS6_ESaISt4pairIS6_iEEE15max_load_factorEf
FN:630,_ZN7emhash57HashMapIjjSt4hashIjESt8equal_toIjESaISt4pairIjjEEE15max_load_factorEf
FNDA:11,_ZN7emhash57HashMapIjjSt4hashIjESt8equal_toIjESaISt4pairIjjEEE15max_load_factorEf
FN:635,_ZNK7emhash57HashMapIssSt4hashIsESt8equal_toIsESaISt4pairIssEEE8max_sizeEv
FNDA:54,_ZNK7emhash57HashMapIssSt4hashIsESt8equal_toIsESaISt4pairIssEEE8max_sizeEv
FN:635,_ZNK7emhash57HashMapIjjSt4hashIjESt8equal_toIjESaISt4pairIjjEEE8max_sizeEv
FNDA:54,_ZNK7emhash57HashMapIjjSt4hashIjESt8equal_toIjESaISt4pairIjjEEE8max_sizeEv
FN:635,_ZNK7emhash57HashMapINSt7__cxx1112basic_stringIcSt11char_traitsIcESaIcEEEiSt4hashIS6_ESt8equal_toIS6_ESaISt4pairIS6_iEEE8max_sizeEv
FNDA:2,_ZNK7emhash57HashMapINSt7__cxx1112basic_stringIcSt11char_traitsIcESaIcEEEiSt4hashIS6_ESt8equal_toIS6_ESaISt4pairIS6_iEEE8max_sizeEv
FN:635,_ZNK7emhash57HashMapIllSt4hashIlESt8equal_toIlESaISt4pairIllEEE8max_sizeEv
FNDA:54,_ZNK7emhash57HashMapIllSt4hashIlESt8equal_toIlESaISt4pairIllEEE8max_sizeEv
FN:635,_ZNK7emhash57HashMapIaaSt4hashIaESt8equal_toIaESaISt4pairIaaEEE8max_sizeEv
FNDA:34,_ZNK7emhash57HashMapIaaSt4hashIaESt8equal_toIaESaISt4pairIaaEEE8max_sizeEv
FN:635,_ZNK7emhash57HashMapImmSt4hashImESt8equal_toImESaISt4pairImmEEE8max_sizeEv
FNDA:54,_ZNK7emhash57HashMapImmSt4hashImESt8equal_toImESaISt4pairImmEEE8max_sizeEv
FN:635,_ZNK7emhash57HashMapIhhSt4hashIhESt8equal_toIhESaISt4pairIhhEEE8max_sizeEv
FNDA:54,_ZNK7emhash57HashMapIhhSt4hashIhESt8equal_toIhESaISt4pairIhhEEE8max_sizeEv
FN:635,_ZNK7emhash57HashMapIttSt4hashItESt8equal_toItESaISt4pairIttEEE8max_sizeEv
FNDA:54,_ZNK7emhash57HashMapIttSt4hashItESt8equal_toItESaISt4pairIttEEE8max_sizeEv
FN:635,_ZNK7emhash57HashMapIiiSt4hashIiESt8equal_toIiESaISt4pairIiiEEE8max_sizeEv
FNDA:74,_ZNK7emhash57HashMapIiiSt4hashIiESt8equal_toIiESaISt4pairIiiEEE8max_sizeEv
FN:763,_ZN7emhash57HashMapIllSt4hashIlESt8equal_toIlESaISt4pairIllEEE4findIlEENS8_8iteratorERKT_
FNDA:13,_ZN7emhash57HashMapIllSt4hashIlESt8equal_toIlESaISt4pairIllEEE4findIlEENS8_8iteratorERKT_
FN:763,_ZN7emhash57HashMapIjjSt4hashIjESt8equal_toIjESaISt4pairIjjEEE4findIjEENS8_8iteratorERKT_
FNDA:13,_ZN7emhash57HashMapIjjSt4hashIjESt8equal_toIjESaISt4pairIjjEEE4findIjEENS8_8iteratorERKT_
FN:763,_ZN7emhash57HashMapImmSt4hashImESt8equal_toImESaISt4pairImmEEE4findImEENS8_8iteratorERKT_
FNDA:13,_ZN7emhash57HashMapImmSt4hashImESt8equal_toImESaISt4pairImmEEE4findImEENS8_8iteratorERKT_
FN:763,_ZN7emhash57HashMapINSt7__cxx1112basic_stringIcSt11char_traitsIcESaIcEEEiSt4hashIS6_ESt8equal_toIS6_ESaISt4pairIS6_iEEE4findIA1_cEENSE_8iteratorERKT_
FNDA:3,_ZN7emhash57HashMapINSt7__cxx1112basic_stringIcSt11char_traitsIcESaIcEEEiSt4hashIS6_ESt8equal_toIS6_ESaISt4pairIS6_iEEE4findIA1_cEENSE_8iteratorERKT_
FN:763,_ZN7emhash57HashMapIhhSt4hashIhESt8equal_toIhESaISt4pairIhhEEE4findIhEENS8_8iteratorERKT_
FNDA:13,_ZN7emhash57HashMapIhhSt4hashIhESt8equal_toIhESaISt4pairIhhEEE4findIhEENS8_8iteratorERKT_
FN:763,_ZN7emhash57HashMapIaaSt4hashIaESt8equal_toIaESaISt4pairIaaEEE4findIaEENS8_8iteratorERKT_
FNDA:13,_ZN7emhash57HashMapIaaSt4hashIaESt8equal_toIaESaISt4pairIaaEEE4findIaEENS8_8iteratorERKT_
FN:763,_ZN7emhash57HashMapIiiSt4hashIiESt8equal_toIiESaISt4pairIiiEEE4findIiEENS8_8iteratorERKT_
FNDA:32,_ZN7emhash57HashMapIiiSt4hashIiESt8equal_toIiESaISt4pairIiiEEE4findIiEENS8_8iteratorERKT_
FN:763,_ZN7emhash57HashMapINSt7__cxx1112basic_stringIcSt11char_traitsIcESaIcEEEiSt4hashIS6_ESt8equal_toIS6_ESaISt4pairIS6_iEEE4findIA6_cEENSE_8iteratorERKT_
FNDA:1,_ZN7emhash57HashMapINSt7__cxx1112basic_stringIcSt11char_traitsIcESaIcEEEiSt4hashIS6_ESt8equal_toIS6_ESaISt4pairIS6_iEEE4findIA6_cEENSE_8iteratorERKT_
FN:763,_ZN7emhash57HashMapIssSt4hashIsESt8equal_toIsESaISt4pairIssEEE4findIsEENS8_8iteratorERKT_
FNDA:13,_ZN7emhash57HashMapIssSt4hashIsESt8equal_toIsESaISt4pairIssEEE4findIsEENS8_8iteratorERKT_
FN:763,_ZN7emhash57HashMapIttSt4hashItESt8equal_toItESaISt4pairIttEEE4findItEENS8_8iteratorERKT_
FNDA:13,_ZN7emhash57HashMapIttSt4hashItESt8equal_toItESaISt4pairIttEEE4findItEENS8_8iteratorERKT_
FN:763,_ZN7emhash57HashMapINSt7__cxx1112basic_stringIcSt11char_traitsIcESaIcEEEiSt4hashIS6_ESt8equal_toIS6_ESaISt4pairIS6_iEEE4findIS6_EENSE_8iteratorERKT_
FNDA:1,_ZN7emhash57HashMapINSt7__cxx1112basic_stringIcSt11char_traitsIcESaIcEEEiSt4hashIS6_ESt8equal_toIS6_ESaISt4pairIS6_iEEE4findIS6_EENSE_8iteratorERKT_
FN:769,_ZN7emhash57HashMapIssSt4hashIsESt8equal_toIsESaISt4pairIssEEE4findIsEENS8_8iteratorERKT_i
FNDA:2720,_ZN7emhash57HashMapIssSt4hashIsESt8equal_toIsESaISt4pairIssEEE4findIsEENS8_8iteratorERKT_i
FN:769,_ZN7emhash57HashMapIaaSt4hashIaESt8equal_toIaESaISt4pairIaaEEE4findIaEENS8_8iteratorERKT_i
FNDA:2228,_ZN7emhash57HashMapIaaSt4hashIaESt8equal_toIaESaISt4pairIaaEEE4findIaEENS8_8iteratorERKT_i
FN:769,_ZN7emhash57HashMapIllSt4hashIlESt8equal_toIlESaISt4pairIllEEE4findIlEENS8_8iteratorERKT_i
FNDA:2720,_ZN7emhash57HashMapIllSt4hashIlESt8equal_toIlESaISt4pairIllEEE4findIlEENS8_8iteratorERKT_i
FN:769,_ZN7emhash57HashMapIiiSt4hashIiESt8equal_toIiESaISt4pairIiiEEE4findIiEENS8_8iteratorERKT_i
FNDA:4996,_ZN7emhash57HashMapIiiSt4hashIiESt8equal_toIiESaISt4pairIiiEEE4findIiEENS8_8iteratorERKT_i
FN:769,_ZN7emhash57HashMapImmSt4hashImESt8equal_toImESaISt4pairImmEEE4findImEENS8_8iteratorERKT_i
FNDA:2720,_ZN7emhash57HashMapImmSt4hashImESt8equal_toImESaISt4pairImmEEE4findImEENS8_8iteratorERKT_i
FN:769,_ZN7emhash57HashMapIttSt4hashItESt8equal_toItESaISt4pairIttEEE4findItEENS8_8iteratorERKT_i
FNDA:2720,_ZN7emhash57HashMapIttSt4hashItESt8equal_toItESaISt4pairIttEEE4findItEENS8_8iteratorERKT_i
FN:769,_ZN7emhash57HashMapIhhSt4hashIhESt8equal_toIhESaISt4pairIhhEEE4findIhEENS8_8iteratorERKT_i
FNDA:2720,_ZN7emhash57HashMapIhhSt4hashIhESt8equal_toIhESaISt4pairIhhEEE4findIhEENS8_8iteratorERKT_i
FN:769,_ZN7emhash57HashMapIjjSt4hashIjESt8equal_toIjESaISt4pairIjjEEE4findIjEENS8_8iteratorERKT_i
FNDA:2720,_ZN7emhash57HashMapIjjSt4hashIjESt8equal_toIjESaISt4pairIjjEEE4findIjEENS8_8iteratorERKT_i
FN:809,_ZNK7emhash57HashMapImmSt4hashImESt8equal_toImESaISt4pairImmEEE8containsImEEbRKT_
FNDA:1,_ZNK7emhash57HashMapImmSt4hashImESt8equal_toImESaISt4pairImmEEE8containsImEEbRKT_
FN:809,_ZNK7emhash57HashMapIssSt4hashIsESt8equal_toIsESaISt4pairIssEEE8containsIsEEbRKT_
FNDA:1,_ZNK7emhash57HashMapIssSt4hashIsESt8equal_toIsESaISt4pairIssEEE8containsIsEEbRKT_
FN:809,_ZNK7emhash57HashMapIhhSt4hashIhESt8equal_toIhESaISt4pairIhhEEE8containsIhEEbRKT_
FNDA:1,_ZNK7emhash57HashMapIhhSt4hashIhESt8equal_toIhESaISt4pairIhhEEE8containsIhEEbRKT_
FN:809,_ZNK7emhash57HashMapIllSt4hashIlESt8equal_toIlESaISt4pairIllEEE8containsIlEEbRKT_
FNDA:1,_ZNK7emhash57HashMapIllSt4hashIlESt8equal_toIlESaISt4pairIllEEE8containsIlEEbRKT_
FN:809,_ZNK7emhash57HashMapIaaSt4hashIaESt8equal_toIaESaISt4pairIaaEEE8containsIaEEbRKT_
FNDA:1,_ZNK7emhash57HashMapIaaSt4hashIaESt8equal_toIaESaISt4pairIaaEEE8containsIaEEbRKT_
FN:809,_ZNK7emhash57HashMapIttSt4hashItESt8equal_toItESaISt4pairIttEEE8containsItEEbRKT_
FNDA:1,_ZNK7emhash57HashMapIttSt4hashItESt8equal_toItESaISt4pairIttEEE8containsItEEbRKT_
FN:809,_ZNK7emhash57HashMapIiiSt4hashIiESt8equal_toIiESaISt4pairIiiEEE8containsIiEEbRKT_
FNDA:1,_ZNK7emhash57HashMapIiiSt4hashIiESt8equal_toIiESaISt4pairIiiEEE8containsIiEEbRKT_
FN:809,_ZNK7emhash57HashMapIjjSt4hashIjESt8equal_toIjESaISt4pairIjjEEE8containsIjEEbRKT_
FNDA:1,_ZNK7emhash57HashMapIjjSt4hashIjESt8equal_toIjESaISt4pairIjjEEE8containsIjEEbRKT_
FN:1033,_ZN7emhash57HashMapIhhSt4hashIhESt8equal_toIhESaISt4pairIhhEEE13insert_uniqueIRKhhEEiOT_OT0_
FNDA:1,_ZN7emhash57HashMapIhhSt4hashIhESt8equal_toIhESaISt4pairIhhEEE13insert_uniqueIRKhhEEiOT_OT0_
FN:1033,_ZN7emhash57HashMapIiiSt4hashIiESt8equal_toIiESaISt4pairIiiEEE13insert_uniqueIRKiiEEiOT_OT0_
FNDA:1,_ZN7emhash57HashMapIiiSt4hashIiESt8equal_toIiESaISt4pairIiiEEE13insert_uniqueIRKiiEEiOT_OT0_
FN:1033,_ZN7emhash57HashMapIiiSt4hashIiESt8equal_toIiESaISt4pairIiiEEE13insert_uniqueIRiSA_EEiOT_OT0_
FNDA:400,_ZN7emhash57HashMapIiiSt4hashIiESt8equal_toIiESaISt4pairIiiEEE13insert_uniqueIRiSA_EEiOT_OT0_
FN:1033,_ZN7emhash57HashMapIiiSt4hashIiESt8equal_toIiESaISt4pairIiiEEE13insert_uniqueIRiiEEiOT_OT0_
FNDA:1,_ZN7emhash57HashMapIiiSt4hashIiESt8equal_toIiESaISt4pairIiiEEE13insert_uniqueIRiiEEiOT_OT0_
FN:1033,_ZN7emhash57HashMapIssSt4hashIsESt8equal_toIsESaISt4pairIssEEE13insert_uniqueIRssEEiOT_OT0_
FNDA:1,_ZN7emhash57HashMapIssSt4hashIsESt8equal_toIsESaISt4pairIssEEE13insert_uniqueIRssEEiOT_OT0_
FN:1033,_ZN7emhash57HashMapIssSt4hashIsESt8equal_toIsESaISt4pairIssEEE13insert_uniqueIRsSA_EEiOT_OT0_
FNDA:400,_ZN7emhash57HashMapIssSt4hashIsESt8equal_toIsESaISt4pairIssEEE13insert_uniqueIRsSA_EEiOT_OT0_
FN:1033,_ZN7emhash57HashMapIllSt4hashIlESt8equal_toIlESaISt4pairIllEEE13insert_uniqueIRKllEEiOT_OT0_
FNDA:1,_ZN7emhash57HashMapIllSt4hashIlESt8equal_toIlESaISt4pairIllEEE13insert_uniqueIRKllEEiOT_OT0_
FN:1033,_ZN7emhash57HashMapIssSt4hashIsESt8equal_toIsESaISt4pairIssEEE13insert_uniqueIRKssEEiOT_OT0_
FNDA:1,_ZN7emhash57HashMapIssSt4hashIsESt8equal_toIsESaISt4pairIssEEE13insert_uniqueIRKssEEiOT_OT0_
FN:1033,_ZN7emhash57HashMapIllSt4hashIlESt8equal_toIlESaISt4pairIllEEE13insert_uniqueIRlSA_EEiOT_OT0_
FNDA:400,_ZN7emhash57HashMapIllSt4hashIlESt8equal_toIlESaISt4pairIllEEE13insert_uniqueIRlSA_EEiOT_OT0_
FN:1033,_ZN7emhash57HashMapIllSt4hashIlESt8equal_toIlESaISt4pairIllEEE13insert_uniqueIRllEEiOT_OT0_
FNDA:1,_ZN7emhash57HashMapIllSt4hashIlESt8equal_toIlESaISt4pairIllEEE13insert_uniqueIRllEEiOT_OT0_
FN:1033,_ZN7emhash57HashMapIjjSt4hashIjESt8equal_toIjESaISt4pairIjjEEE13insert_uniqueIRjSA_EEiOT_OT0_
FNDA:400,_ZN7emhash57HashMapIjjSt4hashIjESt8equal_toIjESaISt4pairIjjEEE13insert_uniqueIRjSA_EEiOT_OT0_
FN:1033,_ZN7emhash57HashMapImmSt4hashImESt8equal_toImESaISt4pairImmEEE13insert_uniqueIRmmEEiOT_OT0_
FNDA:1,_ZN7emhash57HashMapImmSt4hashImESt8equal_toImESaISt4pairImmEEE13insert_uniqueIRmmEEiOT_OT0_
FN:1033,_ZN7emhash57HashMapIhhSt4hashIhESt8equal_toIhESaISt4pairIhhEEE13insert_uniqueIRhSA_EEiOT_OT0_
FNDA:400,_ZN7emhash57HashMapIhhSt4hashIhESt8equal_toIhESaISt4pairIhhEEE13insert_uniqueIRhSA_EEiOT_OT0_
FN:1033,_ZN7emhash57HashMapImmSt4hashImESt8equal_toImESaISt4pairImmEEE13insert_uniqueIRmSA_EEiOT_OT0_
FNDA:400,_ZN7emhash57HashMapImmSt4hashImESt8equal_toImESaISt4pairImmEEE13insert_uniqueIRmSA_EEiOT_OT0_
FN:1033,_ZN7emhash57HashMapImmSt4hashImESt8equal_toImESaISt4pairImmEEE13insert_uniqueIRKmmEEiOT_OT0_
FNDA:1,_ZN7emhash57HashMapImmSt4hashImESt8equal_toImESaISt4pairImmEEE13insert_uniqueIRKmmEEiOT_OT0_
FN:1033,_ZN7emhash57HashMapIhhSt4hashIhESt8equal_toIhESaISt4pairIhhEEE13insert_uniqueIRhhEEiOT_OT0_
FNDA:1,_ZN7emhash57HashMapIhhSt4hashIhESt8equal_toIhESaISt4pairIhhEEE13insert_uniqueIRhhEEiOT_OT0_
FN:1033,_ZN7emhash57HashMapIttSt4hashItESt8equal_toItESaISt4pairIttEEE13insert_uniqueIRKttEEiOT_OT0_
FNDA:1,_ZN7emhash57HashMapIttSt4hashItESt8equal_toItESaISt4pairIttEEE13insert_uniqueIRKttEEiOT_OT0_
FN:1033,_ZN7emhash57HashMapIttSt4hashItESt8equal_toItESaISt4pairIttEEE13insert_uniqueIRtSA_EEiOT_OT0_
FNDA:400,_ZN7emhash57HashMapIttSt4hashItESt8equal_toItESaISt4pairIttEEE13insert_uniqueIRtSA_EEiOT_OT0_
FN:1033,_ZN7emhash57HashMapIttSt4hashItESt8equal_toItESaISt4pairIttEEE13insert_uniqueIRttEEiOT_OT0_
FNDA:1,_ZN7emhash57HashMapIttSt4hashItESt8equal_toItESaISt4pairIttEEE13insert_uniqueIRttEEiOT_OT0_
FN:1033,_ZN7emhash57HashMapIjjSt4hashIjESt8equal_toIjESaISt4pairIjjEEE13insert_uniqueIRKjjEEiOT_OT0_
FNDA:1,_ZN7emhash57HashMapIjjSt4hashIjESt8equal_toIjESaISt4pairIjjEEE13insert_uniqueIRKjjEEiOT_OT0_
FN:1033,_ZN7emhash57HashMapIjjSt4hashIjESt8equal_toIjESaISt4pairIjjEEE13insert_uniqueIRjjEEiOT_OT0_
FNDA:1,_ZN7emhash57HashMapIjjSt4hashIjESt8equal_toIjESaISt4pairIjjEEE13insert_uniqueIRjjEEiOT_OT0_
FN:1033,_ZN7emhash57HashMapIaaSt4hashIaESt8equal_toIaESaISt4pairIaaEEE13insert_uniqueIRKaaEEiOT_OT0_
FNDA:1,_ZN7emhash57HashMapIaaSt4hashIaESt8equal_toIaESaISt4pairIaaEEE13insert_uniqueIRKaaEEiOT_OT0_
FN:1033,_ZN7emhash57HashMapIaaSt4hashIaESt8equal_toIaESaISt4pairIaaEEE13insert_uniqueIRaSA_EEiOT_OT0_
FNDA:0,_ZN7emhash57HashMapIaaSt4hashIaESt8equal_toIaESaISt4pairIaaEEE13insert_uniqueIRaSA_EEiOT_OT0_
FN:1033,_ZN7emhash57HashMapIaaSt4hashIaESt8equal_toIaESaISt4pairIaaEEE13insert_uniqueIRaaEEiOT_OT0_
FNDA:1,_ZN7emhash57HashMapIaaSt4hashIaESt8equal_toIaESaISt4pairIaaEEE13insert_uniqueIRaaEEiOT_OT0_
FN:1114,_ZN7emhash57HashMapImmSt4hashImESt8equal_toImESaISt4pairImmEEEixERKm
FNDA:590,_ZN7emhash57HashMapImmSt4hashImESt8equal_toImESaISt4pairImmEEEixERKm
FN:1114,_ZN7emhash57HashMapIjjSt4hashIjESt8equal_toIjESaISt4pairIjjEEEixERKj
FNDA:590,_ZN7emhash57HashMapIjjSt4hashIjESt8equal_toIjESaISt4pairIjjEEEixERKj
FN:1114,_ZN7emhash57HashMapIllSt4hashIlESt8equal_toIlESaISt4pairIllEEEixERKl
FNDA:590,_ZN7emhash57HashMapIllSt4hashIlESt8equal_toIlESaISt4pairIllEEEixERKl
FN:1114,_ZN7emhash57HashMapIiiSt4hashIiESt8equal_toIiESaISt4pairIiiEEEixERKi
FNDA:598,_ZN7emhash57HashMapIiiSt4hashIiESt8equal_toIiESaISt4pairIiiEEEixERKi
FN:1114,_ZN7emhash57HashMapIaaSt4hashIaESt8equal_toIaESaISt4pairIaaEEEixERKa
FNDA:590,_ZN7emhash57HashMapIaaSt4hashIaESt8equal_toIaESaISt4pairIaaEEEixERKa
FN:1114,_ZN7emhash57HashMapIssSt4hashIsESt8equal_toIsESaISt4pairIssEEEixERKs
FNDA:590,_ZN7emhash57HashMapIssSt4hashIsESt8equal_toIsESaISt4pairIssEEEixERKs
FN:1114,_ZN7emhash57HashMapIhhSt4hashIhESt8equal_toIhESaISt4pairIhhEEEixERKh
FNDA:590,_ZN7emhash57HashMapIhhSt4hashIhESt8equal_toIhESaISt4pairIhhEEEixERKh
FN:1114,_ZN7emhash57HashMapIttSt4hashItESt8equal_toItESaISt4pairIttEEEixERKt
FNDA:590,_ZN7emhash57HashMapIttSt4hashItESt8equal_toItESaISt4pairIttEEEixERKt
FN:1125,_ZN7emhash57HashMapIiiSt4hashIiESt8equal_toIiESaISt4pairIiiEEEixEOi
FNDA:10000,_ZN7emhash57HashMapIiiSt4hashIiESt8equal_toIiESaISt4pairIiiEEEixEOi
FN:1125,_ZN7emhash57HashMapINSt7__cxx1112basic_stringIcSt11char_traitsIcESaIcEEEiSt4hashIS6_ESt8equal_toIS6_ESaISt4pairIS6_iEEEixEOS6_
FNDA:2,_ZN7emhash57HashMapINSt7__cxx1112basic_stringIcSt11char_traitsIcESaIcEEEiSt4hashIS6_ESt8equal_toIS6_ESaISt4pairIS6_iEEEixEOS6_
FN:1139,_ZN7emhash57HashMapIhhSt4hashIhESt8equal_toIhESaISt4pairIhhEEE5eraseERKh
FNDA:252,_ZN7emhash57HashMapIhhSt4hashIhESt8equal_toIhESaISt4pairIhhEEE5eraseERKh
FN:1139,_ZN7emhash57HashMapImmSt4hashImESt8equal_toImESaISt4pairImmEEE5eraseERKm
FNDA:252,_ZN7emhash57HashMapImmSt4hashImESt8equal_toImESaISt4pairImmEEE5eraseERKm
FN:1139,_ZN7emhash57HashMapIjjSt4hashIjESt8equal_toIjESaISt4pairIjjEEE5eraseERKj
FNDA:252,_ZN7emhash57HashMapIjjSt4hashIjESt8equal_toIjESaISt4pairIjjEEE5eraseERKj
FN:1139,_ZN7emhash57HashMapINSt7__cxx1112basic_stringIcSt11char_traitsIcESaIcEEEiSt4hashIS6_ESt8equal_toIS6_ESaISt4pairIS6_iEEE5eraseERKS6_
FNDA:1,_ZN7emhash57HashMapINSt7__cxx1112basic_stringIcSt11char_traitsIcESaIcEEEiSt4hashIS6_ESt8equal_toIS6_ESaISt4pairIS6_iEEE5eraseERKS6_
FN:1139,_ZN7emhash57HashMapIttSt4hashItESt8equal_toItESaISt4pairIttEEE5eraseERKt
FNDA:252,_ZN7emhash57HashMapIttSt4hashItESt8equal_toItESaISt4pairIttEEE5eraseERKt
FN:1139,_ZN7emhash57HashMapIssSt4hashIsESt8equal_toIsESaISt4pairIssEEE5eraseERKs
FNDA:252,_ZN7emhash57HashMapIssSt4hashIsESt8equal_toIsESaISt4pairIssEEE5eraseERKs
FN:1139,_ZN7emhash57HashMapIllSt4hashIlESt8equal_toIlESaISt4pairIllEEE5eraseERKl
FNDA:252,_ZN7emhash57HashMapIllSt4hashIlESt8equal_toIlESaISt4pairIllEEE5eraseERKl
FN:1139,_ZN7emhash57HashMapIaaSt4hashIaESt8equal_toIaESaISt4pairIaaEEE5eraseERKa
FNDA:252,_ZN7emhash57HashMapIaaSt4hashIaESt8equal_toIaESaISt4pairIaaEEE5eraseERKa
FN:1139,_ZN7emhash57HashMapIiiSt4hashIiESt8equal_toIiESaISt4pairIiiEEE5eraseERKi
FNDA:5260,_ZN7emhash57HashMapIiiSt4hashIiESt8equal_toIiESaISt4pairIiiEEE5eraseERKi
FN:1174,_ZN7emhash57HashMapIttSt4hashItESt8equal_toItESaISt4pairIttEEE18need_explicit_dtorEv
FNDA:776,_ZN7emhash57HashMapIttSt4hashItESt8equal_toItESaISt4pairIttEEE18need_explicit_dtorEv
FN:1174,_ZN7emhash57HashMapIssSt4hashIsESt8equal_toIsESaISt4pairIssEEE18need_explicit_dtorEv
FNDA:776,_ZN7emhash57HashMapIssSt4hashIsESt8equal_toIsESaISt4pairIssEEE18need_explicit_dtorEv
FN:1174,_ZN7emhash57HashMapIaaSt4hashIaESt8equal_toIaESaISt4pairIaaEEE18need_explicit_dtorEv
FNDA:387,_ZN7emhash57HashMapIaaSt4hashIaESt8equal_toIaESaISt4pairIaaEEE18need_explicit_dtorEv
FN:1174,_ZN7emhash57HashMapImmSt4hashImESt8equal_toImESaISt4pairImmEEE18need_explicit_dtorEv
FNDA:776,_ZN7emhash57HashMapImmSt4hashImESt8equal_toImESaISt4pairImmEEE18need_explicit_dtorEv
FN:1174,_ZN7emhash57HashMapIiiSt4hashIiESt8equal_toIiESaISt4pairIiiEEE18need_explicit_dtorEv
FNDA:7397,_ZN7emhash57HashMapIiiSt4hashIiESt8equal_toIiESaISt4pairIiiEEE18need_explicit_dtorEv
FN:1174,_ZN7emhash57HashMapIhhSt4hashIhESt8equal_toIhESaISt4pairIhhEEE18need_explicit_dtorEv
FNDA:776,_ZN7emhash57HashMapIhhSt4hashIhESt8equal_toIhESaISt4pairIhhEEE18need_explicit_dtorEv
FN:1174,_ZN7emhash57HashMapIjjSt4hashIjESt8equal_toIjESaISt4pairIjjEEE18need_explicit_dtorEv
FNDA:776,_ZN7emhash57HashMapIjjSt4hashIjESt8equal_toIjESaISt4pairIjjEEE18need_explicit_dtorEv
FN:1174,_ZN7emhash57HashMapIllSt4hashIlESt8equal_toIlESaISt4pairIllEEE18need_explicit_dtorEv
FNDA:776,_ZN7emhash57HashMapIllSt4hashIlESt8equal_toIlESaISt4pairIllEEE18need_explicit_dtorEv
FN:1174,_ZN7emhash57HashMapINSt7__cxx1112basic_stringIcSt11char_traitsIcESaIcEEEiSt4hashIS6_ESt8equal_toIS6_ESaISt4pairIS6_iEEE18need_explicit_dtorEv
FNDA:3,_ZN7emhash57HashMapINSt7__cxx1112basic_stringIcSt11char_traitsIcESaIcEEEiSt4hashIS6_ESt8equal_toIS6_ESaISt4pairIS6_iEEE18need_explicit_dtorEv
FN:1190,_ZN7emhash57HashMapINSt7__cxx1112basic_stringIcSt11char_traitsIcESaIcEEEiSt4hashIS6_ESt8equal_toIS6_ESaISt4pairIS6_iEEE7clearkvEv
FNDA:1,_ZN7emhash57HashMapINSt7__cxx1112basic_stringIcSt11char_traitsIcESaIcEEEiSt4hashIS6_ESt8equal_toIS6_ESaISt4pairIS6_iEEE7clearkvEv
FN:1190,_ZN7emhash57HashMapIhhSt4hashIhESt8equal_toIhESaISt4pairIhhEEE7clearkvEv
FNDA:11,_ZN7emhash57HashMapIhhSt4hashIhESt8equal_toIhESaISt4pairIhhEEE7clearkvEv
FN:1190,_ZN7emhash57HashMapIssSt4hashIsESt8equal_toIsESaISt4pairIssEEE7clearkvEv
FNDA:11,_ZN7emhash57HashMapIssSt4hashIsESt8equal_toIsESaISt4pairIssEEE7clearkvEv
FN:1190,_ZN7emhash57HashMapIttSt4hashItESt8equal_toItESaISt4pairIttEEE7clearkvEv
FNDA:11,_ZN7emhash57HashMapIttSt4hashItESt8equal_toItESaISt4pairIttEEE7clearkvEv
FN:1190,_ZN7emhash57HashMapIllSt4hashIlESt8equal_toIlESaISt4pairIllEEE7clearkvEv
FNDA:11,_ZN7emhash57HashMapIllSt4hashIlESt8equal_toIlESaISt4pairIllEEE7clearkvEv
FN:1190,_ZN7emhash57HashMapIaaSt4hashIaESt8equal_toIaESaISt4pairIaaEEE7clearkvEv
FNDA:11,_ZN7emhash57HashMapIaaSt4hashIaESt8equal_toIaESaISt4pairIaaEEE7clearkvEv
FN:1190,_ZN7emhash57HashMapIjjSt4hashIjESt8equal_toIjESaISt4pairIjjEEE7clearkvEv
FNDA:11,_ZN7emhash57HashMapIjjSt4hashIjESt8equal_toIjESaISt4pairIjjEEE7clearkvEv
FN:1190,_ZN7emhash57HashMapImmSt4hashImESt8equal_toImESaISt4pairImmEEE7clearkvEv
FNDA:11,_ZN7emhash57HashMapImmSt4hashImESt8equal_toImESaISt4pairImmEEE7clearkvEv
FN:1190,_ZN7emhash57HashMapIiiSt4hashIiESt8equal_toIiESaISt4pairIiiEEE7clearkvEv
FNDA:15,_ZN7emhash57HashMapIiiSt4hashIiESt8equal_toIiESaISt4pairIiiEEE7clearkvEv
FN:1200,_ZN7emhash57HashMapImmSt4hashImESt8equal_toImESaISt4pairImmEEE12reset_bucketEi
FNDA:280,_ZN7emhash57HashMapImmSt4hashImESt8equal_toImESaISt4pairImmEEE12reset_bucketEi
FN:1200,_ZN7emhash57HashMapIllSt4hashIlESt8equal_toIlESaISt4pairIllEEE12reset_bucketEi
FNDA:280,_ZN7emhash57HashMapIllSt4hashIlESt8equal_toIlESaISt4pairIllEEE12reset_bucketEi
FN:1200,_ZN7emhash57HashMapIjjSt4hashIjESt8equal_toIjESaISt4pairIjjEEE12reset_bucketEi
FNDA:280,_ZN7emhash57HashMapIjjSt4hashIjESt8equal_toIjESaISt4pairIjjEEE12reset_bucketEi
FN:1200,_ZN7emhash57HashMapINSt7__cxx1112basic_stringIcSt11char_traitsIcESaIcEEEiSt4hashIS6_ESt8equal_toIS6_ESaISt4pairIS6_iEEE12reset_bucketEi
FNDA:2,_ZN7emhash57HashMapINSt7__cxx1112basic_stringIcSt11char_traitsIcESaIcEEEiSt4hashIS6_ESt8equal_toIS6_ESaISt4pairIS6_iEEE12reset_bucketEi
FN:1200,_ZN7emhash57HashMapIhhSt4hashIhESt8equal_toIhESaISt4pairIhhEEE12reset_bucketEi
FNDA:280,_ZN7emhash57HashMapIhhSt4hashIhESt8equal_toIhESaISt4pairIhhEEE12reset_bucketEi
FN:1200,_ZN7emhash57HashMapIaaSt4hashIaESt8equal_toIaESaISt4pairIaaEEE12reset_bucketEi
FNDA:270,_ZN7emhash57HashMapIaaSt4hashIaESt8equal_toIaESaISt4pairIaaEEE12reset_bucketEi
FN:1200,_ZN7emhash57HashMapIiiSt4hashIiESt8equal_toIiESaISt4pairIiiEEE12reset_bucketEi
FNDA:5297,_ZN7emhash57HashMapIiiSt4hashIiESt8equal_toIiESaISt4pairIiiEEE12reset_bucketEi
FN:1200,_ZN7emhash57HashMapIssSt4hashIsESt8equal_toIsESaISt4pairIssEEE12reset_bucketEi
FNDA:280,_ZN7emhash57HashMapIssSt4hashIsESt8equal_toIsESaISt4pairIssEEE12reset_bucketEi
FN:1200,_ZN7emhash57HashMapIttSt4hashItESt8equal_toItESaISt4pairIttEEE12reset_bucketEi
FNDA:280,_ZN7emhash57HashMapIttSt4hashItESt8equal_toItESaISt4pairIttEEE12reset_bucketEi
FN:1212,_ZN7emhash57HashMapIssSt4hashIsESt8equal_toIsESaISt4pairIssEEE5clearEv
FNDA:1,_ZN7emhash57HashMapIssSt4hashIsESt8equal_toIsESaISt4pairIssEEE5clearEv
FN:1212,_ZN7emhash57HashMapIaaSt4hashIaESt8equal_toIaESaISt4pairIaaEEE5clearEv
FNDA:1,_ZN7emhash57HashMapIaaSt4hashIaESt8equal_toIaESaISt4pairIaaEEE5clearEv
FN:1212,_ZN7emhash57HashMapIttSt4hashItESt8equal_toItESaISt4pairIttEEE5clearEv
FNDA:1,_ZN7emhash57HashMapIttSt4hashItESt8equal_toItESaISt4pairIttEEE5clearEv
FN:1212,_ZN7emhash57HashMapImmSt4hashImESt8equal_toImESaISt4pairImmEEE5clearEv
FNDA:1,_ZN7emhash57HashMapImmSt4hashImESt8equal_toImESaISt4pairImmEEE5clearEv
FN:1212,_ZN7emhash57HashMapIhhSt4hashIhESt8equal_toIhESaISt4pairIhhEEE5clearEv
FNDA:1,_ZN7emhash57HashMapIhhSt4hashIhESt8equal_toIhESaISt4pairIhhEEE5clearEv
FN:1212,_ZN7emhash57HashMapIiiSt4hashIiESt8equal_toIiESaISt4pairIiiEEE5clearEv
FNDA:1,_ZN7emhash57HashMapIiiSt4hashIiESt8equal_toIiESaISt4pairIiiEEE5clearEv
FN:1212,_ZN7emhash57HashMapIjjSt4hashIjESt8equal_toIjESaISt4pairIjjEEE5clearEv
FNDA:1,_ZN7emhash57HashMapIjjSt4hashIjESt8equal_toIjESaISt4pairIjjEEE5clearEv
FN:1212,_ZN7emhash57HashMapIllSt4hashIlESt8equal_toIlESaISt4pairIllEEE5clearEv
FNDA:1,_ZN7emhash57HashMapIllSt4hashIlESt8equal_toIlESaISt4pairIllEEE5clearEv
FN:1233,_ZN7emhash57HashMapIssSt4hashIsESt8equal_toIsESaISt4pairIssEEE13shrink_to_fitEf
FNDA:1,_ZN7emhash57HashMapIssSt4hashIsESt8equal_toIsESaISt4pairIssEEE13shrink_to_fitEf
FN:1233,_ZN7emhash57HashMapIhhSt4hashIhESt8equal_toIhESaISt4pairIhhEEE13shrink_to_fitEf
FNDA:1,_ZN7emhash57HashMapIhhSt4hashIhESt8equal_toIhESaISt4pairIhhEEE13shrink_to_fitEf
FN:1233,_ZN7emhash57HashMapIllSt4hashIlESt8equal_toIlESaISt4pairIllEEE13shrink_to_fitEf
FNDA:1,_ZN7emhash57HashMapIllSt4hashIlESt8equal_toIlESaISt4pairIllEEE13shrink_to_fitEf
FN:1233,_ZN7emhash57HashMapIiiSt4hashIiESt8equal_toIiESaISt4pairIiiEEE13shrink_to_fitEf
FNDA:1,_ZN7emhash57HashMapIiiSt4hashIiESt8equal_toIiESaISt4pairIiiEEE13shrink_to_fitEf
FN:1233,_ZN7emhash57HashMapImmSt4hashImESt8equal_toImESaISt4pairImmEEE13shrink_to_fitEf
FNDA:1,_ZN7emhash57HashMapImmSt4hashImESt8equal_toImESaISt4pairImmEEE13shrink_to_fitEf
FN:1233,_ZN7emhash57HashMapIttSt4hashItESt8equal_toItESaISt4pairIttEEE13shrink_to_fitEf
FNDA:1,_ZN7emhash57HashMapIttSt4hashItESt8equal_toItESaISt4pairIttEEE13shrink_to_fitEf
FN:1233,_ZN7emhash57HashMapIaaSt4hashIaESt8equal_toIaESaISt4pairIaaEEE13shrink_to_fitEf
FNDA:1,_ZN7emhash57HashMapIaaSt4hashIaESt8equal_toIaESaISt4pairIaaEEE13shrink_to_fitEf
FN:1233,_ZN7emhash57HashMapIjjSt4hashIjESt8equal_toIjESaISt4pairIjjEEE13shrink_to_fitEf
FNDA:1,_ZN7emhash57HashMapIjjSt4hashIjESt8equal_toIjESaISt4pairIjjEEE13shrink_to_fitEf
FN:1243,_ZN7emhash57HashMapIttSt4hashItESt8equal_toItESaISt4pairIttEEE7reserveEm
FNDA:993,_ZN7emhash57HashMapIttSt4hashItESt8equal_toItESaISt4pairIttEEE7reserveEm
FN:1243,_ZN7emhash57HashMapImmSt4hashImESt8equal_toImESaISt4pairImmEEE7reserveEm
FNDA:993,_ZN7emhash57HashMapImmSt4hashImESt8equal_toImESaISt4pairImmEEE7reserveEm
FN:1243,_ZN7emhash57HashMapIssSt4hashIsESt8equal_toIsESaISt4pairIssEEE7reserveEm
FNDA:993,_ZN7emhash57HashMapIssSt4hashIsESt8equal_toIsESaISt4pairIssEEE7reserveEm
FN:1243,_ZN7emhash57HashMapIllSt4hashIlESt8equal_toIlESaISt4pairIllEEE7reserveEm
FNDA:993,_ZN7emhash57HashMapIllSt4hashIlESt8equal_toIlESaISt4pairIllEEE7reserveEm
FN:1243,_ZN7emhash57HashMapIjjSt4hashIjESt8equal_toIjESaISt4pairIjjEEE7reserveEm
FNDA:993,_ZN7emhash57HashMapIjjSt4hashIjESt8equal_toIjESaISt4pairIjjEEE7reserveEm
FN:1243,_ZN7emhash57HashMapIiiSt4hashIiESt8equal_toIiESaISt4pairIiiEEE7reserveEm
FNDA:11001,_ZN7emhash57HashMapIiiSt4hashIiESt8equal_toIiESaISt4pairIiiEEE7reserveEm
FN:1243,_ZN7emhash57HashMapINSt7__cxx1112basic_stringIcSt11char_traitsIcESaIcEEEiSt4hashIS6_ESt8equal_toIS6_ESaISt4pairIS6_iEEE7reserveEm
FNDA:2,_ZN7emhash57HashMapINSt7__cxx1112basic_stringIcSt11char_traitsIcESaIcEEEiSt4hashIS6_ESt8equal_toIS6_ESaISt4pairIS6_iEEE7reserveEm
FN:1243,_ZN7emhash57HashMapIaaSt4hashIaESt8equal_toIaESaISt4pairIaaEEE7reserveEm
FNDA:593,_ZN7emhash57HashMapIaaSt4hashIaESt8equal_toIaESaISt4pairIaaEEE7reserveEm
FN:1243,_ZN7emhash57HashMapIhhSt4hashIhESt8equal_toIhESaISt4pairIhhEEE7reserveEm
FNDA:993,_ZN7emhash57HashMapIhhSt4hashIhESt8equal_toIhESaISt4pairIhhEEE7reserveEm
FN:1273,_ZN7emhash57HashMapIiiSt4hashIiESt8equal_toIiESaISt4pairIiiEEE6rehashEm
FNDA:37,_ZN7emhash57HashMapIiiSt4hashIiESt8equal_toIiESaISt4pairIiiEEE6rehashEm
FN:1273,_ZN7emhash57HashMapIaaSt4hashIaESt8equal_toIaESaISt4pairIaaEEE6rehashEm
FNDA:17,_ZN7emhash57HashMapIaaSt4hashIaESt8equal_toIaESaISt4pairIaaEEE6rehashEm
FN:1273,_ZN7emhash57HashMapIttSt4hashItESt8equal_toItESaISt4pairIttEEE6rehashEm
FNDA:27,_ZN7emhash57HashMapIttSt4hashItESt8equal_toItESaISt4pairIttEEE6rehashEm
FN:1273,_ZN7emhash57HashMapIssSt4hashIsESt8equal_toIsESaISt4pairIssEEE6rehashEm
FNDA:27,_ZN7emhash57HashMapIssSt4hashIsESt8equal_toIsESaISt4pairIssEEE6rehashEm
FN:1273,_ZN7emhash57HashMapImmSt4hashImESt8equal_toImESaISt4pairImmEEE6rehashEm
FNDA:27,_ZN7emhash57HashMapImmSt4hashImESt8equal_toImESaISt4pairImmEEE6rehashEm
FN:1273,_ZN7emhash57HashMapIhhSt4hashIhESt8equal_toIhESaISt4pairIhhEEE6rehashEm
FNDA:27,_ZN7emhash57HashMapIhhSt4hashIhESt8equal_toIhESaISt4pairIhhEEE6rehashEm
FN:1273,_ZN7emhash57HashMapIllSt4hashIlESt8equal_toIlESaISt4pairIllEEE6rehashEm
FNDA:27,_ZN7emhash57HashMapIllSt4hashIlESt8equal_toIlESaISt4pairIllEEE6rehashEm
FN:1273,_ZN7emhash57HashMapINSt7__cxx1112basic_stringIcSt11char_traitsIcESaIcEEEiSt4hashIS6_ESt8equal_toIS6_ESaISt4pairIS6_iEEE6rehashEm
FNDA:1,_ZN7emhash57HashMapINSt7__cxx1112basic_stringIcSt11char_traitsIcESaIcEEEiSt4hashIS6_ESt8equal_toIS6_ESaISt4pairIS6_iEEE6rehashEm
FN:1273,_ZN7emhash57HashMapIjjSt4hashIjESt8equal_toIjESaISt4pairIjjEEE6rehashEm
FNDA:27,_ZN7emhash57HashMapIjjSt4hashIjESt8equal_toIjESaISt4pairIjjEEE6rehashEm
FN:1385,_ZN7emhash57HashMapIllSt4hashIlESt8equal_toIlESaISt4pairIllEEE12alloc_bucketEi
FNDA:27,_ZN7emhash57HashMapIllSt4hashIlESt8equal_toIlESaISt4pairIllEEE12alloc_bucketEi
FN:1385,_ZN7emhash57HashMapIhhSt4hashIhESt8equal_toIhESaISt4pairIhhEEE12alloc_bucketEi
FNDA:27,_ZN7emhash57HashMapIhhSt4hashIhESt8equal_toIhESaISt4pairIhhEEE12alloc_bucketEi
FN:1385,_ZN7emhash57HashMapIssSt4hashIsESt8equal_toIsESaISt4pairIssEEE12alloc_bucketEi
FNDA:27,_ZN7emhash57HashMapIssSt4hashIsESt8equal_toIsESaISt4pairIssEEE12alloc_bucketEi
FN:1385,_ZN7emhash57HashMapINSt7__cxx1112basic_stringIcSt11char_traitsIcESaIcEEEiSt4hashIS6_ESt8equal_toIS6_ESaISt4pairIS6_iEEE12alloc_bucketEi
FNDA:1,_ZN7emhash57HashMapINSt7__cxx1112basic_stringIcSt11char_traitsIcESaIcEEEiSt4hashIS6_ESt8equal_toIS6_ESaISt4pairIS6_iEEE12alloc_bucketEi
FN:1385,_ZN7emhash57HashMapIiiSt4hashIiESt8equal_toIiESaISt4pairIiiEEE12alloc_bucketEi
FNDA:37,_ZN7emhash57HashMapIiiSt4hashIiESt8equal_toIiESaISt4pairIiiEEE12alloc_bucketEi
FN:1385,_ZN7emhash57HashMapIttSt4hashItESt8equal_toItESaISt4pairIttEEE12alloc_bucketEi
FNDA:27,_ZN7emhash57HashMapIttSt4hashItESt8equal_toItESaISt4pairIttEEE12alloc_bucketEi
FN:1385,_ZN7emhash57HashMapIaaSt4hashIaESt8equal_toIaESaISt4pairIaaEEE12alloc_bucketEi
FNDA:17,_ZN7emhash57HashMapIaaSt4hashIaESt8equal_toIaESaISt4pairIaaEEE12alloc_bucketEi
FN:1385,_ZN7emhash57HashMapIjjSt4hashIjESt8equal_toIjESaISt4pairIjjEEE12alloc_bucketEi
FNDA:27,_ZN7emhash57HashMapIjjSt4hashIjESt8equal_toIjESaISt4pairIjjEEE12alloc_bucketEi
FN:1385,_ZN7emhash57HashMapImmSt4hashImESt8equal_toImESaISt4pairImmEEE12alloc_bucketEi
FNDA:27,_ZN7emhash57HashMapImmSt4hashImESt8equal_toImESaISt4pairImmEEE12alloc_bucketEi
FN:1395,_ZN7emhash57HashMapIssSt4hashIsESt8equal_toIsESaISt4pairIssEEE14dealloc_bucketEPNS_5entryIssEEi
FNDA:38,_ZN7emhash57HashMapIssSt4hashIsESt8equal_toIsESaISt4pairIssEEE14dealloc_bucketEPNS_5entryIssEEi
FN:1395,_ZN7emhash57HashMapIjjSt4hashIjESt8equal_toIjESaISt4pairIjjEEE14dealloc_bucketEPNS_5entryIjjEEi
FNDA:38,_ZN7emhash57HashMapIjjSt4hashIjESt8equal_toIjESaISt4pairIjjEEE14dealloc_bucketEPNS_5entryIjjEEi
FN:1395,_ZN7emhash57HashMapIaaSt4hashIaESt8equal_toIaESaISt4pairIaaEEE14dealloc_bucketEPNS_5entryIaaEEi
FNDA:28,_ZN7emhash57HashMapIaaSt4hashIaESt8equal_toIaESaISt4pairIaaEEE14dealloc_bucketEPNS_5entryIaaEEi
FN:1395,_ZN7emhash57HashMapIiiSt4hashIiESt8equal_toIiESaISt4pairIiiEEE14dealloc_bucketEPNS_5entryIiiEEi
FNDA:52,_ZN7emhash57HashMapIiiSt4hashIiESt8equal_toIiESaISt4pairIiiEEE14dealloc_bucketEPNS_5entryIiiEEi
FN:1395,_ZN7emhash57HashMapIllSt4hashIlESt8equal_toIlESaISt4pairIllEEE14dealloc_bucketEPNS_5entryIllEEi
FNDA:38,_ZN7emhash57HashMapIllSt4hashIlESt8equal_toIlESaISt4pairIllEEE14dealloc_bucketEPNS_5entryIllEEi
FN:1395,_ZN7emhash57HashMapIttSt4hashItESt8equal_toItESaISt4pairIttEEE14dealloc_bucketEPNS_5entryIttEEi
FNDA:38,_ZN7emhash57HashMapIttSt4hashItESt8equal_toItESaISt4pairIttEEE14dealloc_bucketEPNS_5entryIttEEi
FN:1395,_ZN7emhash57HashMapIhhSt4hashIhESt8equal_toIhESaISt4pairIhhEEE14dealloc_bucketEPNS_5entryIhhEEi
FNDA:38,_ZN7emhash57HashMapIhhSt4hashIhESt8equal_toIhESaISt4pairIhhEEE14dealloc_bucketEPNS_5entryIhhEEi
FN:1395,_ZN7emhash57HashMapImmSt4hashImESt8equal_toImESaISt4pairImmEEE14dealloc_bucketEPNS_5entryImmEEi
FNDA:38,_ZN7emhash57HashMapImmSt4hashImESt8equal_toImESaISt4pairImmEEE14dealloc_bucketEPNS_5entryImmEEi
FN:1395,_ZN7emhash57HashMapINSt7__cxx1112basic_stringIcSt11char_traitsIcESaIcEEEiSt4hashIS6_ESt8equal_toIS6_ESaISt4pairIS6_iEEE14dealloc_bucketEPNS_5entryIS6_iEEi
FNDA:2,_ZN7emhash57HashMapINSt7__cxx1112basic_stringIcSt11char_traitsIcESaIcEEEiSt4hashIS6_ESt8equal_toIS6_ESaISt4pairIS6_iEEE14dealloc_bucketEPNS_5entryIS6_iEEi
FN:1462,_ZN7emhash57HashMapIjjSt4hashIjESt8equal_toIjESaISt4pairIjjEEE17check_expand_needEv
FNDA:992,_ZN7emhash57HashMapIjjSt4hashIjESt8equal_toIjESaISt4pairIjjEEE17check_expand_needEv
FN:1462,_ZN7emhash57HashMapImmSt4hashImESt8equal_toImESaISt4pairImmEEE17check_expand_needEv
FNDA:992,_ZN7emhash57HashMapImmSt4hashImESt8equal_toImESaISt4pairImmEEE17check_expand_needEv
FN:1462,_ZN7emhash57HashMapIssSt4hashIsESt8equal_toIsESaISt4pairIssEEE17check_expand_needEv
FNDA:992,_ZN7emhash57HashMapIssSt4hashIsESt8equal_toIsESaISt4pairIssEEE17check_expand_needEv
FN:1462,_ZN7emhash57HashMapIhhSt4hashIhESt8equal_toIhESaISt4pairIhhEEE17check_expand_needEv
FNDA:992,_ZN7emhash57HashMapIhhSt4hashIhESt8equal_toIhESaISt4pairIhhEEE17check_expand_needEv
FN:1462,_ZN7emhash57HashMapIaaSt4hashIaESt8equal_toIaESaISt4pairIaaEEE17check_expand_needEv
FNDA:592,_ZN7emhash57HashMapIaaSt4hashIaESt8equal_toIaESaISt4pairIaaEEE17check_expand_needEv
FN:1462,_ZN7emhash57HashMapIllSt4hashIlESt8equal_toIlESaISt4pairIllEEE17check_expand_needEv
FNDA:992,_ZN7emhash57HashMapIllSt4hashIlESt8equal_toIlESaISt4pairIllEEE17check_expand_needEv
FN:1462,_ZN7emhash57HashMapIttSt4hashItESt8equal_toItESaISt4pairIttEEE17check_expand_needEv
FNDA:992,_ZN7emhash57HashMapIttSt4hashItESt8equal_toItESaISt4pairIttEEE17check_expand_needEv
FN:1462,_ZN7emhash57HashMapINSt7__cxx1112basic_stringIcSt11char_traitsIcESaIcEEEiSt4hashIS6_ESt8equal_toIS6_ESaISt4pairIS6_iEEE17check_expand_needEv
FNDA:2,_ZN7emhash57HashMapINSt7__cxx1112basic_stringIcSt11char_traitsIcESaIcEEEiSt4hashIS6_ESt8equal_toIS6_ESaISt4pairIS6_iEEE17check_expand_needEv
FN:1462,_ZN7emhash57HashMapIiiSt4hashIiESt8equal_toIiESaISt4pairIiiEEE17check_expand_needEv
FNDA:11000,_ZN7emhash57HashMapIiiSt4hashIiESt8equal_toIiESaISt4pairIiiEEE17check_expand_needEv
FN:1464,_ZN7emhash57HashMapIjjSt4hashIjESt8equal_toIjESaISt4pairIjjEEE12clear_bucketEib
FNDA:252,_ZN7emhash57HashMapIjjSt4hashIjESt8equal_toIjESaISt4pairIjjEEE12clear_bucketEib
FN:1464,_ZN7emhash57HashMapIssSt4hashIsESt8equal_toIsESaISt4pairIssEEE12clear_bucketEib
FNDA:252,_ZN7emhash57HashMapIssSt4hashIsESt8equal_toIsESaISt4pairIssEEE12clear_bucketEib
FN:1464,_ZN7emhash57HashMapIhhSt4hashIhESt8equal_toIhESaISt4pairIhhEEE12clear_bucketEib
FNDA:252,_ZN7emhash57HashMapIhhSt4hashIhESt8equal_toIhESaISt4pairIhhEEE12clear_bucketEib
FN:1464,_ZN7emhash57HashMapImmSt4hashImESt8equal_toImESaISt4pairImmEEE12clear_bucketEib
FNDA:252,_ZN7emhash57HashMapImmSt4hashImESt8equal_toImESaISt4pairImmEEE12clear_bucketEib
FN:1464,_ZN7emhash57HashMapIiiSt4hashIiESt8equal_toIiESaISt4pairIiiEEE12clear_bucketEib
FNDA:5259,_ZN7emhash57HashMapIiiSt4hashIiESt8equal_toIiESaISt4pairIiiEEE12clear_bucketEib
FN:1464,_ZN7emhash57HashMapINSt7__cxx1112basic_stringIcSt11char_traitsIcESaIcEEEiSt4hashIS6_ESt8equal_toIS6_ESaISt4pairIS6_iEEE12clear_bucketEib
FNDA:2,_ZN7emhash57HashMapINSt7__cxx1112basic_stringIcSt11char_traitsIcESaIcEEEiSt4hashIS6_ESt8equal_toIS6_ESaISt4pairIS6_iEEE12clear_bucketEib
FN:1464,_ZN7emhash57HashMapIllSt4hashIlESt8equal_toIlESaISt4pairIllEEE12clear_bucketEib
FNDA:252,_ZN7emhash57HashMapIllSt4hashIlESt8equal_toIlESaISt4pairIllEEE12clear_bucketEib
FN:1464,_ZN7emhash57HashMapIttSt4hashItESt8equal_toItESaISt4pairIttEEE12clear_bucketEib
FNDA:252,_ZN7emhash57HashMapIttSt4hashItESt8equal_toItESaISt4pairIttEEE12clear_bucketEib
FN:1464,_ZN7emhash57HashMapIaaSt4hashIaESt8equal_toIaESaISt4pairIaaEEE12clear_bucketEib
FNDA:252,_ZN7emhash57HashMapIaaSt4hashIaESt8equal_toIaESaISt4pairIaaEEE12clear_bucketEib
FN:1485,_ZN7emhash57HashMapIssSt4hashIsESt8equal_toIsESaISt4pairIssEEE9erase_keyIsEEiRKT_
FNDA:252,_ZN7emhash57HashMapIssSt4hashIsESt8equal_toIsESaISt4pairIssEEE9erase_keyIsEEiRKT_
FN:1485,_ZN7emhash57HashMapIllSt4hashIlESt8equal_toIlESaISt4pairIllEEE9erase_keyIlEEiRKT_
FNDA:252,_ZN7emhash57HashMapIllSt4hashIlESt8equal_toIlESaISt4pairIllEEE9erase_keyIlEEiRKT_
FN:1485,_ZN7emhash57HashMapIttSt4hashItESt8equal_toItESaISt4pairIttEEE9erase_keyItEEiRKT_
FNDA:252,_ZN7emhash57HashMapIttSt4hashItESt8equal_toItESaISt4pairIttEEE9erase_keyItEEiRKT_
FN:1485,_ZN7emhash57HashMapIaaSt4hashIaESt8equal_toIaESaISt4pairIaaEEE9erase_keyIaEEiRKT_
FNDA:252,_ZN7emhash57HashMapIaaSt4hashIaESt8equal_toIaESaISt4pairIaaEEE9erase_keyIaEEiRKT_
FN:1485,_ZN7emhash57HashMapINSt7__cxx1112basic_stringIcSt11char_traitsIcESaIcEEEiSt4hashIS6_ESt8equal_toIS6_ESaISt4pairIS6_iEEE9erase_keyIS6_EEiRKT_
FNDA:1,_ZN7emhash57HashMapINSt7__cxx1112basic_stringIcSt11char_traitsIcESaIcEEEiSt4hashIS6_ESt8equal_toIS6_ESaISt4pairIS6_iEEE9erase_keyIS6_EEiRKT_
FN:1485,_ZN7emhash57HashMapIiiSt4hashIiESt8equal_toIiESaISt4pairIiiEEE9erase_keyIiEEiRKT_
FNDA:5260,_ZN7emhash57HashMapIiiSt4hashIiESt8equal_toIiESaISt4pairIiiEEE9erase_keyIiEEiRKT_
FN:1485,_ZN7emhash57HashMapImmSt4hashImESt8equal_toImESaISt4pairImmEEE9erase_keyImEEiRKT_
FNDA:252,_ZN7emhash57HashMapImmSt4hashImESt8equal_toImESaISt4pairImmEEE9erase_keyImEEiRKT_
FN:1485,_ZN7emhash57HashMapIhhSt4hashIhESt8equal_toIhESaISt4pairIhhEEE9erase_keyIhEEiRKT_
FNDA:252,_ZN7emhash57HashMapIhhSt4hashIhESt8equal_toIhESaISt4pairIhhEEE9erase_keyIhEEiRKT_
FN:1485,_ZN7emhash57HashMapIjjSt4hashIjESt8equal_toIjESaISt4pairIjjEEE9erase_keyIjEEiRKT_
FNDA:252,_ZN7emhash57HashMapIjjSt4hashIjESt8equal_toIjESaISt4pairIjjEEE9erase_keyIjEEiRKT_
FN:1549,_ZNK7emhash57HashMapIiiSt4hashIiESt8equal_toIiESaISt4pairIiiEEE15find_filled_keyIiEEiRKT_
FNDA:33,_ZNK7emhash57HashMapIiiSt4hashIiESt8equal_toIiESaISt4pairIiiEEE15find_filled_keyIiEEiRKT_
FN:1549,_ZNK7emhash57HashMapINSt7__cxx1112basic_stringIcSt11char_traitsIcESaIcEEEiSt4hashIS6_ESt8equal_toIS6_ESaISt4pairIS6_iEEE15find_filled_keyIS6_EEiRKT_
FNDA:1,_ZNK7emhash57HashMapINSt7__cxx1112basic_stringIcSt11char_traitsIcESaIcEEEiSt4hashIS6_ESt8equal_toIS6_ESaISt4pairIS6_iEEE15find_filled_keyIS6_EEiRKT_
FN:1549,_ZNK7emhash57HashMapINSt7__cxx1112basic_stringIcSt11char_traitsIcESaIcEEEiSt4hashIS6_ESt8equal_toIS6_ESaISt4pairIS6_iEEE15find_filled_keyIA6_cEEiRKT_
FNDA:1,_ZNK7emhash57HashMapINSt7__cxx1112basic_stringIcSt11char_traitsIcESaIcEEEiSt4hashIS6_ESt8equal_toIS6_ESaISt4pairIS6_iEEE15find_filled_keyIA6_cEEiRKT_
FN:1549,_ZNK7emhash57HashMapINSt7__cxx1112basic_stringIcSt11char_traitsIcESaIcEEEiSt4hashIS6_ESt8equal_toIS6_ESaISt4pairIS6_iEEE15find_filled_keyIA1_cEEiRKT_
FNDA:3,_ZNK7emhash57HashMapINSt7__cxx1112basic_stringIcSt11char_traitsIcESaIcEEEiSt4hashIS6_ESt8equal_toIS6_ESaISt4pairIS6_iEEE15find_filled_keyIA1_cEEiRKT_
FN:1549,_ZNK7emhash57HashMapIaaSt4hashIaESt8equal_toIaESaISt4pairIaaEEE15find_filled_keyIaEEiRKT_
FNDA:14,_ZNK7emhash57HashMapIaaSt4hashIaESt8equal_toIaESaISt4pairIaaEEE15find_filled_keyIaEEiRKT_
FN:1549,_ZNK7emhash57HashMapIssSt4hashIsESt8equal_toIsESaISt4pairIssEEE15find_filled_keyIsEEiRKT_
FNDA:14,_ZNK7emhash57HashMapIssSt4hashIsESt8equal_toIsESaISt4pairIssEEE15find_filled_keyIsEEiRKT_
FN:1549,_ZNK7emhash57HashMapIllSt4hashIlESt8equal_toIlESaISt4pairIllEEE15find_filled_keyIlEEiRKT_
FNDA:14,_ZNK7emhash57HashMapIllSt4hashIlESt8equal_toIlESaISt4pairIllEEE15find_filled_keyIlEEiRKT_
FN:1549,_ZNK7emhash57HashMapIhhSt4hashIhESt8equal_toIhESaISt4pairIhhEEE15find_filled_keyIhEEiRKT_
FNDA:14,_ZNK7emhash57HashMapIhhSt4hashIhESt8equal_toIhESaISt4pairIhhEEE15find_filled_keyIhEEiRKT_
FN:1549,_ZNK7emhash57HashMapIttSt4hashItESt8equal_toItESaISt4pairIttEEE15find_filled_keyItEEiRKT_
FNDA:14,_ZNK7emhash57HashMapIttSt4hashItESt8equal_toItESaISt4pairIttEEE15find_filled_keyItEEiRKT_
FN:1549,_ZNK7emhash57HashMapImmSt4hashImESt8equal_toImESaISt4pairImmEEE15find_filled_keyImEEiRKT_
FNDA:14,_ZNK7emhash57HashMapImmSt4hashImESt8equal_toImESaISt4pairImmEEE15find_filled_keyImEEiRKT_
FN:1549,_ZNK7emhash57HashMapIjjSt4hashIjESt8equal_toIjESaISt4pairIjjEEE15find_filled_keyIjEEiRKT_
FNDA:14,_ZNK7emhash57HashMapIjjSt4hashIjESt8equal_toIjESaISt4pairIjjEEE15find_filled_keyIjEEiRKT_
FN:1564,_ZNK7emhash57HashMapINSt7__cxx1112basic_stringIcSt11char_traitsIcESaIcEEEiSt4hashIS6_ESt8equal_toIS6_ESaISt4pairIS6_iEEE16find_hash_bucketIS6_EEiRKT_i
FNDA:1,_ZNK7emhash57HashMapINSt7__cxx1112basic_stringIcSt11char_traitsIcESaIcEEEiSt4hashIS6_ESt8equal_toIS6_ESaISt4pairIS6_iEEE16find_hash_bucketIS6_EEiRKT_i
FN:1564,_ZNK7emhash57HashMapImmSt4hashImESt8equal_toImESaISt4pairImmEEE16find_hash_bucketImEEiRKT_i
FNDA:2720,_ZNK7emhash57HashMapImmSt4hashImESt8equal_toImESaISt4pairImmEEE16find_hash_bucketImEEiRKT_i
FN:1564,_ZNK7emhash57HashMapIjjSt4hashIjESt8equal_toIjESaISt4pairIjjEEE16find_hash_bucketIjEEiRKT_i
FNDA:2720,_ZNK7emhash57HashMapIjjSt4hashIjESt8equal_toIjESaISt4pairIjjEEE16find_hash_bucketIjEEiRKT_i
FN:1564,_ZNK7emhash57HashMapIttSt4hashItESt8equal_toItESaISt4pairIttEEE16find_hash_bucketItEEiRKT_i
FNDA:2720,_ZNK7emhash57HashMapIttSt4hashItESt8equal_toItESaISt4pairIttEEE16find_hash_bucketItEEiRKT_i
FN:1564,_ZNK7emhash57HashMapIiiSt4hashIiESt8equal_toIiESaISt4pairIiiEEE16find_hash_bucketIiEEiRKT_i
FNDA:4996,_ZNK7emhash57HashMapIiiSt4hashIiESt8equal_toIiESaISt4pairIiiEEE16find_hash_bucketIiEEiRKT_i
FN:1564,_ZNK7emhash57HashMapIhhSt4hashIhESt8equal_toIhESaISt4pairIhhEEE16find_hash_bucketIhEEiRKT_i
FNDA:2720,_ZNK7emhash57HashMapIhhSt4hashIhESt8equal_toIhESaISt4pairIhhEEE16find_hash_bucketIhEEiRKT_i
FN:1564,_ZNK7emhash57HashMapIllSt4hashIlESt8equal_toIlESaISt4pairIllEEE16find_hash_bucketIlEEiRKT_i
FNDA:2720,_ZNK7emhash57HashMapIllSt4hashIlESt8equal_toIlESaISt4pairIllEEE16find_hash_bucketIlEEiRKT_i
FN:1564,_ZNK7emhash57HashMapIssSt4hashIsESt8equal_toIsESaISt4pairIssEEE16find_hash_bucketIsEEiRKT_i
FNDA:2720,_ZNK7emhash57HashMapIssSt4hashIsESt8equal_toIsESaISt4pairIssEEE16find_hash_bucketIsEEiRKT_i
FN:1564,_ZNK7emhash57HashMapIaaSt4hashIaESt8equal_toIaESaISt4pairIaaEEE16find_hash_bucketIaEEiRKT_i
FNDA:2228,_ZNK7emhash57HashMapIaaSt4hashIaESt8equal_toIaESaISt4pairIaaEEE16find_hash_bucketIaEEiRKT_i
FN:1564,_ZNK7emhash57HashMapINSt7__cxx1112basic_stringIcSt11char_traitsIcESaIcEEEiSt4hashIS6_ESt8equal_toIS6_ESaISt4pairIS6_iEEE16find_hash_bucketIA1_cEEiRKT_i
FNDA:3,_ZNK7emhash57HashMapINSt7__cxx1112basic_stringIcSt11char_traitsIcESaIcEEEiSt4hashIS6_ESt8equal_toIS6_ESaISt4pairIS6_iEEE16find_hash_bucketIA1_cEEiRKT_i
FN:1564,_ZNK7emhash57HashMapINSt7__cxx1112basic_stringIcSt11char_traitsIcESaIcEEEiSt4hashIS6_ESt8equal_toIS6_ESaISt4pairIS6_iEEE16find_hash_bucketIA6_cEEiRKT_i
FNDA:1,_ZNK7emhash57HashMapINSt7__cxx1112basic_stringIcSt11char_traitsIcESaIcEEEiSt4hashIS6_ESt8equal_toIS6_ESaISt4pairIS6_iEEE16find_hash_bucketIA6_cEEiRKT_i
FN:1598,_ZN7emhash57HashMapIllSt4hashIlESt8equal_toIlESaISt4pairIllEEE14kickout_bucketEii
FNDA:0,_ZN7emhash57HashMapIllSt4hashIlESt8equal_toIlESaISt4pairIllEEE14kickout_bucketEii
FN:1598,_ZN7emhash57HashMapIaaSt4hashIaESt8equal_toIaESaISt4pairIaaEEE14kickout_bucketEii
FNDA:0,_ZN7emhash57HashMapIaaSt4hashIaESt8equal_toIaESaISt4pairIaaEEE14kickout_bucketEii
FN:1598,_ZN7emhash57HashMapIssSt4hashIsESt8equal_toIsESaISt4pairIssEEE14kickout_bucketEii
FNDA:0,_ZN7emhash57HashMapIssSt4hashIsESt8equal_toIsESaISt4pairIssEEE14kickout_bucketEii
FN:1598,_ZN7emhash57HashMapIhhSt4hashIhESt8equal_toIhESaISt4pairIhhEEE14kickout_bucketEii
FNDA:0,_ZN7emhash57HashMapIhhSt4hashIhESt8equal_toIhESaISt4pairIhhEEE14kickout_bucketEii
FN:1598,_ZN7emhash57HashMapIttSt4hashItESt8equal_toItESaISt4pairIttEEE14kickout_bucketEii
FNDA:0,_ZN7emhash57HashMapIttSt4hashItESt8equal_toItESaISt4pairIttEEE14kickout_bucketEii
FN:1598,_ZN7emhash57HashMapIiiSt4hashIiESt8equal_toIiESaISt4pairIiiEEE14kickout_bucketEii
FNDA:0,_ZN7emhash57HashMapIiiSt4hashIiESt8equal_toIiESaISt4pairIiiEEE14kickout_bucketEii
FN:1598,_ZN7emhash57HashMapINSt7__cxx1112basic_stringIcSt11char_traitsIcESaIcEEEiSt4hashIS6_ESt8equal_toIS6_ESaISt4pairIS6_iEEE14kickout_bucketEii
FNDA:0,_ZN7emhash57HashMapINSt7__cxx1112basic_stringIcSt11char_traitsIcESaIcEEEiSt4hashIS6_ESt8equal_toIS6_ESaISt4pairIS6_iEEE14kickout_bucketEii
FN:1598,_ZN7emhash57HashMapIjjSt4hashIjESt8equal_toIjESaISt4pairIjjEEE14kickout_bucketEii
FNDA:0,_ZN7emhash57HashMapIjjSt4hashIjESt8equal_toIjESaISt4pairIjjEEE14kickout_bucketEii
FN:1598,_ZN7emhash57HashMapImmSt4hashImESt8equal_toImESaISt4pairImmEEE14kickout_bucketEii
FNDA:0,_ZN7emhash57HashMapImmSt4hashImESt8equal_toImESaISt4pairImmEEE14kickout_bucketEii
FN:1618,_ZN7emhash57HashMapIaaSt4hashIaESt8equal_toIaESaISt4pairIaaEEE15find_or_kickoutIaEEiRKT_i
FNDA:715,_ZN7emhash57HashMapIaaSt4hashIaESt8equal_toIaESaISt4pairIaaEEE15find_or_kickoutIaEEiRKT_i
FN:1618,_ZN7emhash57HashMapIssSt4hashIsESt8equal_toIsESaISt4pairIssEEE15find_or_kickoutIsEEiRKT_i
FNDA:1504,_ZN7emhash57HashMapIssSt4hashIsESt8equal_toIsESaISt4pairIssEEE15find_or_kickoutIsEEiRKT_i
FN:1618,_ZN7emhash57HashMapIllSt4hashIlESt8equal_toIlESaISt4pairIllEEE15find_or_kickoutIlEEiRKT_i
FNDA:1504,_ZN7emhash57HashMapIllSt4hashIlESt8equal_toIlESaISt4pairIllEEE15find_or_kickoutIlEEiRKT_i
FN:1618,_ZN7emhash57HashMapIhhSt4hashIhESt8equal_toIhESaISt4pairIhhEEE15find_or_kickoutIhEEiRKT_i
FNDA:1504,_ZN7emhash57HashMapIhhSt4hashIhESt8equal_toIhESaISt4pairIhhEEE15find_or_kickoutIhEEiRKT_i
FN:1618,_ZN7emhash57HashMapIiiSt4hashIiESt8equal_toIiESaISt4pairIiiEEE15find_or_kickoutIiEEiRKT_i
FNDA:13122,_ZN7emhash57HashMapIiiSt4hashIiESt8equal_toIiESaISt4pairIiiEEE15find_or_kickoutIiEEiRKT_i
FN:1618,_ZN7emhash57HashMapIttSt4hashItESt8equal_toItESaISt4pairIttEEE15find_or_kickoutItEEiRKT_i
FNDA:1504,_ZN7emhash57HashMapIttSt4hashItESt8equal_toItESaISt4pairIttEEE15find_or_kickoutItEEiRKT_i
FN:1618,_ZN7emhash57HashMapINSt7__cxx1112basic_stringIcSt11char_traitsIcESaIcEEEiSt4hashIS6_ESt8equal_toIS6_ESaISt4pairIS6_iEEE15find_or_kickoutIS6_EEiRKT_i
FNDA:2,_ZN7emhash57HashMapINSt7__cxx1112basic_stringIcSt11char_traitsIcESaIcEEEiSt4hashIS6_ESt8equal_toIS6_ESaISt4pairIS6_iEEE15find_or_kickoutIS6_EEiRKT_i
FN:1618,_ZN7emhash57HashMapIjjSt4hashIjESt8equal_toIjESaISt4pairIjjEEE15find_or_kickoutIjEEiRKT_i
FNDA:1504,_ZN7emhash57HashMapIjjSt4hashIjESt8equal_toIjESaISt4pairIjjEEE15find_or_kickoutIjEEiRKT_i
FN:1618,_ZN7emhash57HashMapImmSt4hashImESt8equal_toImESaISt4pairImmEEE15find_or_kickoutImEEiRKT_i
FNDA:1504,_ZN7emhash57HashMapImmSt4hashImESt8equal_toImESaISt4pairImmEEE15find_or_kickoutImEEiRKT_i
FN:1643,_ZN7emhash57HashMapINSt7__cxx1112basic_stringIcSt11char_traitsIcESaIcEEEiSt4hashIS6_ESt8equal_toIS6_ESaISt4pairIS6_iEEE16find_or_allocateIS6_EEiRKT_
FNDA:2,_ZN7emhash57HashMapINSt7__cxx1112basic_stringIcSt11char_traitsIcESaIcEEEiSt4hashIS6_ESt8equal_toIS6_ESaISt4pairIS6_iEEE16find_or_allocateIS6_EEiRKT_
FN:1643,_ZN7emhash57HashMapIttSt4hashItESt8equal_toItESaISt4pairIttEEE16find_or_allocateItEEiRKT_
FNDA:590,_ZN7emhash57HashMapIttSt4hashItESt8equal_toItESaISt4pairIttEEE16find_or_allocateItEEiRKT_
FN:1643,_ZN7emhash57HashMapIiiSt4hashIiESt8equal_toIiESaISt4pairIiiEEE16find_or_allocateIiEEiRKT_
FNDA:10598,_ZN7emhash57HashMapIiiSt4hashIiESt8equal_toIiESaISt4pairIiiEEE16find_or_allocateIiEEiRKT_
FN:1643,_ZN7emhash57HashMapIaaSt4hashIaESt8equal_toIaESaISt4pairIaaEEE16find_or_allocateIaEEiRKT_
FNDA:590,_ZN7emhash57HashMapIaaSt4hashIaESt8equal_toIaESaISt4pairIaaEEE16find_or_allocateIaEEiRKT_
FN:1643,_ZN7emhash57HashMapIssSt4hashIsESt8equal_toIsESaISt4pairIssEEE16find_or_allocateIsEEiRKT_
FNDA:590,_ZN7emhash57HashMapIssSt4hashIsESt8equal_toIsESaISt4pairIssEEE16find_or_allocateIsEEiRKT_
FN:1643,_ZN7emhash57HashMapIllSt4hashIlESt8equal_toIlESaISt4pairIllEEE16find_or_allocateIlEEiRKT_
FNDA:590,_ZN7emhash57HashMapIllSt4hashIlESt8equal_toIlESaISt4pairIllEEE16find_or_allocateIlEEiRKT_
FN:1643,_ZN7emhash57HashMapIhhSt4hashIhESt8equal_toIhESaISt4pairIhhEEE16find_or_allocateIhEEiRKT_
FNDA:590,_ZN7emhash57HashMapIhhSt4hashIhESt8equal_toIhESaISt4pairIhhEEE16find_or_allocateIhEEiRKT_
FN:1643,_ZN7emhash57HashMapImmSt4hashImESt8equal_toImESaISt4pairImmEEE16find_or_allocateImEEiRKT_
FNDA:590,_ZN7emhash57HashMapImmSt4hashImESt8equal_toImESaISt4pairImmEEE16find_or_allocateImEEiRKT_
FN:1643,_ZN7emhash57HashMapIjjSt4hashIjESt8equal_toIjESaISt4pairIjjEEE16find_or_allocateIjEEiRKT_
FNDA:590,_ZN7emhash57HashMapIjjSt4hashIjESt8equal_toIjESaISt4pairIjjEEE16find_or_allocateIjEEiRKT_
FN:1691,_ZN7emhash57HashMapIaaSt4hashIaESt8equal_toIaESaISt4pairIaaEEE18find_unique_bucketIaEEiRKT_
FNDA:125,_ZN7emhash57HashMapIaaSt4hashIaESt8equal_toIaESaISt4pairIaaEEE18find_unique_bucketIaEEiRKT_
FN:1691,_ZN7emhash57HashMapIssSt4hashIsESt8equal_toIsESaISt4pairIssEEE18find_unique_bucketIsEEiRKT_
FNDA:914,_ZN7emhash57HashMapIssSt4hashIsESt8equal_toIsESaISt4pairIssEEE18find_unique_bucketIsEEiRKT_
FN:1691,_ZN7emhash57HashMapIiiSt4hashIiESt8equal_toIiESaISt4pairIiiEEE18find_unique_bucketIiEEiRKT_
FNDA:2524,_ZN7emhash57HashMapIiiSt4hashIiESt8equal_toIiESaISt4pairIiiEEE18find_unique_bucketIiEEiRKT_
FN:1691,_ZN7emhash57HashMapIllSt4hashIlESt8equal_toIlESaISt4pairIllEEE18find_unique_bucketIlEEiRKT_
FNDA:914,_ZN7emhash57HashMapIllSt4hashIlESt8equal_toIlESaISt4pairIllEEE18find_unique_bucketIlEEiRKT_
FN:1691,_ZN7emhash57HashMapIhhSt4hashIhESt8equal_toIhESaISt4pairIhhEEE18find_unique_bucketIhEEiRKT_
FNDA:914,_ZN7emhash57HashMapIhhSt4hashIhESt8equal_toIhESaISt4pairIhhEEE18find_unique_bucketIhEEiRKT_
FN:1691,_ZN7emhash57HashMapIttSt4hashItESt8equal_toItESaISt4pairIttEEE18find_unique_bucketItEEiRKT_
FNDA:914,_ZN7emhash57HashMapIttSt4hashItESt8equal_toItESaISt4pairIttEEE18find_unique_bucketItEEiRKT_
FN:1691,_ZN7emhash57HashMapIjjSt4hashIjESt8equal_toIjESaISt4pairIjjEEE18find_unique_bucketIjEEiRKT_
FNDA:914,_ZN7emhash57HashMapIjjSt4hashIjESt8equal_toIjESaISt4pairIjjEEE18find_unique_bucketIjEEiRKT_
FN:1691,_ZN7emhash57HashMapImmSt4hashImESt8equal_toImESaISt4pairImmEEE18find_unique_bucketImEEiRKT_
FNDA:914,_ZN7emhash57HashMapImmSt4hashImESt8equal_toImESaISt4pairImmEEE18find_unique_bucketImEEiRKT_
FN:1691,_ZN7emhash57HashMapINSt7__cxx1112basic_stringIcSt11char_traitsIcESaIcEEEiSt4hashIS6_ESt8equal_toIS6_ESaISt4pairIS6_iEEE18find_unique_bucketIS6_EEiRKT_
FNDA:0,_ZN7emhash57HashMapINSt7__cxx1112basic_stringIcSt11char_traitsIcESaIcEEEiSt4hashIS6_ESt8equal_toIS6_ESaISt4pairIS6_iEEE18find_unique_bucketIS6_EEiRKT_
FN:1794,_ZNK7emhash57HashMapIhhSt4hashIhESt8equal_toIhESaISt4pairIhhEEE16find_last_bucketEi
FNDA:0,_ZNK7emhash57HashMapIhhSt4hashIhESt8equal_toIhESaISt4pairIhhEEE16find_last_bucketEi
FN:1794,_ZNK7emhash57HashMapINSt7__cxx1112basic_stringIcSt11char_traitsIcESaIcEEEiSt4hashIS6_ESt8equal_toIS6_ESaISt4pairIS6_iEEE16find_last_bucketEi
FNDA:0,_ZNK7emhash57HashMapINSt7__cxx1112basic_stringIcSt11char_traitsIcESaIcEEEiSt4hashIS6_ESt8equal_toIS6_ESaISt4pairIS6_iEEE16find_last_bucketEi
FN:1794,_ZNK7emhash57HashMapImmSt4hashImESt8equal_toImESaISt4pairImmEEE16find_last_bucketEi
FNDA:0,_ZNK7emhash57HashMapImmSt4hashImESt8equal_toImESaISt4pairImmEEE16find_last_bucketEi
FN:1794,_ZNK7emhash57HashMapIjjSt4hashIjESt8equal_toIjESaISt4pairIjjEEE16find_last_bucketEi
FNDA:0,_ZNK7emhash57HashMapIjjSt4hashIjESt8equal_toIjESaISt4pairIjjEEE16find_last_bucketEi
FN:1794,_ZNK7emhash57HashMapIttSt4hashItESt8equal_toItESaISt4pairIttEEE16find_last_bucketEi
FNDA:0,_ZNK7emhash57HashMapIttSt4hashItESt8equal_toItESaISt4pairIttEEE16find_last_bucketEi
FN:1794,_ZNK7emhash57HashMapIllSt4hashIlESt8equal_toIlESaISt4pairIllEEE16find_last_bucketEi
FNDA:0,_ZNK7emhash57HashMapIllSt4hashIlESt8equal_toIlESaISt4pairIllEEE16find_last_bucketEi
FN:1794,_ZNK7emhash57HashMapIiiSt4hashIiESt8equal_toIiESaISt4pairIiiEEE16find_last_bucketEi
FNDA:0,_ZNK7emhash57HashMapIiiSt4hashIiESt8equal_toIiESaISt4pairIiiEEE16find_last_bucketEi
FN:1794,_ZNK7emhash57HashMapIssSt4hashIsESt8equal_toIsESaISt4pairIssEEE16find_last_bucketEi
FNDA:0,_ZNK7emhash57HashMapIssSt4hashIsESt8equal_toIsESaISt4pairIssEEE16find_last_bucketEi
FN:1794,_ZNK7emhash57HashMapIaaSt4hashIaESt8equal_toIaESaISt4pairIaaEEE16find_last_bucketEi
FNDA:0,_ZNK7emhash57HashMapIaaSt4hashIaESt8equal_toIaESaISt4pairIaaEEE16find_last_bucketEi
FN:1807,_ZNK7emhash57HashMapImmSt4hashImESt8equal_toImESaISt4pairImmEEE16find_prev_bucketEii
FNDA:0,_ZNK7emhash57HashMapImmSt4hashImESt8equal_toImESaISt4pairImmEEE16find_prev_bucketEii
FN:1807,_ZNK7emhash57HashMapINSt7__cxx1112basic_stringIcSt11char_traitsIcESaIcEEEiSt4hashIS6_ESt8equal_toIS6_ESaISt4pairIS6_iEEE16find_prev_bucketEii
FNDA:0,_ZNK7emhash57HashMapINSt7__cxx1112basic_stringIcSt11char_traitsIcESaIcEEEiSt4hashIS6_ESt8equal_toIS6_ESaISt4pairIS6_iEEE16find_prev_bucketEii
FN:1807,_ZNK7emhash57HashMapIiiSt4hashIiESt8equal_toIiESaISt4pairIiiEEE16find_prev_bucketEii
FNDA:0,_ZNK7emhash57HashMapIiiSt4hashIiESt8equal_toIiESaISt4pairIiiEEE16find_prev_bucketEii
FN:1807,_ZNK7emhash57HashMapIaaSt4hashIaESt8equal_toIaESaISt4pairIaaEEE16find_prev_bucketEii
FNDA:0,_ZNK7emhash57HashMapIaaSt4hashIaESt8equal_toIaESaISt4pairIaaEEE16find_prev_bucketEii
FN:1807,_ZNK7emhash57HashMapIssSt4hashIsESt8equal_toIsESaISt4pairIssEEE16find_prev_bucketEii
FNDA:0,_ZNK7emhash57HashMapIssSt4hashIsESt8equal_toIsESaISt4pairIssEEE16find_prev_bucketEii
FN:1807,_ZNK7emhash57HashMapIllSt4hashIlESt8equal_toIlESaISt4pairIllEEE16find_prev_bucketEii
FNDA:0,_ZNK7emhash57HashMapIllSt4hashIlESt8equal_toIlESaISt4pairIllEEE16find_prev_bucketEii
FN:1807,_ZNK7emhash57HashMapIhhSt4hashIhESt8equal_toIhESaISt4pairIhhEEE16find_prev_bucketEii
FNDA:0,_ZNK7emhash57HashMapIhhSt4hashIhESt8equal_toIhESaISt4pairIhhEEE16find_prev_bucketEii
FN:1807,_ZNK7emhash57HashMapIttSt4hashItESt8equal_toItESaISt4pairIttEEE16find_prev_bucketEii
FNDA:0,_ZNK7emhash57HashMapIttSt4hashItESt8equal_toItESaISt4pairIttEEE16find_prev_bucketEii
FN:1807,_ZNK7emhash57HashMapIjjSt4hashIjESt8equal_toIjESaISt4pairIjjEEE16find_prev_bucketEii
FNDA:0,_ZNK7emhash57HashMapIjjSt4hashIjESt8equal_toIjESaISt4pairIjjEEE16find_prev_bucketEii
DA:136,5500
DA:137,5500
DA:138,5500
DA:136,2
DA:137,2
DA:138,2
DA:141,1
DA:142,1
DA:143,1
DA:141,398
DA:142,398
DA:143,398
DA:141,391
DA:142,391
DA:143,391
DA:141,0
DA:142,0
DA:143,0
DA:141,1
DA:142,1
DA:143,1
DA:141,391
DA:142,391
DA:143,391
DA:141,400
DA:142,400
DA:143,400
DA:141,1
DA:142,1
DA:143,1
DA:141,400
DA:142,400
DA:143,400
DA:141,1
DA:142,1
DA:143,1
DA:141,391
DA:142,391
DA:143,391
DA:141,400
DA:142,400
DA:143,400
DA:141,1
DA:142,1
DA:143,1
DA:141,391
DA:142,391
DA:143,391
DA:141,400
DA:142,400
DA:143,400
DA:141,1
DA:142,1
DA:143,1
DA:141,391
DA:142,391
DA:143,391
DA:141,400
DA:142,400
DA:143,400
DA:141,1
DA:142,1
DA:143,1
DA:141,391
DA:142,391
DA:143,391
DA:141,400
DA:142,400
DA:143,400
DA:141,1
DA:142,1
DA:143,1
DA:141,391
DA:142,391
DA:143,391
DA:141,400
DA:142,400
DA:143,400
DA:162,512
DA:162,512
DA:162,512
DA:162,512
DA:162,512
DA:162,512
DA:162,123
DA:162,2122
DA:162,0
DA:164,0
DA:165,0
DA:166,0
DA:167,0
DA:168,0
DA:164,0
DA:165,0
DA:166,0
DA:167,0
DA:168,0
DA:164,0
DA:165,0
DA:166,0
DA:167,0
DA:168,0
DA:164,0
DA:165,0
DA:166,0
DA:167,0
DA:168,0
DA:164,0
DA:165,0
DA:166,0
DA:167,0
DA:168,0
DA:164,0
DA:165,0
DA:166,0
DA:167,0
DA:168,0
DA:164,0
DA:165,0
DA:166,0
DA:167,0
DA:168,0
DA:164,0
DA:165,0
DA:166,0
DA:167,0
DA:168,0
DA:164,0
DA:165,0
DA:166,0
DA:167,0
DA:168,0
DA:292,5466
DA:292,5466
DA:292,5466
DA:292,5466
DA:292,5466
DA:292,5466
DA:292,4482
DA:292,10056
DA:292,10
DA:306,2
DA:306,2
DA:306,2
DA:306,2
DA:306,2
DA:306,2
DA:306,2
DA:306,10
DA:308,11
DA:308,11
DA:308,11
DA:308,11
DA:308,11
DA:308,11
DA:308,11
DA:308,22
DA:308,3
DA:309,2722
DA:309,2722
DA:309,2722
DA:309,2722
DA:309,2722
DA:309,2722
DA:309,2230
DA:309,5006
DA:309,2
DA:370,11
DA:371,11
DA:372,11
DA:373,11
DA:377,11
DA:378,11
DA:379,11
DA:380,11
DA:370,11
DA:371,11
DA:372,11
DA:373,11
DA:377,11
DA:378,11
DA:379,11
DA:380,11
DA:370,11
DA:371,11
DA:372,11
DA:373,11
DA:377,11
DA:378,11
DA:379,11
DA:380,11
DA:370,11
DA:371,11
DA:372,11
DA:373,11
DA:377,11
DA:378,11
DA:379,11
DA:380,11
DA:370,11
DA:371,11
DA:372,11
DA:373,11
DA:377,11
DA:378,11
DA:379,11
DA:380,11
DA:370,11
DA:371,11
DA:372,11
DA:373,11
DA:377,11
DA:378,11
DA:379,11
DA:380,11
DA:370,11
DA:371,11
DA:372,11
DA:373,11
DA:377,11
DA:378,11
DA:379,11
DA:380,11
DA:370,15
DA:371,15
DA:372,15
DA:373,15
DA:377,15
DA:378,15
DA:379,15
DA:380,15
DA:370,1
DA:371,1
DA:372,1
DA:373,1
DA:377,1
DA:378,1
DA:379,1
DA:380,1
DA:382,11
DA:382,11
DA:382,11
DA:382,11
DA:382,11
DA:382,11
DA:382,11
DA:382,15
DA:382,1
DA:490,11
DA:491,11
DA:495,11
DA:496,11
DA:497,11
DA:490,11
DA:491,11
DA:495,11
DA:496,11
DA:497,11
DA:490,11
DA:491,11
DA:495,11
DA:496,11
DA:497,11
DA:490,11
DA:491,11
DA:495,11
DA:496,11
DA:497,11
DA:490,11
DA:491,11
DA:495,11
DA:496,11
DA:497,11
DA:490,11
DA:491,11
DA:495,11
DA:496,11
DA:497,11
DA:490,11
DA:491,11
DA:495,11
DA:496,11
DA:497,11
DA:490,15
DA:491,15
DA:495,15
DA:496,15
DA:497,15
DA:490,1
DA:491,1
DA:495,1
DA:496,1
DA:497,1
DA:530,1
DA:574,1
DA:575,1
DA:576,1
DA:577,1
DA:578,1
DA:579,1
DA:580,1
DA:581,1
DA:582,1
DA:583,1
DA:587,1
DA:530,1
DA:574,1
DA:575,1
DA:576,1
DA:577,1
DA:578,1
DA:579,1
DA:580,1
DA:581,1
DA:582,1
DA:583,1
DA:587,1
DA:530,1
DA:574,1
DA:575,1
DA:576,1
DA:577,1
DA:578,1
DA:579,1
DA:580,1
DA:581,1
DA:582,1
DA:583,1
DA:587,1
DA:530,1
DA:574,1
DA:575,1
DA:576,1
DA:577,1
DA:578,1
DA:579,1
DA:580,1
DA:581,1
DA:582,1
DA:583,1
DA:587,1
DA:530,1
DA:574,1
DA:575,1
DA:576,1
DA:577,1
DA:578,1
DA:579,1
DA:580,1
DA:581,1
DA:582,1
DA:583,1
DA:587,1
DA:530,1
DA:574,1
DA:575,1
DA:576,1
DA:577,1
DA:578,1
DA:579,1
DA:580,1
DA:581,1
DA:582,1
DA:583,1
DA:587,1
DA:530,1
DA:574,1
DA:575,1
DA:576,1
DA:577,1
DA:578,1
DA:579,1
DA:580,1
DA:581,1
DA:582,1
DA:583,1
DA:587,1
DA:530,1
DA:574,1
DA:575,1
DA:576,1
DA:577,1
DA:578,1
DA:579,1
DA:580,1
DA:581,1
DA:582,1
DA:583,1
DA:587,1
DA:614,2733
DA:614,2733
DA:614,2733
DA:614,2733
DA:614,2733
DA:614,2733
DA:614,2241
DA:614,5028
DA:614,5
DA:620,2726
DA:620,2726
DA:620,2726
DA:620,2726
DA:620,2726
DA:620,2726
DA:620,2234
DA:620,4792
DA:626,1
DA:627,1
DA:626,1
DA:627,1
DA:626,1
DA:627,1
DA:626,1
DA:627,1
DA:626,1
DA:627,1
DA:626,1
DA:627,1
DA:626,1
DA:627,1
DA:626,1
DA:627,1
DA:630,11
DA:631,11
DA:632,11
DA:633,11
DA:630,11
DA:631,11
DA:632,11
DA:633,11
DA:630,11
DA:631,11
DA:632,11
DA:633,11
DA:630,11
DA:631,11
DA:632,11
DA:633,11
DA:630,11
DA:631,11
DA:632,11
DA:633,11
DA:630,11
DA:631,11
DA:632,11
DA:633,11
DA:630,11
DA:631,11
DA:632,11
DA:633,11
DA:630,15
DA:631,15
DA:632,15
DA:633,15
DA:630,1
DA:631,1
DA:632,1
DA:633,1
DA:635,54
DA:635,54
DA:635,54
DA:635,54
DA:635,54
DA:635,54
DA:635,34
DA:635,74
DA:635,2
DA:763,13
DA:763,13
DA:763,13
DA:763,13
DA:763,13
DA:763,13
DA:763,13
DA:763,32
DA:763,1
DA:763,1
DA:763,3
DA:769,2720
DA:770,2720
DA:771,2720
DA:769,2720
DA:770,2720
DA:771,2720
DA:769,2720
DA:770,2720
DA:771,2720
DA:769,2720
DA:770,2720
DA:771,2720
DA:769,2720
DA:770,2720
DA:771,2720
DA:769,2720
DA:770,2720
DA:771,2720
DA:769,2228
DA:770,2228
DA:771,2228
DA:769,4996
DA:770,4996
DA:771,4996
DA:809,1
DA:810,1
DA:809,1
DA:810,1
DA:809,1
DA:810,1
DA:809,1
DA:810,1
DA:809,1
DA:810,1
DA:809,1
DA:810,1
DA:809,1
DA:810,1
DA:809,1
DA:810,1
DA:1033,1
DA:1034,1
DA:1035,1
DA:1036,1
DA:1037,1
DA:1033,1
DA:1034,1
DA:1035,1
DA:1036,1
DA:1037,1
DA:1033,0
DA:1034,0
DA:1035,0
DA:1036,0
DA:1037,0
DA:1033,1
DA:1034,1
DA:1035,1
DA:1036,1
DA:1037,1
DA:1033,1
DA:1034,1
DA:1035,1
DA:1036,1
DA:1037,1
DA:1033,400
DA:1034,400
DA:1035,400
DA:1036,400
DA:1037,400
DA:1033,1
DA:1034,1
DA:1035,1
DA:1036,1
DA:1037,1
DA:1033,1
DA:1034,1
DA:1035,1
DA:1036,1
DA:1037,1
DA:1033,400
DA:1034,400
DA:1035,400
DA:1036,400
DA:1037,400
DA:1033,1
DA:1034,1
DA:1035,1
DA:1036,1
DA:1037,1
DA:1033,1
DA:1034,1
DA:1035,1
DA:1036,1
DA:1037,1
DA:1033,400
DA:1034,400
DA:1035,400
DA:1036,400
DA:1037,400
DA:1033,1
DA:1034,1
DA:1035,1
DA:1036,1
DA:1037,1
DA:1033,1
DA:1034,1
DA:1035,1
DA:1036,1
DA:1037,1
DA:1033,400
DA:1034,400
DA:1035,400
DA:1036,400
DA:1037,400
DA:1033,1
DA:1034,1
DA:1035,1
DA:1036,1
DA:1037,1
DA:1033,1
DA:1034,1
DA:1035,1
DA:1036,1
DA:1037,1
DA:1033,400
DA:1034,400
DA:1035,400
DA:1036,400
DA:1037,400
DA:1033,1
DA:1034,1
DA:1035,1
DA:1036,1
DA:1037,1
DA:1033,1
DA:1034,1
DA:1035,1
DA:1036,1
DA:1037,1
DA:1033,400
DA:1034,400
DA:1035,400
DA:1036,400
DA:1037,400
DA:1033,1
DA:1034,1
DA:1035,1
DA:1036,1
DA:1037,1
DA:1033,1
DA:1034,1
DA:1035,1
DA:1036,1
DA:1037,1
DA:1033,400
DA:1034,400
DA:1035,400
DA:1036,400
DA:1037,400
DA:1114,590
DA:1115,590
DA:1116,590
DA:1117,590
DA:1119,390
DA:1122,590
DA:1114,590
DA:1115,590
DA:1116,590
DA:1117,590
DA:1119,390
DA:1122,590
DA:1114,590
DA:1115,590
DA:1116,590
DA:1117,590
DA:1119,390
DA:1122,590
DA:1114,590
DA:1115,590
DA:1116,590
DA:1117,590
DA:1119,390
DA:1122,590
DA:1114,590
DA:1115,590
DA:1116,590
DA:1117,590
DA:1119,390
DA:1122,590
DA:1114,590
DA:1115,590
DA:1116,590
DA:1117,590
DA:1119,390
DA:1122,590
DA:1114,590
DA:1115,590
DA:1116,590
DA:1117,590
DA:1119,390
DA:1122,590
DA:1114,598
DA:1115,598
DA:1116,598
DA:1117,598
DA:1119,397
DA:1122,598
DA:1125,10000
DA:1126,10000
DA:1127,10000
DA:1128,10000
DA:1129,5500
DA:1132,10000
DA:1125,2
DA:1126,2
DA:1127,2
DA:1128,2
DA:1129,2
DA:1132,2
DA:1139,252
DA:1140,252
DA:1141,252
DA:1142,0
DA:1144,252
DA:1145,252
DA:1139,252
DA:1140,252
DA:1141,252
DA:1142,0
DA:1144,252
DA:1145,252
DA:1139,252
DA:1140,252
DA:1141,252
DA:1142,0
DA:1144,252
DA:1145,252
DA:1139,252
DA:1140,252
DA:1141,252
DA:1142,0
DA:1144,252
DA:1145,252
DA:1139,252
DA:1140,252
DA:1141,252
DA:1142,0
DA:1144,252
DA:1145,252
DA:1139,252
DA:1140,252
DA:1141,252
DA:1142,0
DA:1144,252
DA:1145,252
DA:1139,252
DA:1140,252
DA:1141,252
DA:1142,0
DA:1144,252
DA:1145,252
DA:1139,5260
DA:1140,5260
DA:1141,5260
DA:1142,1
DA:1144,5259
DA:1145,5259
DA:1139,1
DA:1140,1
DA:1141,1
DA:1142,0
DA:1144,1
DA:1145,1
DA:1174,776
DA:1176,776
DA:1174,776
DA:1176,776
DA:1174,776
DA:1176,776
DA:1174,776
DA:1176,776
DA:1174,776
DA:1176,776
DA:1174,776
DA:1176,776
DA:1174,387
DA:1176,387
DA:1174,7397
DA:1176,7397
DA:1174,3
DA:1176,3
DA:1190,11
DA:1191,11
DA:1192,0
DA:1193,0
DA:1194,0
DA:1197,11
DA:1190,11
DA:1191,11
DA:1192,0
DA:1193,0
DA:1194,0
DA:1197,11
DA:1190,11
DA:1191,11
DA:1192,0
DA:1193,0
DA:1194,0
DA:1197,11
DA:1190,11
DA:1191,11
DA:1192,0
DA:1193,0
DA:1194,0
DA:1197,11
DA:1190,11
DA:1191,11
DA:1192,0
DA:1193,0
DA:1194,0
DA:1197,11
DA:1190,11
DA:1191,11
DA:1192,0
DA:1193,0
DA:1194,0
DA:1197,11
DA:1190,11
DA:1191,11
DA:1192,0
DA:1193,0
DA:1194,0
DA:1197,11
DA:1190,15
DA:1191,15
DA:1192,0
DA:1193,0
DA:1194,0
DA:1197,15
DA:1190,1
DA:1191,1
DA:1192,10
DA:1193,9
DA:1194,1
DA:1197,1
DA:1200,280
DA:1202,280
DA:1203,280
DA:1205,561
DA:1206,1
DA:1208,280
DA:1200,280
DA:1202,280
DA:1203,280
DA:1205,561
DA:1206,1
DA:1208,280
DA:1200,280
DA:1202,280
DA:1203,280
DA:1205,561
DA:1206,1
DA:1208,280
DA:1200,280
DA:1202,280
DA:1203,280
DA:1205,561
DA:1206,1
DA:1208,280
DA:1200,280
DA:1202,280
DA:1203,280
DA:1205,561
DA:1206,1
DA:1208,280
DA:1200,280
DA:1202,280
DA:1203,280
DA:1205,561
DA:1206,1
DA:1208,280
DA:1200,270
DA:1202,270
DA:1203,270
DA:1205,541
DA:1206,1
DA:1208,270
DA:1200,5297
DA:1202,5297
DA:1203,5297
DA:1205,10606
DA:1206,12
DA:1208,5297
DA:1200,2
DA:1208,2
DA:1212,1
DA:1218,1
DA:1219,0
DA:1220,1
DA:1221,1
DA:1225,1
DA:1228,1
DA:1229,1
DA:1230,1
DA:1231,1
DA:1212,1
DA:1218,1
DA:1219,0
DA:1220,1
DA:1221,1
DA:1225,1
DA:1228,1
DA:1229,1
DA:1230,1
DA:1231,1
DA:1212,1
DA:1218,1
DA:1219,0
DA:1220,1
DA:1221,1
DA:1225,1
DA:1228,1
DA:1229,1
DA:1230,1
DA:1231,1
DA:1212,1
DA:1218,1
DA:1219,0
DA:1220,1
DA:1221,1
DA:1225,1
DA:1228,1
DA:1229,1
DA:1230,1
DA:1231,1
DA:1212,1
DA:1218,1
DA:1219,0
DA:1220,1
DA:1221,1
DA:1225,1
DA:1228,1
DA:1229,1
DA:1230,1
DA:1231,1
DA:1212,1
DA:1218,1
DA:1219,0
DA:1220,1
DA:1221,1
DA:1225,1
DA:1228,1
DA:1229,1
DA:1230,1
DA:1231,1
DA:1212,1
DA:1218,1
DA:1219,0
DA:1220,1
DA:1221,1
DA:1225,1
DA:1228,1
DA:1229,1
DA:1230,1
DA:1231,1
DA:1212,1
DA:1218,1
DA:1219,0
DA:1220,1
DA:1221,0
DA:1225,1
DA:1228,1
DA:1229,1
DA:1230,1
DA:1231,1
DA:1233,1
DA:1238,1
DA:1239,1
DA:1240,1
DA:1233,1
DA:1238,1
DA:1239,1
DA:1240,1
DA:1233,1
DA:1238,1
DA:1239,1
DA:1240,1
DA:1233,1
DA:1238,1
DA:1239,1
DA:1240,1
DA:1233,1
DA:1238,1
DA:1239,1
DA:1240,1
DA:1233,1
DA:1238,1
DA:1239,1
DA:1240,1
DA:1233,1
DA:1238,1
DA:1239,1
DA:1240,1
DA:1233,1
DA:1238,1
DA:1239,1
DA:1240,1
DA:1243,2
DA:1245,2
DA:1246,2
DA:1247,2
DA:1269,0
DA:1270,0
DA:1243,993
DA:1245,993
DA:1246,993
DA:1247,978
DA:1269,15
DA:1270,15
DA:1243,993
DA:1245,993
DA:1246,993
DA:1247,978
DA:1269,15
DA:1270,15
DA:1243,993
DA:1245,993
DA:1246,993
DA:1247,978
DA:1269,15
DA:1270,15
DA:1243,993
DA:1245,993
DA:1246,993
DA:1247,978
DA:1269,15
DA:1270,15
DA:1243,993
DA:1245,993
DA:1246,993
DA:1247,978
DA:1269,15
DA:1270,15
DA:1243,11001
DA:1245,11001
DA:1246,11001
DA:1247,10980
DA:1269,21
DA:1270,21
DA:1243,993
DA:1245,993
DA:1246,993
DA:1247,978
DA:1269,15
DA:1270,15
DA:1243,593
DA:1245,593
DA:1246,593
DA:1247,588
DA:1269,5
DA:1270,5
DA:1273,27
DA:1274,27
DA:1275,0
DA:1280,27
DA:1282,143
DA:1283,116
DA:1291,27
DA:1292,0
DA:1294,27
DA:1295,27
DA:1296,27
DA:1297,27
DA:1308,27
DA:1309,27
DA:1310,27
DA:1311,27
DA:1317,27
DA:1324,27
DA:1325,27
DA:1326,27
DA:1330,27
DA:1334,776
DA:1335,764
DA:1336,252
DA:1342,512
DA:1343,512
DA:1344,512
DA:1345,512
DA:1346,512
DA:1347,512
DA:1348,0
DA:1350,512
DA:1351,15
DA:1380,27
DA:1381,27
DA:1273,27
DA:1274,27
DA:1275,0
DA:1280,27
DA:1282,143
DA:1283,116
DA:1291,27
DA:1292,0
DA:1294,27
DA:1295,27
DA:1296,27
DA:1297,27
DA:1308,27
DA:1309,27
DA:1310,27
DA:1311,27
DA:1317,27
DA:1324,27
DA:1325,27
DA:1326,27
DA:1330,27
DA:1334,776
DA:1335,764
DA:1336,252
DA:1342,512
DA:1343,512
DA:1344,512
DA:1345,512
DA:1346,512
DA:1347,512
DA:1348,0
DA:1350,512
DA:1351,15
DA:1380,27
DA:1381,27
DA:1273,27
DA:1274,27
DA:1275,0
DA:1280,27
DA:1282,143
DA:1283,116
DA:1291,27
DA:1292,0
DA:1294,27
DA:1295,27
DA:1296,27
DA:1297,27
DA:1308,27
DA:1309,27
DA:1310,27
DA:1311,27
DA:1317,27
DA:1324,27
DA:1325,27
DA:1326,27
DA:1330,27
DA:1334,776
DA:1335,764
DA:1336,252
DA:1342,512
DA:1343,512
DA:1344,512
DA:1345,512
DA:1346,512
DA:1347,512
DA:1348,0
DA:1350,512
DA:1351,15
DA:1380,27
DA:1381,27
DA:1273,27
DA:1274,27
DA:1275,0
DA:1280,27
DA:1282,143
DA:1283,116
DA:1291,27
DA:1292,0
DA:1294,27
DA:1295,27
DA:1296,27
DA:1297,27
DA:1308,27
DA:1309,27
DA:1310,27
DA:1311,27
DA:1317,27
DA:1324,27
DA:1325,27
DA:1326,27
DA:1330,27
DA:1334,776
DA:1335,764
DA:1336,252
DA:1342,512
DA:1343,512
DA:1344,512
DA:1345,512
DA:1346,512
DA:1347,512
DA:1348,0
DA:1350,512
DA:1351,15
DA:1380,27
DA:1381,27
DA:1273,27
DA:1274,27
DA:1275,0
DA:1280,27
DA:1282,143
DA:1283,116
DA:1291,27
DA:1292,0
DA:1294,27
DA:1295,27
DA:1296,27
DA:1297,27
DA:1308,27
DA:1309,27
DA:1310,27
DA:1311,27
DA:1317,27
DA:1324,27
DA:1325,27
DA:1326,27
DA:1330,27
DA:1334,776
DA:1335,764
DA:1336,252
DA:1342,512
DA:1343,512
DA:1344,512
DA:1345,512
DA:1346,512
DA:1347,512
DA:1348,0
DA:1350,512
DA:1351,15
DA:1380,27
DA:1381,27
DA:1273,27
DA:1274,27
DA:1275,0
DA:1280,27
DA:1282,143
DA:1283,116
DA:1291,27
DA:1292,0
DA:1294,27
DA:1295,27
DA:1296,27
DA:1297,27
DA:1308,27
DA:1309,27
DA:1310,27
DA:1311,27
DA:1317,27
DA:1324,27
DA:1325,27
DA:1326,27
DA:1330,27
DA:1334,776
DA:1335,764
DA:1336,252
DA:1342,512
DA:1343,512
DA:1344,512
DA:1345,512
DA:1346,512
DA:1347,512
DA:1348,0
DA:1350,512
DA:1351,15
DA:1380,27
DA:1381,27
DA:1273,17
DA:1274,17
DA:1275,0
DA:1280,17
DA:1282,84
DA:1283,67
DA:1291,17
DA:1292,0
DA:1294,17
DA:1295,17
DA:1296,17
DA:1297,17
DA:1308,17
DA:1309,17
DA:1310,17
DA:1311,17
DA:1317,17
DA:1324,17
DA:1325,17
DA:1326,17
DA:1330,17
DA:1334,284
DA:1335,272
DA:1336,149
DA:1342,123
DA:1343,123
DA:1344,123
DA:1345,123
DA:1346,123
DA:1347,123
DA:1348,0
DA:1350,123
DA:1351,5
DA:1380,17
DA:1381,17
DA:1273,37
DA:1274,37
DA:1275,0
DA:1280,37
DA:1282,224
DA:1283,187
DA:1291,37
DA:1292,0
DA:1294,37
DA:1295,37
DA:1296,37
DA:1297,37
DA:1308,37
DA:1309,37
DA:1310,37
DA:1311,37
DA:1317,37
DA:1324,37
DA:1325,37
DA:1326,37
DA:1330,37
DA:1334,2796
DA:1335,2780
DA:1336,658
DA:1342,2122
DA:1343,2122
DA:1344,2122
DA:1345,2122
DA:1346,2122
DA:1347,2122
DA:1348,0
DA:1350,2122
DA:1351,21
DA:1380,37
DA:1381,37
DA:1273,1
DA:1274,1
DA:1275,0
DA:1280,1
DA:1282,4
DA:1283,3
DA:1291,1
DA:1292,0
DA:1294,1
DA:1295,1
DA:1296,1
DA:1297,1
DA:1308,1
DA:1309,1
DA:1310,1
DA:1311,1
DA:1317,1
DA:1324,1
DA:1325,1
DA:1326,1
DA:1334,1
DA:1335,0
DA:1336,0
DA:1342,0
DA:1343,0
DA:1344,0
DA:1345,0
DA:1346,0
DA:1347,0
DA:1348,0
DA:1350,0
DA:1351,0
DA:1380,1
DA:1381,1
DA:1385,27
DA:1387,27
DA:1388,0
DA:1389,27
DA:1390,27
DA:1391,0
DA:1392,27
DA:1385,27
DA:1387,27
DA:1388,0
DA:1389,27
DA:1390,27
DA:1391,0
DA:1392,27
DA:1385,27
DA:1387,27
DA:1388,0
DA:1389,27
DA:1390,27
DA:1391,0
DA:1392,27
DA:1385,27
DA:1387,27
DA:1388,0
DA:1389,27
DA:1390,27
DA:1391,0
DA:1392,27
DA:1385,27
DA:1387,27
DA:1388,0
DA:1389,27
DA:1390,27
DA:1391,0
DA:1392,27
DA:1385,27
DA:1387,27
DA:1388,0
DA:1389,27
DA:1390,27
DA:1391,0
DA:1392,27
DA:1385,17
DA:1387,17
DA:1388,0
DA:1389,17
DA:1390,17
DA:1391,0
DA:1392,17
DA:1385,37
DA:1387,37
DA:1388,0
DA:1389,37
DA:1390,37
DA:1391,0
DA:1392,37
DA:1385,1
DA:1387,1
DA:1388,0
DA:1389,1
DA:1390,1
DA:1391,0
DA:1392,1
DA:1395,38
DA:1396,38
DA:1397,27
DA:1398,38
DA:1395,38
DA:1396,38
DA:1397,27
DA:1398,38
DA:1395,38
DA:1396,38
DA:1397,27
DA:1398,38
DA:1395,38
DA:1396,38
DA:1397,27
DA:1398,38
DA:1395,38
DA:1396,38
DA:1397,27
DA:1398,38
DA:1395,38
DA:1396,38
DA:1397,27
DA:1398,38
DA:1395,28
DA:1396,28
DA:1397,17
DA:1398,28
DA:1395,52
DA:1396,52
DA:1397,37
DA:1398,52
DA:1395,2
DA:1396,2
DA:1397,1
DA:1398,2
DA:1462,992
DA:1462,992
DA:1462,992
DA:1462,992
DA:1462,992
DA:1462,992
DA:1462,592
DA:1462,11000
DA:1462,2
DA:1464,252
DA:1465,252
DA:1467,0
DA:1469,252
DA:1470,252
DA:1481,252
DA:1483,252
DA:1464,252
DA:1465,252
DA:1467,0
DA:1469,252
DA:1470,252
DA:1481,252
DA:1483,252
DA:1464,252
DA:1465,252
DA:1467,0
DA:1469,252
DA:1470,252
DA:1481,252
DA:1483,252
DA:1464,252
DA:1465,252
DA:1467,0
DA:1469,252
DA:1470,252
DA:1481,252
DA:1483,252
DA:1464,252
DA:1465,252
DA:1467,0
DA:1469,252
DA:1470,252
DA:1481,252
DA:1483,252
DA:1464,252
DA:1465,252
DA:1467,0
DA:1469,252
DA:1470,252
DA:1481,252
DA:1483,252
DA:1464,252
DA:1465,252
DA:1467,0
DA:1469,252
DA:1470,252
DA:1481,252
DA:1483,252
DA:1464,5259
DA:1465,5259
DA:1467,0
DA:1469,5259
DA:1470,5259
DA:1481,5259
DA:1483,5259
DA:1464,2
DA:1465,2
DA:1467,2
DA:1469,2
DA:1470,2
DA:1481,2
DA:1483,2
DA:1485,252
DA:1486,252
DA:1487,252
DA:1488,252
DA:1489,0
DA:1491,252
DA:1492,252
DA:1493,252
DA:1494,0
DA:1495,0
DA:1496,0
DA:1497,0
DA:1498,0
DA:1503,0
DA:1504,0
DA:1505,0
DA:1506,0
DA:1508,0
DA:1509,0
DA:1523,0
DA:1524,0
DA:1525,0
DA:1526,0
DA:1529,0
DA:1485,252
DA:1486,252
DA:1487,252
DA:1488,252
DA:1489,0
DA:1491,252
DA:1492,252
DA:1493,252
DA:1494,0
DA:1495,0
DA:1496,0
DA:1497,0
DA:1498,0
DA:1503,0
DA:1504,0
DA:1505,0
DA:1506,0
DA:1508,0
DA:1509,0
DA:1523,0
DA:1524,0
DA:1525,0
DA:1526,0
DA:1529,0
DA:1485,252
DA:1486,252
DA:1487,252
DA:1488,252
DA:1489,0
DA:1491,252
DA:1492,252
DA:1493,252
DA:1494,0
DA:1495,0
DA:1496,0
DA:1497,0
DA:1498,0
DA:1503,0
DA:1504,0
DA:1505,0
DA:1506,0
DA:1508,0
DA:1509,0
DA:1523,0
DA:1524,0
DA:1525,0
DA:1526,0
DA:1529,0
DA:1485,252
DA:1486,252
DA:1487,252
DA:1488,252
DA:1489,0
DA:1491,252
DA:1492,252
DA:1493,252
DA:1494,0
DA:1495,0
DA:1496,0
DA:1497,0
DA:1498,0
DA:1503,0
DA:1504,0
DA:1505,0
DA:1506,0
DA:1508,0
DA:1509,0
DA:1523,0
DA:1524,0
DA:1525,0
DA:1526,0
DA:1529,0
DA:1485,252
DA:1486,252
DA:1487,252
DA:1488,252
DA:1489,0
DA:1491,252
DA:1492,252
DA:1493,252
DA:1494,0
DA:1495,0
DA:1496,0
DA:1497,0
DA:1498,0
DA:1503,0
DA:1504,0
DA:1505,0
DA:1506,0
DA:1508,0
DA:1509,0
DA:1523,0
DA:1524,0
DA:1525,0
DA:1526,0
DA:1529,0
DA:1485,252
DA:1486,252
DA:1487,252
DA:1488,252
DA:1489,0
DA:1491,252
DA:1492,252
DA:1493,252
DA:1494,0
DA:1495,0
DA:1496,0
DA:1497,0
DA:1498,0
DA:1503,0
DA:1504,0
DA:1505,0
DA:1506,0
DA:1508,0
DA:1509,0
DA:1523,0
DA:1524,0
DA:1525,0
DA:1526,0
DA:1529,0
DA:1485,252
DA:1486,252
DA:1487,252
DA:1488,252
DA:1489,0
DA:1491,252
DA:1492,252
DA:1493,252
DA:1494,0
DA:1495,0
DA:1496,0
DA:1497,0
DA:1498,0
DA:1503,0
DA:1504,0
DA:1505,0
DA:1506,0
DA:1508,0
DA:1509,0
DA:1523,0
DA:1524,0
DA:1525,0
DA:1526,0
DA:1529,0
DA:1485,5260
DA:1486,5260
DA:1487,5260
DA:1488,5260
DA:1489,1
DA:1491,5259
DA:1492,5259
DA:1493,5259
DA:1494,0
DA:1495,0
DA:1496,0
DA:1497,0
DA:1498,0
DA:1503,0
DA:1504,0
DA:1505,0
DA:1506,0
DA:1508,0
DA:1509,0
DA:1523,0
DA:1524,0
DA:1525,0
DA:1526,0
DA:1529,0
DA:1485,1
DA:1486,1
DA:1487,1
DA:1488,1
DA:1489,0
DA:1491,1
DA:1492,1
DA:1493,1
DA:1494,0
DA:1495,0
DA:1496,0
DA:1497,0
DA:1498,0
DA:1503,0
DA:1504,0
DA:1505,0
DA:1506,0
DA:1508,0
DA:1509,0
DA:1523,0
DA:1524,0
DA:1525,0
DA:1526,0
DA:1529,0
DA:1549,14
DA:1550,14
DA:1553,14
DA:1554,14
DA:1555,2
DA:1556,12
DA:1557,12
DA:1560,0
DA:1549,14
DA:1550,14
DA:1553,14
DA:1554,14
DA:1555,2
DA:1556,12
DA:1557,12
DA:1560,0
DA:1549,14
DA:1550,14
DA:1553,14
DA:1554,14
DA:1555,2
DA:1556,12
DA:1557,12
DA:1560,0
DA:1549,14
DA:1550,14
DA:1553,14
DA:1554,14
DA:1555,2
DA:1556,12
DA:1557,12
DA:1560,0
DA:1549,14
DA:1550,14
DA:1553,14
DA:1554,14
DA:1555,2
DA:1556,12
DA:1557,12
DA:1560,0
DA:1549,14
DA:1550,14
DA:1553,14
DA:1554,14
DA:1555,2
DA:1556,12
DA:1557,12
DA:1560,0
DA:1549,14
DA:1550,14
DA:1553,14
DA:1554,14
DA:1555,2
DA:1556,12
DA:1557,12
DA:1560,0
DA:1549,33
DA:1550,33
DA:1553,33
DA:1554,33
DA:1555,10
DA:1556,23
DA:1557,23
DA:1560,0
DA:1549,1
DA:1550,1
DA:1560,1
DA:1549,1
DA:1550,1
DA:1560,1
DA:1549,3
DA:1550,3
DA:1560,3
DA:1564,2720
DA:1565,2720
DA:1567,2720
DA:1568,2470
DA:1569,250
DA:1570,0
DA:1572,250
DA:1573,250
DA:1577,0
DA:1578,0
DA:1579,0
DA:1580,0
DA:1582,0
DA:1583,0
DA:1586,0
DA:1588,0
DA:1564,2720
DA:1565,2720
DA:1567,2720
DA:1568,2470
DA:1569,250
DA:1570,0
DA:1572,250
DA:1573,250
DA:1577,0
DA:1578,0
DA:1579,0
DA:1580,0
DA:1582,0
DA:1583,0
DA:1586,0
DA:1588,0
DA:1564,2720
DA:1565,2720
DA:1567,2720
DA:1568,2470
DA:1569,250
DA:1570,0
DA:1572,250
DA:1573,250
DA:1577,0
DA:1578,0
DA:1579,0
DA:1580,0
DA:1582,0
DA:1583,0
DA:1586,0
DA:1588,0
DA:1564,2720
DA:1565,2720
DA:1567,2720
DA:1568,2470
DA:1569,250
DA:1570,0
DA:1572,250
DA:1573,250
DA:1577,0
DA:1578,0
DA:1579,0
DA:1580,0
DA:1582,0
DA:1583,0
DA:1586,0
DA:1588,0
DA:1564,2720
DA:1565,2720
DA:1567,2720
DA:1568,2470
DA:1569,250
DA:1570,0
DA:1572,250
DA:1573,250
DA:1577,0
DA:1578,0
DA:1579,0
DA:1580,0
DA:1582,0
DA:1583,0
DA:1586,0
DA:1588,0
DA:1564,2720
DA:1565,2720
DA:1567,2720
DA:1568,2470
DA:1569,250
DA:1570,0
DA:1572,250
DA:1573,250
DA:1577,0
DA:1578,0
DA:1579,0
DA:1580,0
DA:1582,0
DA:1583,0
DA:1586,0
DA:1588,0
DA:1564,2228
DA:1565,2228
DA:1567,2228
DA:1568,2178
DA:1569,50
DA:1570,0
DA:1572,50
DA:1573,50
DA:1577,0
DA:1578,0
DA:1579,0
DA:1580,0
DA:1582,0
DA:1583,0
DA:1586,0
DA:1588,0
DA:1564,1
DA:1565,1
DA:1567,1
DA:1568,0
DA:1569,1
DA:1570,1
DA:1572,0
DA:1573,0
DA:1577,0
DA:1578,0
DA:1579,0
DA:1580,0
DA:1582,0
DA:1583,0
DA:1586,0
DA:1588,0
DA:1564,1
DA:1565,1
DA:1567,1
DA:1568,1
DA:1569,0
DA:1570,0
DA:1572,0
DA:1573,0
DA:1577,0
DA:1578,0
DA:1579,0
DA:1580,0
DA:1582,0
DA:1583,0
DA:1586,0
DA:1588,0
DA:1564,3
DA:1565,3
DA:1567,3
DA:1568,2
DA:1569,1
DA:1570,1
DA:1572,0
DA:1573,0
DA:1577,0
DA:1578,0
DA:1579,0
DA:1580,0
DA:1582,0
DA:1583,0
DA:1586,0
DA:1588,0
DA:1564,4996
DA:1565,4996
DA:1567,4996
DA:1568,4246
DA:1569,750
DA:1570,0
DA:1572,750
DA:1573,750
DA:1577,0
DA:1578,0
DA:1579,0
DA:1580,0
DA:1582,0
DA:1583,0
DA:1586,0
DA:1588,0
DA:1598,0
DA:1599,0
DA:1600,0
DA:1601,0
DA:1602,0
DA:1603,0
DA:1604,0
DA:1605,0
DA:1606,0
DA:1607,0
DA:1609,0
DA:1610,0
DA:1611,0
DA:1598,0
DA:1599,0
DA:1600,0
DA:1601,0
DA:1602,0
DA:1603,0
DA:1604,0
DA:1605,0
DA:1606,0
DA:1607,0
DA:1609,0
DA:1610,0
DA:1611,0
DA:1598,0
DA:1599,0
DA:1600,0
DA:1601,0
DA:1602,0
DA:1603,0
DA:1604,0
DA:1605,0
DA:1606,0
DA:1607,0
DA:1609,0
DA:1610,0
DA:1611,0
DA:1598,0
DA:1599,0
DA:1600,0
DA:1601,0
DA:1602,0
DA:1603,0
DA:1604,0
DA:1605,0
DA:1606,0
DA:1607,0
DA:1609,0
DA:1610,0
DA:1611,0
DA:1598,0
DA:1599,0
DA:1600,0
DA:1601,0
DA:1602,0
DA:1603,0
DA:1604,0
DA:1605,0
DA:1606,0
DA:1607,0
DA:1609,0
DA:1610,0
DA:1611,0
DA:1598,0
DA:1599,0
DA:1600,0
DA:1601,0
DA:1602,0
DA:1603,0
DA:1604,0
DA:1605,0
DA:1606,0
DA:1607,0
DA:1609,0
DA:1610,0
DA:1611,0
DA:1598,0
DA:1599,0
DA:1600,0
DA:1601,0
DA:1602,0
DA:1603,0
DA:1604,0
DA:1605,0
DA:1606,0
DA:1607,0
DA:1609,0
DA:1610,0
DA:1611,0
DA:1598,0
DA:1599,0
DA:1600,0
DA:1601,0
DA:1602,0
DA:1603,0
DA:1604,0
DA:1605,0
DA:1606,0
DA:1607,0
DA:1609,0
DA:1610,0
DA:1611,0
DA:1598,0
DA:1599,0
DA:1600,0
DA:1601,0
DA:1602,0
DA:1603,0
DA:1604,0
DA:1605,0
DA:1606,0
DA:1607,0
DA:1609,0
DA:1610,0
DA:1611,0
DA:1618,1504
DA:1620,1504
DA:1621,1504
DA:1626,1304
DA:1629,200
DA:1630,200
DA:1631,0
DA:1633,200
DA:1618,1504
DA:1620,1504
DA:1621,1504
DA:1626,1304
DA:1629,200
DA:1630,200
DA:1631,0
DA:1633,200
DA:1618,1504
DA:1620,1504
DA:1621,1504
DA:1626,1304
DA:1629,200
DA:1630,200
DA:1631,0
DA:1633,200
DA:1618,1504
DA:1620,1504
DA:1621,1504
DA:1626,1304
DA:1629,200
DA:1630,200
DA:1631,0
DA:1633,200
DA:1618,1504
DA:1620,1504
DA:1621,1504
DA:1626,1304
DA:1629,200
DA:1630,200
DA:1631,0
DA:1633,200
DA:1618,1504
DA:1620,1504
DA:1621,1504
DA:1626,1304
DA:1629,200
DA:1630,200
DA:1631,0
DA:1633,200
DA:1618,715
DA:1620,715
DA:1621,715
DA:1626,515
DA:1629,200
DA:1630,200
DA:1631,0
DA:1633,200
DA:1618,13122
DA:1620,13122
DA:1621,13122
DA:1626,8421
DA:1629,4701
DA:1630,4701
DA:1631,0
DA:1633,4701
DA:1618,2
DA:1620,2
DA:1621,2
DA:1626,2
DA:1629,0
DA:1630,0
DA:1631,0
DA:1633,0
DA:1643,590
DA:1644,590
DA:1645,590
DA:1646,590
DA:1647,390
DA:1649,200
DA:1650,200
DA:1651,200
DA:1652,200
DA:1653,0
DA:1654,0
DA:1656,0
DA:1661,0
DA:1662,0
DA:1663,0
DA:1668,0
DA:1676,0
DA:1677,0
DA:1678,0
DA:1681,0
DA:1683,0
DA:1687,0
DA:1688,0
DA:1643,590
DA:1644,590
DA:1645,590
DA:1646,590
DA:1647,390
DA:1649,200
DA:1650,200
DA:1651,200
DA:1652,200
DA:1653,0
DA:1654,0
DA:1656,0
DA:1661,0
DA:1662,0
DA:1663,0
DA:1668,0
DA:1676,0
DA:1677,0
DA:1678,0
DA:1681,0
DA:1683,0
DA:1687,0
DA:1688,0
DA:1643,590
DA:1644,590
DA:1645,590
DA:1646,590
DA:1647,390
DA:1649,200
DA:1650,200
DA:1651,200
DA:1652,200
DA:1653,0
DA:1654,0
DA:1656,0
DA:1661,0
DA:1662,0
DA:1663,0
DA:1668,0
DA:1676,0
DA:1677,0
DA:1678,0
DA:1681,0
DA:1683,0
DA:1687,0
DA:1688,0
DA:1643,590
DA:1644,590
DA:1645,590
DA:1646,590
DA:1647,390
DA:1649,200
DA:1650,200
DA:1651,200
DA:1652,200
DA:1653,0
DA:1654,0
DA:1656,0
DA:1661,0
DA:1662,0
DA:1663,0
DA:1668,0
DA:1676,0
DA:1677,0
DA:1678,0
DA:1681,0
DA:1683,0
DA:1687,0
DA:1688,0
DA:1643,590
DA:1644,590
DA:1645,590
DA:1646,590
DA:1647,390
DA:1649,200
DA:1650,200
DA:1651,200
DA:1652,200
DA:1653,0
DA:1654,0
DA:1656,0
DA:1661,0
DA:1662,0
DA:1663,0
DA:1668,0
DA:1676,0
DA:1677,0
DA:1678,0
DA:1681,0
DA:1683,0
DA:1687,0
DA:1688,0
DA:1643,590
DA:1644,590
DA:1645,590
DA:1646,590
DA:1647,390
DA:1649,200
DA:1650,200
DA:1651,200
DA:1652,200
DA:1653,0
DA:1654,0
DA:1656,0
DA:1661,0
DA:1662,0
DA:1663,0
DA:1668,0
DA:1676,0
DA:1677,0
DA:1678,0
DA:1681,0
DA:1683,0
DA:1687,0
DA:1688,0
DA:1643,590
DA:1644,590
DA:1645,590
DA:1646,590
DA:1647,390
DA:1649,200
DA:1650,200
DA:1651,200
DA:1652,200
DA:1653,0
DA:1654,0
DA:1656,0
DA:1661,0
DA:1662,0
DA:1663,0
DA:1668,0
DA:1676,0
DA:1677,0
DA:1678,0
DA:1681,0
DA:1683,0
DA:1687,0
DA:1688,0
DA:1643,10598
DA:1644,10598
DA:1645,10598
DA:1646,10598
DA:1647,5897
DA:1649,4701
DA:1650,4701
DA:1651,4701
DA:1652,4701
DA:1653,0
DA:1654,0
DA:1656,0
DA:1661,0
DA:1662,0
DA:1663,0
DA:1668,0
DA:1676,0
DA:1677,0
DA:1678,0
DA:1681,0
DA:1683,0
DA:1687,0
DA:1688,0
DA:1643,2
DA:1644,2
DA:1645,2
DA:1646,2
DA:1647,2
DA:1649,0
DA:1650,0
DA:1651,0
DA:1652,0
DA:1653,0
DA:1654,0
DA:1656,0
DA:1661,0
DA:1662,0
DA:1663,0
DA:1668,0
DA:1676,0
DA:1677,0
DA:1678,0
DA:1681,0
DA:1683,0
DA:1687,0
DA:1688,0
DA:1691,0
DA:1692,0
DA:1693,0
DA:1694,0
DA:1695,0
DA:1697,0
DA:1698,0
DA:1699,0
DA:1702,0
DA:1691,914
DA:1692,914
DA:1693,914
DA:1694,914
DA:1695,914
DA:1697,0
DA:1698,0
DA:1699,0
DA:1702,0
DA:1691,914
DA:1692,914
DA:1693,914
DA:1694,914
DA:1695,914
DA:1697,0
DA:1698,0
DA:1699,0
DA:1702,0
DA:1691,914
DA:1692,914
DA:1693,914
DA:1694,914
DA:1695,914
DA:1697,0
DA:1698,0
DA:1699,0
DA:1702,0
DA:1691,914
DA:1692,914
DA:1693,914
DA:1694,914
DA:1695,914
DA:1697,0
DA:1698,0
DA:1699,0
DA:1702,0
DA:1691,914
DA:1692,914
DA:1693,914
DA:1694,914
DA:1695,914
DA:1697,0
DA:1698,0
DA:1699,0
DA:1702,0
DA:1691,2524
DA:1692,2524
DA:1693,2524
DA:1694,2524
DA:1695,2524
DA:1697,0
DA:1698,0
DA:1699,0
DA:1702,0
DA:1691,914
DA:1692,914
DA:1693,914
DA:1694,914
DA:1695,914
DA:1697,0
DA:1698,0
DA:1699,0
DA:1702,0
DA:1691,125
DA:1692,125
DA:1693,125
DA:1694,125
DA:1695,125
DA:1697,0
DA:1698,0
DA:1699,0
DA:1702,0
DA:1739,0
DA:1740,0
DA:1741,0
DA:1746,0
DA:1747,0
DA:1748,0
DA:1749,0
DA:1750,0
DA:1752,0
DA:1753,0
DA:1754,0
DA:1758,0
DA:1772,0
DA:1773,0
DA:1774,0
DA:1775,0
DA:1776,0
DA:1777,0
DA:1794,0
DA:1795,0
DA:1796,0
DA:1797,0
DA:1799,0
DA:1800,0
DA:1801,0
DA:1802,0
DA:1803,0
DA:1794,0
DA:1795,0
DA:1796,0
DA:1797,0
DA:1799,0
DA:1800,0
DA:1801,0
DA:1802,0
DA:1803,0
DA:1794,0
DA:1795,0
DA:1796,0
DA:1797,0
DA:1799,0
DA:1800,0
DA:1801,0
DA:1802,0
DA:1803,0
DA:1794,0
DA:1795,0
DA:1796,0
DA:1797,0
DA:1799,0
DA:1800,0
DA:1801,0
DA:1802,0
DA:1803,0
DA:1794,0
DA:1795,0
DA:1796,0
DA:1797,0
DA:1799,0
DA:1800,0
DA:1801,0
DA:1802,0
DA:1803,0
DA:1794,0
DA:1795,0
DA:1796,0
DA:1797,0
DA:1799,0
DA:1800,0
DA:1801,0
DA:1802,0
DA:1803,0
DA:1794,0
DA:1795,0
DA:1796,0
DA:1797,0
DA:1799,0
DA:1800,0
DA:1801,0
DA:1802,0
DA:1803,0
DA:1794,0
DA:1795,0
DA:1796,0
DA:1797,0
DA:1799,0
DA:1800,0
DA:1801,0
DA:1802,0
DA:1803,0
DA:1794,0
DA:1795,0
DA:1796,0
DA:1797,0
DA:1799,0
DA:1800,0
DA:1801,0
DA:1802,0
DA:1803,0
DA:1807,0
DA:1808,0
DA:1809,0
DA:1810,0
DA:1812,0
DA:1813,0
DA:1814,0
DA:1815,0
DA:1816,0
DA:1807,0
DA:1808,0
DA:1809,0
DA:1810,0
DA:1812,0
DA:1813,0
DA:1814,0
DA:1815,0
DA:1816,0
DA:1807,0
DA:1808,0
DA:1809,0
DA:1810,0
DA:1812,0
DA:1813,0
DA:1814,0
DA:1815,0
DA:1816,0
DA:1807,0
DA:1808,0
DA:1809,0
DA:1810,0
DA:1812,0
DA:1813,0
DA:1814,0
DA:1815,0
DA:1816,0
DA:1807,0
DA:1808,0
DA:1809,0
DA:1810,0
DA:1812,0
DA:1813,0
DA:1814,0
DA:1815,0
DA:1816,0
DA:1807,0
DA:1808,0
DA:1809,0
DA:1810,0
DA:1812,0
DA:1813,0
DA:1814,0
DA:1815,0
DA:1816,0
DA:1807,0
DA:1808,0
DA:1809,0
DA:1810,0
DA:1812,0
DA:1813,0
DA:1814,0
DA:1815,0
DA:1816,0
DA:1807,0
DA:1808,0
DA:1809,0
DA:1810,0
DA:1812,0
DA:1813,0
DA:1814,0
DA:1815,0
DA:1816,0
DA:1807,0
DA:1808,0
DA:1809,0
DA:1810,0
DA:1812,0
DA:1813,0
DA:1814,0
DA:1815,0
DA:1816,0
DA:1821,37290
DA:1825,6325
DA:1875,43607
DA:1884,4
DA:1892,4
end_of_record
TN:
SF:/mnt/d/emhash/include/emhash/hash_set8.hpp
FN:130,_ZN7emhash87HashSetIiSt4hashIiESt8equal_toIiESaIiENS_14DefaultPolicy8EE8iteratorC2EPKS7_j
FNDA:189,_ZN7emhash87HashSetIiSt4hashIiESt8equal_toIiESaIiENS_14DefaultPolicy8EE8iteratorC2EPKS7_j
FN:134,_ZN7emhash87HashSetIiSt4hashIiESt8equal_toIiESaIiENS_14DefaultPolicy8EE8iteratorppEv
FNDA:16,_ZN7emhash87HashSetIiSt4hashIiESt8equal_toIiESaIiENS_14DefaultPolicy8EE8iteratorppEv
FN:156,_ZNK7emhash87HashSetIiSt4hashIiESt8equal_toIiESaIiENS_14DefaultPolicy8EE8iteratordeEv
FNDA:23,_ZNK7emhash87HashSetIiSt4hashIiESt8equal_toIiESaIiENS_14DefaultPolicy8EE8iteratordeEv
FN:160,_ZNK7emhash87HashSetIiSt4hashIiESt8equal_toIiESaIiENS_14DefaultPolicy8EE8iteratoreqERKS8_
FNDA:3,_ZNK7emhash87HashSetIiSt4hashIiESt8equal_toIiESaIiENS_14DefaultPolicy8EE8iteratoreqERKS8_
FN:161,_ZNK7emhash87HashSetIiSt4hashIiESt8equal_toIiESaIiENS_14DefaultPolicy8EE8iteratorneERKS8_
FNDA:26,_ZNK7emhash87HashSetIiSt4hashIiESt8equal_toIiESaIiENS_14DefaultPolicy8EE8iteratorneERKS8_
FN:185,_ZN7emhash87HashSetIiSt4hashIiESt8equal_toIiESaIiENS_14DefaultPolicy8EE14const_iteratorC2ERKNS7_8iteratorE
FNDA:8,_ZN7emhash87HashSetIiSt4hashIiESt8equal_toIiESaIiENS_14DefaultPolicy8EE14const_iteratorC2ERKNS7_8iteratorE
FN:186,_ZN7emhash87HashSetIiSt4hashIiESt8equal_toIiESaIiENS_14DefaultPolicy8EE14const_iteratorC2EPKS7_j
FNDA:11,_ZN7emhash87HashSetIiSt4hashIiESt8equal_toIiESaIiENS_14DefaultPolicy8EE14const_iteratorC2EPKS7_j
FN:190,_ZN7emhash87HashSetIiSt4hashIiESt8equal_toIiESaIiENS_14DefaultPolicy8EE14const_iteratorppEv
FNDA:10,_ZN7emhash87HashSetIiSt4hashIiESt8equal_toIiESaIiENS_14DefaultPolicy8EE14const_iteratorppEv
FN:212,_ZNK7emhash87HashSetIiSt4hashIiESt8equal_toIiESaIiENS_14DefaultPolicy8EE14const_iteratordeEv
FNDA:0,_ZNK7emhash87HashSetIiSt4hashIiESt8equal_toIiESaIiENS_14DefaultPolicy8EE14const_iteratordeEv
FN:217,_ZNK7emhash87HashSetIiSt4hashIiESt8equal_toIiESaIiENS_14DefaultPolicy8EE14const_iteratorneERKS8_
FNDA:11,_ZNK7emhash87HashSetIiSt4hashIiESt8equal_toIiESaIiENS_14DefaultPolicy8EE14const_iteratorneERKS8_
FN:228,_ZN7emhash87HashSetIiSt4hashIiESt8equal_toIiESaIiENS_14DefaultPolicy8EE4initEjf
FNDA:13,_ZN7emhash87HashSetIiSt4hashIiESt8equal_toIiESaIiENS_14DefaultPolicy8EE4initEjf
FN:239,_ZN7emhash87HashSetIiSt4hashIiESt8equal_toIiESaIiENS_14DefaultPolicy8EEC2Ejf
FNDA:12,_ZN7emhash87HashSetIiSt4hashIiESt8equal_toIiESaIiENS_14DefaultPolicy8EEC2Ejf
FN:241,_ZN7emhash87HashSetIiSt4hashIiESt8equal_toIiESaIiENS_14DefaultPolicy8EEC2ERKS7_
FNDA:1,_ZN7emhash87HashSetIiSt4hashIiESt8equal_toIiESaIiENS_14DefaultPolicy8EEC2ERKS7_
FN:256,_ZN7emhash87HashSetIiSt4hashIiESt8equal_toIiESaIiENS_14DefaultPolicy8EEC2EOS7_
FNDA:1,_ZN7emhash87HashSetIiSt4hashIiESt8equal_toIiESaIiENS_14DefaultPolicy8EEC2EOS7_
FN:299,_ZN7emhash87HashSetIiSt4hashIiESt8equal_toIiESaIiENS_14DefaultPolicy8EEaSERKS7_
FNDA:1,_ZN7emhash87HashSetIiSt4hashIiESt8equal_toIiESaIiENS_14DefaultPolicy8EEaSERKS7_
FN:333,_ZN7emhash87HashSetIiSt4hashIiESt8equal_toIiESaIiENS_14DefaultPolicy8EEaSEOS7_
FNDA:2,_ZN7emhash87HashSetIiSt4hashIiESt8equal_toIiESaIiENS_14DefaultPolicy8EEaSEOS7_
FN:355,_ZN7emhash87HashSetIiSt4hashIiESt8equal_toIiESaIiENS_14DefaultPolicy8EED2Ev
FNDA:14,_ZN7emhash87HashSetIiSt4hashIiESt8equal_toIiESaIiENS_14DefaultPolicy8EED2Ev
FN:364,_ZN7emhash87HashSetIiSt4hashIiESt8equal_toIiESaIiENS_14DefaultPolicy8EE5cloneERKS7_
FNDA:2,_ZN7emhash87HashSetIiSt4hashIiESt8equal_toIiESaIiENS_14DefaultPolicy8EE5cloneERKS7_
FN:389,_ZN7emhash87HashSetIiSt4hashIiESt8equal_toIiESaIiENS_14DefaultPolicy8EE4swapERS7_
FNDA:3,_ZN7emhash87HashSetIiSt4hashIiESt8equal_toIiESaIiENS_14DefaultPolicy8EE4swapERS7_
FN:409,_ZNK7emhash87HashSetIiSt4hashIiESt8equal_toIiESaIiENS_14DefaultPolicy8EE5firstEv
FNDA:4,_ZNK7emhash87HashSetIiSt4hashIiESt8equal_toIiESaIiENS_14DefaultPolicy8EE5firstEv
FN:421,_ZN7emhash87HashSetIiSt4hashIiESt8equal_toIiESaIiENS_14DefaultPolicy8EE5beginEv
FNDA:3,_ZN7emhash87HashSetIiSt4hashIiESt8equal_toIiESaIiENS_14DefaultPolicy8EE5beginEv
FN:422,_ZNK7emhash87HashSetIiSt4hashIiESt8equal_toIiESaIiENS_14DefaultPolicy8EE6cbeginEv
FNDA:1,_ZNK7emhash87HashSetIiSt4hashIiESt8equal_toIiESaIiENS_14DefaultPolicy8EE6cbeginEv
FN:423,_ZNK7emhash87HashSetIiSt4hashIiESt8equal_toIiESaIiENS_14DefaultPolicy8EE5beginEv
FNDA:0,_ZNK7emhash87HashSetIiSt4hashIiESt8equal_toIiESaIiENS_14DefaultPolicy8EE5beginEv
FN:425,_ZN7emhash87HashSetIiSt4hashIiESt8equal_toIiESaIiENS_14DefaultPolicy8EE3endEv
FNDA:29,_ZN7emhash87HashSetIiSt4hashIiESt8equal_toIiESaIiENS_14DefaultPolicy8EE3endEv
FN:426,_ZNK7emhash87HashSetIiSt4hashIiESt8equal_toIiESaIiENS_14DefaultPolicy8EE4cendEv
FNDA:11,_ZNK7emhash87HashSetIiSt4hashIiESt8equal_toIiESaIiENS_14DefaultPolicy8EE4cendEv
FN:427,_ZNK7emhash87HashSetIiSt4hashIiESt8equal_toIiESaIiENS_14DefaultPolicy8EE3endEv
FNDA:0,_ZNK7emhash87HashSetIiSt4hashIiESt8equal_toIiESaIiENS_14DefaultPolicy8EE3endEv
FN:432,_ZNK7emhash87HashSetIiSt4hashIiESt8equal_toIiESaIiENS_14DefaultPolicy8EE4sizeEv
FNDA:15,_ZNK7emhash87HashSetIiSt4hashIiESt8equal_toIiESaIiENS_14DefaultPolicy8EE4sizeEv
FN:433,_ZNK7emhash87HashSetIiSt4hashIiESt8equal_toIiESaIiENS_14DefaultPolicy8EE5emptyEv
FNDA:2,_ZNK7emhash87HashSetIiSt4hashIiESt8equal_toIiESaIiENS_14DefaultPolicy8EE5emptyEv
FN:434,_ZNK7emhash87HashSetIiSt4hashIiESt8equal_toIiESaIiENS_14DefaultPolicy8EE12bucket_countEv
FNDA:3,_ZNK7emhash87HashSetIiSt4hashIiESt8equal_toIiESaIiENS_14DefaultPolicy8EE12bucket_countEv
FN:435,_ZNK7emhash87HashSetIiSt4hashIiESt8equal_toIiESaIiENS_14DefaultPolicy8EE11load_factorEv
FNDA:3,_ZNK7emhash87HashSetIiSt4hashIiESt8equal_toIiESaIiENS_14DefaultPolicy8EE11load_factorEv
FN:441,_ZN7emhash87HashSetIiSt4hashIiESt8equal_toIiESaIiENS_14DefaultPolicy8EE15max_load_factorEf
FNDA:13,_ZN7emhash87HashSetIiSt4hashIiESt8equal_toIiESaIiENS_14DefaultPolicy8EE15max_load_factorEf
FN:449,_ZNK7emhash87HashSetIiSt4hashIiESt8equal_toIiESaIiENS_14DefaultPolicy8EE15max_load_factorEv
FNDA:28,_ZNK7emhash87HashSetIiSt4hashIiESt8equal_toIiESaIiENS_14DefaultPolicy8EE15max_load_factorEv
FN:450,_ZNK7emhash87HashSetIiSt4hashIiESt8equal_toIiESaIiENS_14DefaultPolicy8EE8max_sizeEv
FNDA:26,_ZNK7emhash87HashSetIiSt4hashIiESt8equal_toIiESaIiENS_14DefaultPolicy8EE8max_sizeEv
FN:576,_ZN7emhash87HashSetIiSt4hashIiESt8equal_toIiESaIiENS_14DefaultPolicy8EE4findIiEENS7_8iteratorERKT_
FNDA:5,_ZN7emhash87HashSetIiSt4hashIiESt8equal_toIiESaIiENS_14DefaultPolicy8EE4findIiEENS7_8iteratorERKT_
FN:584,_ZNK7emhash87HashSetIiSt4hashIiESt8equal_toIiESaIiENS_14DefaultPolicy8EE8containsIiEEbRKT_
FNDA:43,_ZNK7emhash87HashSetIiSt4hashIiESt8equal_toIiESaIiENS_14DefaultPolicy8EE8containsIiEEbRKT_
FN:588,_ZNK7emhash87HashSetIiSt4hashIiESt8equal_toIiESaIiENS_14DefaultPolicy8EE5countIiEEjRKT_
FNDA:2,_ZNK7emhash87HashSetIiSt4hashIiESt8equal_toIiESaIiENS_14DefaultPolicy8EE5countIiEEjRKT_
FN:602,_ZN7emhash87HashSetIiSt4hashIiESt8equal_toIiESaIiENS_14DefaultPolicy8EE5mergeERS7_
FNDA:1,_ZN7emhash87HashSetIiSt4hashIiESt8equal_toIiESaIiENS_14DefaultPolicy8EE5mergeERS7_
FN:620,_ZN7emhash87HashSetIiSt4hashIiESt8equal_toIiESaIiENS_14DefaultPolicy8EE9do_insertERKi
FNDA:130,_ZN7emhash87HashSetIiSt4hashIiESt8equal_toIiESaIiENS_14DefaultPolicy8EE9do_insertERKi
FN:632,_ZN7emhash87HashSetIiSt4hashIiESt8equal_toIiESaIiENS_14DefaultPolicy8EE9do_insertEOi
FNDA:14,_ZN7emhash87HashSetIiSt4hashIiESt8equal_toIiESaIiENS_14DefaultPolicy8EE9do_insertEOi
FN:644,_ZN7emhash87HashSetIiSt4hashIiESt8equal_toIiESaIiENS_14DefaultPolicy8EE6insertERKi
FNDA:130,_ZN7emhash87HashSetIiSt4hashIiESt8equal_toIiESaIiENS_14DefaultPolicy8EE6insertERKi
FN:649,_ZN7emhash87HashSetIiSt4hashIiESt8equal_toIiESaIiENS_14DefaultPolicy8EE6insertEOi
FNDA:14,_ZN7emhash87HashSetIiSt4hashIiESt8equal_toIiESaIiENS_14DefaultPolicy8EE6insertEOi
FN:666,_ZN7emhash87HashSetIiSt4hashIiESt8equal_toIiESaIiENS_14DefaultPolicy8EE9do_uniqueIiEEjOT_
FNDA:2,_ZN7emhash87HashSetIiSt4hashIiESt8equal_toIiESaIiENS_14DefaultPolicy8EE9do_uniqueIiEEjOT_
FN:666,_ZN7emhash87HashSetIiSt4hashIiESt8equal_toIiESaIiENS_14DefaultPolicy8EE9do_uniqueIRKiEEjOT_
FNDA:1,_ZN7emhash87HashSetIiSt4hashIiESt8equal_toIiESaIiENS_14DefaultPolicy8EE9do_uniqueIRKiEEjOT_
FN:674,_ZN7emhash87HashSetIiSt4hashIiESt8equal_toIiESaIiENS_14DefaultPolicy8EE13insert_uniqueEOi
FNDA:2,_ZN7emhash87HashSetIiSt4hashIiESt8equal_toIiESaIiENS_14DefaultPolicy8EE13insert_uniqueEOi
FN:676,_ZN7emhash87HashSetIiSt4hashIiESt8equal_toIiESaIiENS_14DefaultPolicy8EE13insert_uniqueERKi
FNDA:1,_ZN7emhash87HashSetIiSt4hashIiESt8equal_toIiESaIiENS_14DefaultPolicy8EE13insert_uniqueERKi
FN:706,_ZN7emhash87HashSetIiSt4hashIiESt8equal_toIiESaIiENS_14DefaultPolicy8EE5eraseERKi
FNDA:91,_ZN7emhash87HashSetIiSt4hashIiESt8equal_toIiESaIiENS_14DefaultPolicy8EE5eraseERKi
FN:718,_ZN7emhash87HashSetIiSt4hashIiESt8equal_toIiESaIiENS_14DefaultPolicy8EE5eraseERKNS7_14const_iteratorE
FNDA:7,_ZN7emhash87HashSetIiSt4hashIiESt8equal_toIiESaIiENS_14DefaultPolicy8EE5eraseERKNS7_14const_iteratorE
FN:745,_ZN7emhash87HashSetIiSt4hashIiESt8equal_toIiESaIiENS_14DefaultPolicy8EE8erase_ifIZ13test_erase_ifIS7_EvvEUlRKT_E_EEjSA_
FNDA:1,_ZN7emhash87HashSetIiSt4hashIiESt8equal_toIiESaIiENS_14DefaultPolicy8EE8erase_ifIZ13test_erase_ifIS7_EvvEUlRKT_E_EEjSA_
FN:756,_ZN7emhash87HashSetIiSt4hashIiESt8equal_toIiESaIiENS_14DefaultPolicy8EE18need_explicit_dtorEv
FNDA:115,_ZN7emhash87HashSetIiSt4hashIiESt8equal_toIiESaIiENS_14DefaultPolicy8EE18need_explicit_dtorEv
FN:764,_ZN7emhash87HashSetIiSt4hashIiESt8equal_toIiESaIiENS_14DefaultPolicy8EE21is_trivially_copyableEv
FNDA:28,_ZN7emhash87HashSetIiSt4hashIiESt8equal_toIiESaIiENS_14DefaultPolicy8EE21is_trivially_copyableEv
FN:772,_ZN7emhash87HashSetIiSt4hashIiESt8equal_toIiESaIiENS_14DefaultPolicy8EE7clearkvEv
FNDA:17,_ZN7emhash87HashSetIiSt4hashIiESt8equal_toIiESaIiENS_14DefaultPolicy8EE7clearkvEv
FN:780,_ZN7emhash87HashSetIiSt4hashIiESt8equal_toIiESaIiENS_14DefaultPolicy8EE5clearEv
FNDA:2,_ZN7emhash87HashSetIiSt4hashIiESt8equal_toIiESaIiENS_14DefaultPolicy8EE5clearEv
FN:794,_ZN7emhash87HashSetIiSt4hashIiESt8equal_toIiESaIiENS_14DefaultPolicy8EE13shrink_to_fitEf
FNDA:1,_ZN7emhash87HashSetIiSt4hashIiESt8equal_toIiESaIiENS_14DefaultPolicy8EE13shrink_to_fitEf
FN:856,_ZN7emhash87HashSetIiSt4hashIiESt8equal_toIiESaIiENS_14DefaultPolicy8EE7reserveEmb
FNDA:147,_ZN7emhash87HashSetIiSt4hashIiESt8equal_toIiESaIiENS_14DefaultPolicy8EE7reserveEmb
FN:890,_ZN7emhash87HashSetIiSt4hashIiESt8equal_toIiESaIiENS_14DefaultPolicy8EE12alloc_bucketEj
FNDA:28,_ZN7emhash87HashSetIiSt4hashIiESt8equal_toIiESaIiENS_14DefaultPolicy8EE12alloc_bucketEj
FN:892,_ZN7emhash87HashSetIiSt4hashIiESt8equal_toIiESaIiENS_14DefaultPolicy8EE14dealloc_bucketEPij
FNDA:41,_ZN7emhash87HashSetIiSt4hashIiESt8equal_toIiESaIiENS_14DefaultPolicy8EE14dealloc_bucketEPij
FN:897,_ZN7emhash87HashSetIiSt4hashIiESt8equal_toIiESaIiENS_14DefaultPolicy8EE11alloc_indexEj
FNDA:28,_ZN7emhash87HashSetIiSt4hashIiESt8equal_toIiESaIiENS_14DefaultPolicy8EE11alloc_indexEj
FN:901,_ZN7emhash87HashSetIiSt4hashIiESt8equal_toIiESaIiENS_14DefaultPolicy8EE13dealloc_indexEPNS7_5IndexEj
FNDA:41,_ZN7emhash87HashSetIiSt4hashIiESt8equal_toIiESaIiENS_14DefaultPolicy8EE13dealloc_indexEPNS7_5IndexEj
FN:925,_ZN7emhash87HashSetIiSt4hashIiESt8equal_toIiESaIiENS_14DefaultPolicy8EE7rebuildEjjj
FNDA:26,_ZN7emhash87HashSetIiSt4hashIiESt8equal_toIiESaIiENS_14DefaultPolicy8EE7rebuildEjjj
FN:948,_ZN7emhash87HashSetIiSt4hashIiESt8equal_toIiESaIiENS_14DefaultPolicy8EE6rehashEm
FNDA:26,_ZN7emhash87HashSetIiSt4hashIiESt8equal_toIiESaIiENS_14DefaultPolicy8EE6rehashEm
FN:1029,_ZN7emhash87HashSetIiSt4hashIiESt8equal_toIiESaIiENS_14DefaultPolicy8EE17check_expand_needEv
FNDA:147,_ZN7emhash87HashSetIiSt4hashIiESt8equal_toIiESaIiENS_14DefaultPolicy8EE17check_expand_needEv
FN:1031,_ZN7emhash87HashSetIiSt4hashIiESt8equal_toIiESaIiENS_14DefaultPolicy8EE19prefetch_heap_blockEPc
FNDA:277,_ZN7emhash87HashSetIiSt4hashIiESt8equal_toIiESaIiENS_14DefaultPolicy8EE19prefetch_heap_blockEPc
FN:1043,_ZNK7emhash87HashSetIiSt4hashIiESt8equal_toIiESaIiENS_14DefaultPolicy8EE14slot_to_bucketEj
FNDA:56,_ZNK7emhash87HashSetIiSt4hashIiESt8equal_toIiESaIiENS_14DefaultPolicy8EE14slot_to_bucketEj
FN:1049,_ZN7emhash87HashSetIiSt4hashIiESt8equal_toIiESaIiENS_14DefaultPolicy8EE10erase_slotEjj
FNDA:98,_ZN7emhash87HashSetIiSt4hashIiESt8equal_toIiESaIiENS_14DefaultPolicy8EE10erase_slotEjj
FN:1082,_ZN7emhash87HashSetIiSt4hashIiESt8equal_toIiESaIiENS_14DefaultPolicy8EE12erase_bucketEjj
FNDA:98,_ZN7emhash87HashSetIiSt4hashIiESt8equal_toIiESaIiENS_14DefaultPolicy8EE12erase_bucketEjj
FN:1098,_ZNK7emhash87HashSetIiSt4hashIiESt8equal_toIiESaIiENS_14DefaultPolicy8EE16find_slot_bucketEjRj
FNDA:63,_ZNK7emhash87HashSetIiSt4hashIiESt8equal_toIiESaIiENS_14DefaultPolicy8EE16find_slot_bucketEjRj
FN:1115,_ZNK7emhash87HashSetIiSt4hashIiESt8equal_toIiESaIiENS_14DefaultPolicy8EE18find_filled_bucketERKim
FNDA:91,_ZNK7emhash87HashSetIiSt4hashIiESt8equal_toIiESaIiENS_14DefaultPolicy8EE18find_filled_bucketERKim
FN:1148,_ZNK7emhash87HashSetIiSt4hashIiESt8equal_toIiESaIiENS_14DefaultPolicy8EE16find_filled_slotIiEEjRKT_
FNDA:50,_ZNK7emhash87HashSetIiSt4hashIiESt8equal_toIiESaIiENS_14DefaultPolicy8EE16find_filled_slotIiEEjRKT_
FN:1254,_ZN7emhash87HashSetIiSt4hashIiESt8equal_toIiESaIiENS_14DefaultPolicy8EE14kickout_bucketEjj
FNDA:0,_ZN7emhash87HashSetIiSt4hashIiESt8equal_toIiESaIiENS_14DefaultPolicy8EE14kickout_bucketEjj
FN:1275,_ZN7emhash87HashSetIiSt4hashIiESt8equal_toIiESaIiENS_14DefaultPolicy8EE16find_or_allocateIiEEjRKT_m
FNDA:144,_ZN7emhash87HashSetIiSt4hashIiESt8equal_toIiESaIiENS_14DefaultPolicy8EE16find_or_allocateIiEEjRKT_m
FN:1321,_ZN7emhash87HashSetIiSt4hashIiESt8equal_toIiESaIiENS_14DefaultPolicy8EE18find_unique_bucketEm
FNDA:140,_ZN7emhash87HashSetIiSt4hashIiESt8equal_toIiESaIiENS_14DefaultPolicy8EE18find_unique_bucketEm
FN:1357,_ZN7emhash87HashSetIiSt4hashIiESt8equal_toIiESaIiENS_14DefaultPolicy8EE17find_empty_bucketEjj
FNDA:0,_ZN7emhash87HashSetIiSt4hashIiESt8equal_toIiESaIiENS_14DefaultPolicy8EE17find_empty_bucketEjj
FN:1411,_ZNK7emhash87HashSetIiSt4hashIiESt8equal_toIiESaIiENS_14DefaultPolicy8EE16find_last_bucketEj
FNDA:0,_ZNK7emhash87HashSetIiSt4hashIiESt8equal_toIiESaIiENS_14DefaultPolicy8EE16find_last_bucketEj
FN:1424,_ZNK7emhash87HashSetIiSt4hashIiESt8equal_toIiESaIiENS_14DefaultPolicy8EE16find_prev_bucketEjj
FNDA:0,_ZNK7emhash87HashSetIiSt4hashIiESt8equal_toIiESaIiENS_14DefaultPolicy8EE16find_prev_bucketEjj
FN:1437,_ZNK7emhash87HashSetIiSt4hashIiESt8equal_toIiESaIiENS_14DefaultPolicy8EE11hash_bucketERKi
FNDA:0,_ZNK7emhash87HashSetIiSt4hashIiESt8equal_toIiESaIiENS_14DefaultPolicy8EE11hash_bucketERKi
FN:1439,_ZNK7emhash87HashSetIiSt4hashIiESt8equal_toIiESaIiENS_14DefaultPolicy8EE9hash_mainEj
FNDA:0,_ZNK7emhash87HashSetIiSt4hashIiESt8equal_toIiESaIiENS_14DefaultPolicy8EE9hash_mainEj
FN:1584,_ZNK7emhash87HashSetIiSt4hashIiESt8equal_toIiESaIiENS_14DefaultPolicy8EE8hash_keyIiLj0EEEmT_
FNDA:488,_ZNK7emhash87HashSetIiSt4hashIiESt8equal_toIiESaIiENS_14DefaultPolicy8EE8hash_keyIiLj0EEEmT_
DA:130,189
DA:131,189
DA:134,16
DA:135,16
DA:136,16
DA:156,23
DA:160,3
DA:161,26
DA:185,8
DA:186,11
DA:187,11
DA:190,10
DA:191,10
DA:192,10
DA:212,0
DA:217,11
DA:228,13
DA:229,13
DA:230,13
DA:231,13
DA:232,13
DA:233,13
DA:234,13
DA:235,13
DA:236,13
DA:237,13
DA:239,12
DA:241,1
DA:242,1
DA:243,1
DA:244,1
DA:245,1
DA:246,1
DA:247,1
DA:248,1
DA:250,0
DA:251,0
DA:252,0
DA:254,1
DA:256,1
DA:257,1
DA:258,1
DA:259,1
DA:260,1
DA:299,1
DA:300,1
DA:301,0
DA:308,1
DA:309,0
DA:310,0
DA:311,0
DA:312,0
DA:313,0
DA:314,0
DA:315,0
DA:316,0
DA:319,1
DA:321,1
DA:322,1
DA:323,1
DA:324,1
DA:325,1
DA:326,1
DA:329,1
DA:330,1
DA:333,2
DA:334,2
DA:335,2
DA:336,2
DA:338,2
DA:355,14
DA:356,14
DA:357,14
DA:358,14
DA:359,14
DA:360,14
DA:361,14
DA:362,14
DA:364,2
DA:367,2
DA:368,2
DA:369,2
DA:370,2
DA:371,2
DA:372,2
DA:376,2
DA:378,2
DA:379,2
DA:381,2
DA:382,2
DA:384,0
DA:385,0
DA:387,2
DA:389,3
DA:390,3
DA:391,3
DA:392,3
DA:393,3
DA:394,3
DA:395,3
DA:396,3
DA:397,3
DA:398,3
DA:399,3
DA:403,3
DA:404,3
DA:405,3
DA:406,3
DA:409,4
DA:421,3
DA:422,1
DA:423,0
DA:425,29
DA:426,11
DA:427,0
DA:432,15
DA:433,2
DA:434,3
DA:435,3
DA:441,13
DA:442,13
DA:443,13
DA:444,13
DA:445,0
DA:447,13
DA:449,28
DA:450,26
DA:576,5
DA:584,43
DA:585,43
DA:588,2
DA:589,2
DA:602,1
DA:603,1
DA:604,0
DA:605,0
DA:608,3
DA:609,2
DA:610,2
DA:611,1
DA:612,1
DA:614,1
DA:620,130
DA:621,130
DA:622,130
DA:623,130
DA:624,130
DA:625,130
DA:628,130
DA:629,130
DA:632,14
DA:633,14
DA:634,14
DA:635,14
DA:636,14
DA:637,13
DA:640,14
DA:641,14
DA:644,130
DA:645,130
DA:646,130
DA:649,14
DA:650,14
DA:651,14
DA:666,1
DA:667,1
DA:668,1
DA:669,1
DA:670,1
DA:671,1
DA:666,2
DA:667,2
DA:668,2
DA:669,2
DA:670,2
DA:671,2
DA:674,2
DA:676,1
DA:706,91
DA:707,91
DA:708,91
DA:709,91
DA:710,0
DA:712,91
DA:713,91
DA:714,91
DA:718,7
DA:719,7
DA:721,7
DA:722,7
DA:723,7
DA:745,1
DA:746,1
DA:747,11
DA:748,10
DA:749,5
DA:751,5
DA:753,1
DA:756,115
DA:758,115
DA:764,28
DA:766,28
DA:772,17
DA:773,17
DA:774,0
DA:775,0
DA:777,17
DA:780,2
DA:781,2
DA:783,2
DA:784,0
DA:786,2
DA:787,2
DA:792,2
DA:794,1
DA:795,1
DA:796,1
DA:797,1
DA:856,147
DA:859,147
DA:860,147
DA:861,135
DA:886,12
DA:887,12
DA:890,28
DA:892,41
DA:893,41
DA:894,28
DA:895,41
DA:897,28
DA:898,28
DA:901,41
DA:902,41
DA:903,28
DA:904,41
DA:925,26
DA:926,26
DA:927,26
DA:928,26
DA:929,26
DA:930,26
DA:931,13
DA:933,0
DA:934,0
DA:935,0
DA:936,0
DA:939,26
DA:940,26
DA:941,26
DA:942,26
DA:944,26
DA:945,26
DA:946,26
DA:948,26
DA:949,26
DA:950,0
DA:952,26
DA:953,53
DA:954,27
DA:956,26
DA:957,0
DA:964,26
DA:974,26
DA:976,26
DA:981,26
DA:982,26
DA:984,26
DA:996,26
DA:997,163
DA:998,137
DA:999,137
DA:1000,137
DA:1001,137
DA:1029,147
DA:1031,277
DA:1035,277
DA:1041,277
DA:1043,56
DA:1045,56
DA:1049,98
DA:1050,98
DA:1051,98
DA:1053,98
DA:1055,98
DA:1056,98
DA:1057,98
DA:1061,56
DA:1063,56
DA:1064,56
DA:1067,98
DA:1068,0
DA:1070,98
DA:1071,98
DA:1080,98
DA:1082,98
DA:1083,98
DA:1084,98
DA:1085,98
DA:1086,0
DA:1087,0
DA:1089,98
DA:1092,0
DA:1093,0
DA:1094,0
DA:1098,63
DA:1099,63
DA:1100,63
DA:1101,63
DA:1102,63
DA:1104,0
DA:1106,0
DA:1107,0
DA:1108,0
DA:1115,91
DA:1116,91
DA:1117,91
DA:1118,91
DA:1119,0
DA:1121,91
DA:1122,91
DA:1123,91
DA:1124,91
DA:1125,91
DA:1127,0
DA:1128,0
DA:1130,0
DA:1131,0
DA:1132,0
DA:1133,0
DA:1134,0
DA:1137,0
DA:1138,0
DA:1139,0
DA:1140,0
DA:1141,0
DA:1148,50
DA:1149,50
DA:1150,50
DA:1151,50
DA:1152,50
DA:1153,8
DA:1155,42
DA:1156,42
DA:1157,42
DA:1158,39
DA:1159,39
DA:1161,3
DA:1162,3
DA:1164,0
DA:1165,0
DA:1166,0
DA:1167,0
DA:1168,0
DA:1171,0
DA:1172,0
DA:1173,0
DA:1174,0
DA:1175,0
DA:1254,0
DA:1255,0
DA:1256,0
DA:1257,0
DA:1259,0
DA:1260,0
DA:1262,0
DA:1263,0
DA:1265,0
DA:1275,144
DA:1276,144
DA:1277,144
DA:1278,144
DA:1279,144
DA:1284,143
DA:1287,1
DA:1288,1
DA:1289,1
DA:1290,1
DA:1293,0
DA:1294,0
DA:1295,0
DA:1296,0
DA:1297,0
DA:1299,0
DA:1301,0
DA:1302,0
DA:1303,0
DA:1304,0
DA:1305,0
DA:1308,0
DA:1309,0
DA:1310,0
DA:1311,0
DA:1312,0
DA:1316,0
DA:1317,0
DA:1318,0
DA:1321,140
DA:1322,140
DA:1323,140
DA:1324,140
DA:1329,140
DA:1333,0
DA:1334,0
DA:1335,0
DA:1336,0
DA:1337,0
DA:1339,0
DA:1357,0
DA:1363,0
DA:1364,0
DA:1365,0
DA:1376,0
DA:1377,0
DA:1378,0
DA:1379,0
DA:1380,0
DA:1381,0
DA:1385,0
DA:1387,0
DA:1400,0
DA:1401,0
DA:1402,0
DA:1404,0
DA:1405,0
DA:1406,0
DA:1411,0
DA:1412,0
DA:1413,0
DA:1414,0
DA:1416,0
DA:1417,0
DA:1418,0
DA:1419,0
DA:1420,0
DA:1424,0
DA:1425,0
DA:1426,0
DA:1427,0
DA:1429,0
DA:1430,0
DA:1431,0
DA:1432,0
DA:1433,0
DA:1437,0
DA:1439,0
DA:1440,0
DA:1441,0
DA:1584,488
DA:1588,488
end_of_record
SF:/mnt/d/emhash/include/emhash/hash_set2.hpp
FN:109,_ZN7emhash27HashSetIiSt4hashIiESt8equal_toIiESaIiEE8iteratorC2EPS6_j
FNDA:148,_ZN7emhash27HashSetIiSt4hashIiESt8equal_toIiESaIiEE8iteratorC2EPS6_j
FN:111,_ZN7emhash27HashSetIiSt4hashIiESt8equal_toIiESaIiEE8iteratorppEv
FNDA:11,_ZN7emhash27HashSetIiSt4hashIiESt8equal_toIiESaIiEE8iteratorppEv
FN:122,_ZNK7emhash27HashSetIiSt4hashIiESt8equal_toIiESaIiEE8iteratordeEv
FNDA:10,_ZNK7emhash27HashSetIiSt4hashIiESt8equal_toIiESaIiEE8iteratordeEv
FN:126,_ZNK7emhash27HashSetIiSt4hashIiESt8equal_toIiESaIiEE8iteratoreqERKS7_
FNDA:1,_ZNK7emhash27HashSetIiSt4hashIiESt8equal_toIiESaIiEE8iteratoreqERKS7_
FN:128,_ZNK7emhash27HashSetIiSt4hashIiESt8equal_toIiESaIiEE8iteratorneERKS7_
FNDA:12,_ZNK7emhash27HashSetIiSt4hashIiESt8equal_toIiESaIiEE8iteratorneERKS7_
FN:133,_ZN7emhash27HashSetIiSt4hashIiESt8equal_toIiESaIiEE8iterator17goto_next_elementEv
FNDA:11,_ZN7emhash27HashSetIiSt4hashIiESt8equal_toIiESaIiEE8iterator17goto_next_elementEv
FN:153,_ZN7emhash27HashSetIiSt4hashIiESt8equal_toIiESaIiEE14const_iteratorC2ENS6_8iteratorE
FNDA:1,_ZN7emhash27HashSetIiSt4hashIiESt8equal_toIiESaIiEE14const_iteratorC2ENS6_8iteratorE
FN:154,_ZN7emhash27HashSetIiSt4hashIiESt8equal_toIiESaIiEE14const_iteratorC2EPKS6_j
FNDA:12,_ZN7emhash27HashSetIiSt4hashIiESt8equal_toIiESaIiEE14const_iteratorC2EPKS6_j
FN:156,_ZN7emhash27HashSetIiSt4hashIiESt8equal_toIiESaIiEE14const_iteratorppEv
FNDA:10,_ZN7emhash27HashSetIiSt4hashIiESt8equal_toIiESaIiEE14const_iteratorppEv
FN:173,_ZNK7emhash27HashSetIiSt4hashIiESt8equal_toIiESaIiEE14const_iteratorneERKS7_
FNDA:11,_ZNK7emhash27HashSetIiSt4hashIiESt8equal_toIiESaIiEE14const_iteratorneERKS7_
FN:178,_ZN7emhash27HashSetIiSt4hashIiESt8equal_toIiESaIiEE14const_iterator17goto_next_elementEv
FNDA:10,_ZN7emhash27HashSetIiSt4hashIiESt8equal_toIiESaIiEE14const_iterator17goto_next_elementEv
FN:191,_ZN7emhash27HashSetIiSt4hashIiESt8equal_toIiESaIiEE4initEjf
FNDA:10,_ZN7emhash27HashSetIiSt4hashIiESt8equal_toIiESaIiEE4initEjf
FN:199,_ZN7emhash27HashSetIiSt4hashIiESt8equal_toIiESaIiEEC2Ejf
FNDA:9,_ZN7emhash27HashSetIiSt4hashIiESt8equal_toIiESaIiEEC2Ejf
FN:205,_ZN7emhash27HashSetIiSt4hashIiESt8equal_toIiESaIiEEC2ERKS6_
FNDA:1,_ZN7emhash27HashSetIiSt4hashIiESt8equal_toIiESaIiEEC2ERKS6_
FN:215,_ZN7emhash27HashSetIiSt4hashIiESt8equal_toIiESaIiEEC2EOS6_
FNDA:1,_ZN7emhash27HashSetIiSt4hashIiESt8equal_toIiESaIiEEC2EOS6_
FN:247,_ZN7emhash27HashSetIiSt4hashIiESt8equal_toIiESaIiEEaSERKS6_
FNDA:1,_ZN7emhash27HashSetIiSt4hashIiESt8equal_toIiESaIiEEaSERKS6_
FN:266,_ZN7emhash27HashSetIiSt4hashIiESt8equal_toIiESaIiEEaSEOS6_
FNDA:1,_ZN7emhash27HashSetIiSt4hashIiESt8equal_toIiESaIiEEaSEOS6_
FN:274,_ZN7emhash27HashSetIiSt4hashIiESt8equal_toIiESaIiEED2Ev
FNDA:11,_ZN7emhash27HashSetIiSt4hashIiESt8equal_toIiESaIiEED2Ev
FN:281,_ZN7emhash27HashSetIiSt4hashIiESt8equal_toIiESaIiEE5cloneERKS6_
FNDA:2,_ZN7emhash27HashSetIiSt4hashIiESt8equal_toIiESaIiEE5cloneERKS6_
FN:302,_ZN7emhash27HashSetIiSt4hashIiESt8equal_toIiESaIiEE4swapERS6_
FNDA:3,_ZN7emhash27HashSetIiSt4hashIiESt8equal_toIiESaIiEE4swapERS6_
FN:316,_ZN7emhash27HashSetIiSt4hashIiESt8equal_toIiESaIiEE5beginEv
FNDA:1,_ZN7emhash27HashSetIiSt4hashIiESt8equal_toIiESaIiEE5beginEv
FN:324,_ZNK7emhash27HashSetIiSt4hashIiESt8equal_toIiESaIiEE6cbeginEv
FNDA:1,_ZNK7emhash27HashSetIiSt4hashIiESt8equal_toIiESaIiEE6cbeginEv
FN:334,_ZN7emhash27HashSetIiSt4hashIiESt8equal_toIiESaIiEE3endEv
FNDA:13,_ZN7emhash27HashSetIiSt4hashIiESt8equal_toIiESaIiEE3endEv
FN:336,_ZNK7emhash27HashSetIiSt4hashIiESt8equal_toIiESaIiEE4cendEv
FNDA:11,_ZNK7emhash27HashSetIiSt4hashIiESt8equal_toIiESaIiEE4cendEv
FN:340,_ZNK7emhash27HashSetIiSt4hashIiESt8equal_toIiESaIiEE4sizeEv
FNDA:11,_ZNK7emhash27HashSetIiSt4hashIiESt8equal_toIiESaIiEE4sizeEv
FN:342,_ZNK7emhash27HashSetIiSt4hashIiESt8equal_toIiESaIiEE5emptyEv
FNDA:1,_ZNK7emhash27HashSetIiSt4hashIiESt8equal_toIiESaIiEE5emptyEv
FN:345,_ZNK7emhash27HashSetIiSt4hashIiESt8equal_toIiESaIiEE12bucket_countEv
FNDA:2,_ZNK7emhash27HashSetIiSt4hashIiESt8equal_toIiESaIiEE12bucket_countEv
FN:358,_ZN7emhash27HashSetIiSt4hashIiESt8equal_toIiESaIiEE15max_load_factorEf
FNDA:10,_ZN7emhash27HashSetIiSt4hashIiESt8equal_toIiESaIiEE15max_load_factorEf
FN:363,_ZNK7emhash27HashSetIiSt4hashIiESt8equal_toIiESaIiEE8max_sizeEv
FNDA:17,_ZNK7emhash27HashSetIiSt4hashIiESt8equal_toIiESaIiEE8max_sizeEv
FN:578,_ZN7emhash27HashSetIiSt4hashIiESt8equal_toIiESaIiEE4findERKi
FNDA:3,_ZN7emhash27HashSetIiSt4hashIiESt8equal_toIiESaIiEE4findERKi
FN:582,_ZNK7emhash27HashSetIiSt4hashIiESt8equal_toIiESaIiEE8containsERKi
FNDA:30,_ZNK7emhash27HashSetIiSt4hashIiESt8equal_toIiESaIiEE8containsERKi
FN:584,_ZNK7emhash27HashSetIiSt4hashIiESt8equal_toIiESaIiEE5countERKi
FNDA:2,_ZNK7emhash27HashSetIiSt4hashIiESt8equal_toIiESaIiEE5countERKi
FN:589,_ZN7emhash27HashSetIiSt4hashIiESt8equal_toIiESaIiEE6insertERKi
FNDA:120,_ZN7emhash27HashSetIiSt4hashIiESt8equal_toIiESaIiEE6insertERKi
FN:600,_ZN7emhash27HashSetIiSt4hashIiESt8equal_toIiESaIiEE6insertEOi
FNDA:10,_ZN7emhash27HashSetIiSt4hashIiESt8equal_toIiESaIiEE6insertEOi
FN:626,_ZN7emhash27HashSetIiSt4hashIiESt8equal_toIiESaIiEE13insert_uniqueEOi
FNDA:2,_ZN7emhash27HashSetIiSt4hashIiESt8equal_toIiESaIiEE13insert_uniqueEOi
FN:655,_ZN7emhash27HashSetIiSt4hashIiESt8equal_toIiESaIiEE12clear_bucketEj
FNDA:92,_ZN7emhash27HashSetIiSt4hashIiESt8equal_toIiESaIiEE12clear_bucketEj
FN:710,_ZN7emhash27HashSetIiSt4hashIiESt8equal_toIiESaIiEE5eraseERKi
FNDA:91,_ZN7emhash27HashSetIiSt4hashIiESt8equal_toIiESaIiEE5eraseERKi
FN:719,_ZN7emhash27HashSetIiSt4hashIiESt8equal_toIiESaIiEE5eraseENS6_14const_iteratorE
FNDA:1,_ZN7emhash27HashSetIiSt4hashIiESt8equal_toIiESaIiEE5eraseENS6_14const_iteratorE
FN:732,_ZN7emhash27HashSetIiSt4hashIiESt8equal_toIiESaIiEE7clearkvEv
FNDA:1,_ZN7emhash27HashSetIiSt4hashIiESt8equal_toIiESaIiEE7clearkvEv
FN:743,_ZN7emhash27HashSetIiSt4hashIiESt8equal_toIiESaIiEE5clearEv
FNDA:1,_ZN7emhash27HashSetIiSt4hashIiESt8equal_toIiESaIiEE5clearEv
FN:753,_ZN7emhash27HashSetIiSt4hashIiESt8equal_toIiESaIiEE13shrink_to_fitEv
FNDA:1,_ZN7emhash27HashSetIiSt4hashIiESt8equal_toIiESaIiEE13shrink_to_fitEv
FN:756,_ZN7emhash27HashSetIiSt4hashIiESt8equal_toIiESaIiEE7reserveEm
FNDA:142,_ZN7emhash27HashSetIiSt4hashIiESt8equal_toIiESaIiEE7reserveEm
FN:767,_ZN7emhash27HashSetIiSt4hashIiESt8equal_toIiESaIiEE12alloc_bucketEj
FNDA:19,_ZN7emhash27HashSetIiSt4hashIiESt8equal_toIiESaIiEE12alloc_bucketEj
FN:769,_ZN7emhash27HashSetIiSt4hashIiESt8equal_toIiESaIiEE14dealloc_bucketEPSt4pairIijEj
FNDA:29,_ZN7emhash27HashSetIiSt4hashIiESt8equal_toIiESaIiEE14dealloc_bucketEPSt4pairIijEj
FN:784,_ZN7emhash27HashSetIiSt4hashIiESt8equal_toIiESaIiEE6rehashEm
FNDA:17,_ZN7emhash27HashSetIiSt4hashIiESt8equal_toIiESaIiEE6rehashEm
FN:862,_ZN7emhash27HashSetIiSt4hashIiESt8equal_toIiESaIiEE17check_expand_needEv
FNDA:132,_ZN7emhash27HashSetIiSt4hashIiESt8equal_toIiESaIiEE17check_expand_needEv
FN:864,_ZN7emhash27HashSetIiSt4hashIiESt8equal_toIiESaIiEE9erase_keyERKi
FNDA:91,_ZN7emhash27HashSetIiSt4hashIiESt8equal_toIiESaIiEE9erase_keyERKi
FN:905,_ZN7emhash27HashSetIiSt4hashIiESt8equal_toIiESaIiEE12erase_bucketEj
FNDA:1,_ZN7emhash27HashSetIiSt4hashIiESt8equal_toIiESaIiEE12erase_bucketEj
FN:931,_ZNK7emhash27HashSetIiSt4hashIiESt8equal_toIiESaIiEE18find_filled_bucketERKi
FNDA:35,_ZNK7emhash27HashSetIiSt4hashIiESt8equal_toIiESaIiEE18find_filled_bucketERKi
FN:960,_ZN7emhash27HashSetIiSt4hashIiESt8equal_toIiESaIiEE14kickout_bucketEjj
FNDA:0,_ZN7emhash27HashSetIiSt4hashIiESt8equal_toIiESaIiEE14kickout_bucketEjj
FN:987,_ZN7emhash27HashSetIiSt4hashIiESt8equal_toIiESaIiEE16find_or_allocateERKi
FNDA:130,_ZN7emhash27HashSetIiSt4hashIiESt8equal_toIiESaIiEE16find_or_allocateERKi
FN:1023,_ZN7emhash27HashSetIiSt4hashIiESt8equal_toIiESaIiEE18find_unique_bucketERKi
FNDA:144,_ZN7emhash27HashSetIiSt4hashIiESt8equal_toIiESaIiEE18find_unique_bucketERKi
FN:1041,_ZN7emhash27HashSetIiSt4hashIiESt8equal_toIiESaIiEE17find_empty_bucketEj
FNDA:0,_ZN7emhash27HashSetIiSt4hashIiESt8equal_toIiESaIiEE17find_empty_bucketEj
FN:1077,_ZNK7emhash27HashSetIiSt4hashIiESt8equal_toIiESaIiEE16find_last_bucketEj
FNDA:0,_ZNK7emhash27HashSetIiSt4hashIiESt8equal_toIiESaIiEE16find_last_bucketEj
FN:1090,_ZNK7emhash27HashSetIiSt4hashIiESt8equal_toIiESaIiEE16find_prev_bucketEjj
FNDA:0,_ZNK7emhash27HashSetIiSt4hashIiESt8equal_toIiESaIiEE16find_prev_bucketEjj
FN:1135,_ZNK7emhash27HashSetIiSt4hashIiESt8equal_toIiESaIiEE11hash_bucketIiLj0EEEjT_
FNDA:401,_ZNK7emhash27HashSetIiSt4hashIiESt8equal_toIiESaIiEE11hash_bucketIiLj0EEEjT_
DA:109,148
DA:111,11
DA:112,11
DA:113,11
DA:122,10
DA:126,1
DA:128,12
DA:133,18
DA:135,18
DA:136,18
DA:137,11
DA:153,1
DA:154,12
DA:156,10
DA:157,10
DA:158,10
DA:173,11
DA:178,16
DA:180,16
DA:181,16
DA:182,10
DA:191,10
DA:192,10
DA:193,10
DA:195,10
DA:196,10
DA:197,10
DA:199,9
DA:205,1
DA:206,1
DA:207,1
DA:208,1
DA:215,1
DA:220,1
DA:222,1
DA:223,1
DA:247,1
DA:248,1
DA:249,0
DA:257,1
DA:258,1
DA:259,1
DA:262,1
DA:263,1
DA:266,1
DA:267,1
DA:268,1
DA:269,1
DA:271,1
DA:274,11
DA:278,11
DA:279,11
DA:281,2
DA:283,2
DA:284,2
DA:285,2
DA:286,2
DA:287,2
DA:290,2
DA:299,2
DA:300,2
DA:302,3
DA:303,3
DA:304,3
DA:305,3
DA:306,3
DA:307,3
DA:308,3
DA:309,3
DA:310,3
DA:311,3
DA:312,3
DA:316,1
DA:317,1
DA:318,1
DA:319,0
DA:321,1
DA:324,1
DA:325,1
DA:326,1
DA:327,0
DA:329,1
DA:334,13
DA:336,11
DA:340,11
DA:342,1
DA:345,2
DA:358,10
DA:359,10
DA:360,10
DA:361,10
DA:363,17
DA:578,3
DA:582,30
DA:584,2
DA:589,120
DA:590,120
DA:591,120
DA:592,120
DA:593,120
DA:594,120
DA:596,0
DA:600,10
DA:601,10
DA:602,10
DA:603,10
DA:604,9
DA:605,9
DA:607,1
DA:626,2
DA:627,2
DA:628,2
DA:629,2
DA:630,2
DA:655,92
DA:656,92
DA:657,92
DA:694,92
DA:710,91
DA:711,91
DA:712,91
DA:713,0
DA:715,91
DA:716,91
DA:719,1
DA:720,1
DA:721,1
DA:722,1
DA:723,0
DA:727,1
DA:732,1
DA:733,1
DA:734,0
DA:735,0
DA:736,0
DA:737,0
DA:740,1
DA:743,1
DA:744,1
DA:745,0
DA:747,1
DA:749,1
DA:750,1
DA:751,1
DA:753,1
DA:756,142
DA:757,142
DA:758,142
DA:759,126
DA:760,16
DA:761,0
DA:763,16
DA:764,16
DA:767,19
DA:769,29
DA:770,29
DA:771,19
DA:772,29
DA:784,17
DA:785,17
DA:786,0
DA:788,17
DA:789,30
DA:790,13
DA:792,17
DA:793,0
DA:795,17
DA:796,17
DA:797,0
DA:799,17
DA:805,17
DA:806,17
DA:807,17
DA:808,17
DA:810,17
DA:811,17
DA:812,17
DA:813,17
DA:816,17
DA:821,17
DA:824,249
DA:825,232
DA:826,232
DA:827,90
DA:829,142
DA:830,142
DA:856,17
DA:857,17
DA:862,132
DA:864,91
DA:865,91
DA:866,91
DA:867,91
DA:868,0
DA:870,91
DA:871,91
DA:872,91
DA:873,0
DA:874,0
DA:876,0
DA:882,0
DA:883,0
DA:887,0
DA:888,0
DA:889,0
DA:890,0
DA:891,0
DA:892,0
DA:895,0
DA:896,0
DA:897,0
DA:898,0
DA:901,0
DA:905,1
DA:906,1
DA:907,1
DA:908,1
DA:909,1
DA:910,0
DA:912,0
DA:915,0
DA:920,1
DA:921,1
DA:924,0
DA:925,0
DA:926,0
DA:927,0
DA:931,35
DA:932,35
DA:933,35
DA:934,35
DA:935,35
DA:936,2
DA:937,33
DA:938,30
DA:939,3
DA:940,3
DA:943,0
DA:944,0
DA:945,0
DA:947,0
DA:948,0
DA:949,0
DA:950,0
DA:953,0
DA:960,0
DA:961,0
DA:962,0
DA:963,0
DA:964,0
DA:969,0
DA:970,0
DA:971,0
DA:976,0
DA:977,0
DA:987,130
DA:988,130
DA:989,130
DA:990,130
DA:991,130
DA:992,130
DA:995,0
DA:996,0
DA:997,0
DA:998,0
DA:999,0
DA:1002,0
DA:1003,0
DA:1008,0
DA:1012,0
DA:1013,0
DA:1014,0
DA:1015,0
DA:1019,0
DA:1020,0
DA:1023,144
DA:1024,144
DA:1025,144
DA:1026,144
DA:1027,144
DA:1030,0
DA:1031,0
DA:1032,0
DA:1033,0
DA:1034,0
DA:1037,0
DA:1041,0
DA:1042,0
DA:1043,0
DA:1044,0
DA:1046,0
DA:1048,0
DA:1050,0
DA:1051,0
DA:1052,0
DA:1053,0
DA:1056,0
DA:1057,0
DA:1058,0
DA:1060,0
DA:1065,0
DA:1066,0
DA:1067,0
DA:1069,0
DA:1070,0
DA:1071,0
DA:1077,0
DA:1078,0
DA:1079,0
DA:1080,0
DA:1082,0
DA:1083,0
DA:1084,0
DA:1085,0
DA:1086,0
DA:1090,0
DA:1091,0
DA:1092,0
DA:1093,0
DA:1095,0
DA:1096,0
DA:1097,0
DA:1098,0
DA:1099,0
DA:1135,401
DA:1143,401
end_of_record
SF:/mnt/d/emhash/include/emilib/emihset2.hpp
FN:96,_ZN7emilib2L3CTZEm
FNDA:94,_ZN7emilib2L3CTZEm
FN:135,_ZN7emilib27HashSetIiSt4hashIiESt8equal_toIiEE8iteratorC2EPS5_j
FNDA:42,_ZN7emilib27HashSetIiSt4hashIiESt8equal_toIiEE8iteratorC2EPS5_j
FN:141,_ZN7emilib27HashSetIiSt4hashIiESt8equal_toIiEE8iteratorppEv
FNDA:11,_ZN7emilib27HashSetIiSt4hashIiESt8equal_toIiEE8iteratorppEv
FN:152,_ZNK7emilib27HashSetIiSt4hashIiESt8equal_toIiEE8iteratordeEv
FNDA:10,_ZNK7emilib27HashSetIiSt4hashIiESt8equal_toIiEE8iteratordeEv
FN:158,_ZNK7emilib27HashSetIiSt4hashIiESt8equal_toIiEE8iteratorneERKS6_
FNDA:12,_ZNK7emilib27HashSetIiSt4hashIiESt8equal_toIiEE8iteratorneERKS6_
FN:161,_ZN7emilib27HashSetIiSt4hashIiESt8equal_toIiEE8iterator17goto_next_elementEv
FNDA:11,_ZN7emilib27HashSetIiSt4hashIiESt8equal_toIiEE8iterator17goto_next_elementEv
FN:177,_ZN7emilib27HashSetIiSt4hashIiESt8equal_toIiEE14const_iteratorC2EPKS5_j
FNDA:12,_ZN7emilib27HashSetIiSt4hashIiESt8equal_toIiEE14const_iteratorC2EPKS5_j
FN:179,_ZNK7emilib27HashSetIiSt4hashIiESt8equal_toIiEE14const_iterator6bucketEv
FNDA:0,_ZNK7emilib27HashSetIiSt4hashIiESt8equal_toIiEE14const_iterator6bucketEv
FN:183,_ZN7emilib27HashSetIiSt4hashIiESt8equal_toIiEE14const_iteratorppEv
FNDA:10,_ZN7emilib27HashSetIiSt4hashIiESt8equal_toIiEE14const_iteratorppEv
FN:194,_ZNK7emilib27HashSetIiSt4hashIiESt8equal_toIiEE14const_iteratordeEv
FNDA:0,_ZNK7emilib27HashSetIiSt4hashIiESt8equal_toIiEE14const_iteratordeEv
FN:203,_ZNK7emilib27HashSetIiSt4hashIiESt8equal_toIiEE14const_iteratorneERKS6_
FNDA:11,_ZNK7emilib27HashSetIiSt4hashIiESt8equal_toIiEE14const_iteratorneERKS6_
FN:206,_ZN7emilib27HashSetIiSt4hashIiESt8equal_toIiEE14const_iterator17goto_next_elementEv
FNDA:10,_ZN7emilib27HashSetIiSt4hashIiESt8equal_toIiEE14const_iterator17goto_next_elementEv
FN:219,_ZN7emilib27HashSetIiSt4hashIiESt8equal_toIiEEC2ERKS5_
FNDA:1,_ZN7emilib27HashSetIiSt4hashIiESt8equal_toIiEEC2ERKS5_
FN:221,_ZN7emilib27HashSetIiSt4hashIiESt8equal_toIiEEC2EOS5_
FNDA:1,_ZN7emilib27HashSetIiSt4hashIiESt8equal_toIiEEC2EOS5_
FN:233,_ZN7emilib27HashSetIiSt4hashIiESt8equal_toIiEEaSERKS5_
FNDA:1,_ZN7emilib27HashSetIiSt4hashIiESt8equal_toIiEEaSERKS5_
FN:239,_ZN7emilib27HashSetIiSt4hashIiESt8equal_toIiEEaSEOS5_
FNDA:1,_ZN7emilib27HashSetIiSt4hashIiESt8equal_toIiEEaSEOS5_
FN:247,_ZN7emilib27HashSetIiSt4hashIiESt8equal_toIiEED2Ev
FNDA:9,_ZN7emilib27HashSetIiSt4hashIiESt8equal_toIiEED2Ev
FN:255,_ZN7emilib27HashSetIiSt4hashIiESt8equal_toIiEE21is_trivially_copyableEv
FNDA:2,_ZN7emilib27HashSetIiSt4hashIiESt8equal_toIiEE21is_trivially_copyableEv
FN:263,_ZN7emilib27HashSetIiSt4hashIiESt8equal_toIiEE5cloneERKS5_
FNDA:2,_ZN7emilib27HashSetIiSt4hashIiESt8equal_toIiEE5cloneERKS5_
FN:290,_ZN7emilib27HashSetIiSt4hashIiESt8equal_toIiEE4swapERS5_
FNDA:3,_ZN7emilib27HashSetIiSt4hashIiESt8equal_toIiEE4swapERS5_
FN:303,_ZN7emilib27HashSetIiSt4hashIiESt8equal_toIiEE5beginEv
FNDA:1,_ZN7emilib27HashSetIiSt4hashIiESt8equal_toIiEE5beginEv
FN:305,_ZNK7emilib27HashSetIiSt4hashIiESt8equal_toIiEE6cbeginEv
FNDA:1,_ZNK7emilib27HashSetIiSt4hashIiESt8equal_toIiEE6cbeginEv
FN:309,_ZN7emilib27HashSetIiSt4hashIiESt8equal_toIiEE3endEv
FNDA:12,_ZN7emilib27HashSetIiSt4hashIiESt8equal_toIiEE3endEv
FN:311,_ZNK7emilib27HashSetIiSt4hashIiESt8equal_toIiEE4cendEv
FNDA:11,_ZNK7emilib27HashSetIiSt4hashIiESt8equal_toIiEE4cendEv
FN:315,_ZNK7emilib27HashSetIiSt4hashIiESt8equal_toIiEE4sizeEv
FNDA:10,_ZNK7emilib27HashSetIiSt4hashIiESt8equal_toIiEE4sizeEv
FN:317,_ZNK7emilib27HashSetIiSt4hashIiESt8equal_toIiEE5emptyEv
FNDA:1,_ZNK7emilib27HashSetIiSt4hashIiESt8equal_toIiEE5emptyEv
FN:327,_ZNK7emilib27HashSetIiSt4hashIiESt8equal_toIiEE8max_sizeEv
FNDA:11,_ZNK7emilib27HashSetIiSt4hashIiESt8equal_toIiEE8max_sizeEv
FN:332,_ZN7emilib27HashSetIiSt4hashIiESt8equal_toIiEE4findIiEENS5_8iteratorERKT_
FNDA:2,_ZN7emilib27HashSetIiSt4hashIiESt8equal_toIiEE4findIiEENS5_8iteratorERKT_
FN:338,_ZNK7emilib27HashSetIiSt4hashIiESt8equal_toIiEE8containsIiEEbRKT_
FNDA:16,_ZNK7emilib27HashSetIiSt4hashIiESt8equal_toIiEE8containsIiEEbRKT_
FN:340,_ZNK7emilib27HashSetIiSt4hashIiESt8equal_toIiEE5countIiEEjRKT_
FNDA:1,_ZNK7emilib27HashSetIiSt4hashIiESt8equal_toIiEE5countIiEEjRKT_
FN:358,_ZN7emilib27HashSetIiSt4hashIiESt8equal_toIiEE6insertERKi
FNDA:20,_ZN7emilib27HashSetIiSt4hashIiESt8equal_toIiEE6insertERKi
FN:374,_ZN7emilib27HashSetIiSt4hashIiESt8equal_toIiEE6insertEOi
FNDA:7,_ZN7emilib27HashSetIiSt4hashIiESt8equal_toIiEE6insertEOi
FN:453,_ZN7emilib27HashSetIiSt4hashIiESt8equal_toIiEE5eraseERKi
FNDA:1,_ZN7emilib27HashSetIiSt4hashIiESt8equal_toIiEE5eraseERKi
FN:468,_ZN7emilib27HashSetIiSt4hashIiESt8equal_toIiEE5eraseENS5_8iteratorE
FNDA:1,_ZN7emilib27HashSetIiSt4hashIiESt8equal_toIiEE5eraseENS5_8iteratorE
FN:475,_ZN7emilib27HashSetIiSt4hashIiESt8equal_toIiEE6_eraseEj
FNDA:2,_ZN7emilib27HashSetIiSt4hashIiESt8equal_toIiEE6_eraseEj
FN:486,_ZN7emilib27HashSetIiSt4hashIiESt8equal_toIiEE18need_explicit_dtorEv
FNDA:14,_ZN7emilib27HashSetIiSt4hashIiESt8equal_toIiEE18need_explicit_dtorEv
FN:495,_ZN7emilib27HashSetIiSt4hashIiESt8equal_toIiEE5clearEv
FNDA:1,_ZN7emilib27HashSetIiSt4hashIiESt8equal_toIiEE5clearEv
FN:513,_ZN7emilib27HashSetIiSt4hashIiESt8equal_toIiEE7reserveEm
FNDA:29,_ZN7emilib27HashSetIiSt4hashIiESt8equal_toIiEE7reserveEm
FN:523,_ZN7emilib27HashSetIiSt4hashIiESt8equal_toIiEE6rehashEm
FNDA:11,_ZN7emilib27HashSetIiSt4hashIiESt8equal_toIiEE6rehashEm
FN:591,_ZN7emilib27HashSetIiSt4hashIiESt8equal_toIiEE17check_expand_needEv
FNDA:27,_ZN7emilib27HashSetIiSt4hashIiESt8equal_toIiEE17check_expand_needEv
FN:594,_ZNK7emilib27HashSetIiSt4hashIiESt8equal_toIiEE18find_filled_bucketIiEEjRKT_
FNDA:20,_ZNK7emilib27HashSetIiSt4hashIiESt8equal_toIiEE18find_filled_bucketIiEEjRKT_
FN:635,_ZN7emilib27HashSetIiSt4hashIiESt8equal_toIiEE16find_or_allocateIiEEjRKT_m
FNDA:27,_ZN7emilib27HashSetIiSt4hashIiESt8equal_toIiEE16find_or_allocateIiEEjRKT_m
FN:691,_ZN7emilib27HashSetIiSt4hashIiESt8equal_toIiEE15find_empty_slotEji
FNDA:24,_ZN7emilib27HashSetIiSt4hashIiESt8equal_toIiEE15find_empty_slotEji
FN:721,_ZNK7emilib27HashSetIiSt4hashIiESt8equal_toIiEE16find_filled_slotEj
FNDA:23,_ZNK7emilib27HashSetIiSt4hashIiESt8equal_toIiEE16find_filled_slotEj
DA:96,94
DA:101,94
DA:104,94
DA:135,42
DA:141,11
DA:142,11
DA:143,11
DA:152,10
DA:158,12
DA:161,11
DA:177,12
DA:179,0
DA:183,10
DA:184,10
DA:185,10
DA:194,0
DA:203,11
DA:206,10
DA:219,1
DA:221,1
DA:222,1
DA:223,1
DA:225,1
DA:233,1
DA:234,1
DA:235,1
DA:236,1
DA:239,1
DA:240,1
DA:241,1
DA:242,1
DA:244,1
DA:247,9
DA:248,9
DA:249,0
DA:251,9
DA:252,9
DA:253,9
DA:255,2
DA:257,2
DA:263,2
DA:264,2
DA:265,0
DA:266,0
DA:269,2
DA:270,0
DA:273,2
DA:274,2
DA:275,2
DA:278,2
DA:279,2
DA:281,0
DA:282,0
DA:285,2
DA:286,2
DA:287,2
DA:290,3
DA:291,3
DA:292,3
DA:293,3
DA:294,3
DA:295,3
DA:296,3
DA:297,3
DA:298,3
DA:299,3
DA:303,1
DA:305,1
DA:309,12
DA:311,11
DA:315,10
DA:317,1
DA:327,11
DA:332,2
DA:338,16
DA:340,1
DA:358,20
DA:359,20
DA:360,20
DA:361,20
DA:362,20
DA:364,20
DA:365,0
DA:367,20
DA:368,20
DA:369,20
DA:370,20
DA:374,7
DA:375,7
DA:377,7
DA:378,7
DA:380,7
DA:381,1
DA:383,6
DA:384,6
DA:385,6
DA:386,6
DA:453,1
DA:454,1
DA:455,1
DA:456,0
DA:458,1
DA:459,1
DA:468,1
DA:469,1
DA:470,1
DA:475,2
DA:476,2
DA:477,0
DA:478,2
DA:479,2
DA:480,0
DA:481,0
DA:483,2
DA:484,2
DA:486,14
DA:488,14
DA:495,1
DA:496,1
DA:497,0
DA:498,0
DA:499,0
DA:500,0
DA:502,0
DA:504,1
DA:505,0
DA:507,1
DA:508,1
DA:509,1
DA:513,29
DA:514,29
DA:515,29
DA:516,18
DA:518,11
DA:519,11
DA:523,11
DA:524,11
DA:525,11
DA:526,0
DA:528,11
DA:529,21
DA:530,10
DA:533,11
DA:534,0
DA:536,11
DA:537,11
DA:539,11
DA:540,11
DA:542,11
DA:544,11
DA:545,11
DA:546,11
DA:548,11
DA:549,11
DA:550,11
DA:551,11
DA:552,11
DA:554,11
DA:556,11
DA:558,11
DA:560,11
DA:562,11
DA:563,11
DA:565,35
DA:566,24
DA:567,24
DA:569,24
DA:570,24
DA:571,24
DA:573,24
DA:574,24
DA:575,24
DA:576,24
DA:586,11
DA:591,27
DA:594,20
DA:595,20
DA:596,20
DA:597,20
DA:598,20
DA:599,20
DA:601,0
DA:602,40
DA:603,20
DA:605,23
DA:606,20
DA:607,20
DA:608,0
DA:609,20
DA:610,17
DA:611,3
DA:615,6
DA:616,3
DA:617,0
DA:620,3
DA:621,3
DA:622,3
DA:623,3
DA:626,3
DA:627,3
DA:630,3
DA:635,27
DA:636,27
DA:637,27
DA:638,27
DA:639,27
DA:640,27
DA:641,27
DA:643,0
DA:644,54
DA:645,27
DA:648,27
DA:649,1
DA:650,1
DA:651,0
DA:652,1
DA:653,1
DA:654,0
DA:658,52
DA:659,26
DA:660,26
DA:661,26
DA:662,26
DA:663,5
DA:664,26
DA:668,0
DA:669,0
DA:670,0
DA:671,0
DA:675,0
DA:676,0
DA:677,0
DA:678,0
DA:681,0
DA:682,0
DA:685,0
DA:686,0
DA:688,0
DA:691,24
DA:692,24
DA:694,0
DA:699,24
DA:701,24
DA:703,24
DA:704,24
DA:705,24
DA:706,24
DA:707,4
DA:708,24
DA:709,24
DA:711,0
DA:712,0
DA:713,0
DA:714,0
DA:715,0
DA:721,23
DA:722,23
DA:723,0
DA:728,23
DA:729,23
DA:731,23
DA:732,23
DA:733,0
end_of_record
SF:/mnt/d/emhash/include/emhash/hash_set4.hpp
FN:66,_ZN7emhash4L3CTZEm
FNDA:21,_ZN7emhash4L3CTZEm
FN:138,_ZN7emhash47HashSetIiSt4hashIiESt8equal_toIiESaIiEE8iteratorC2EPKS6_jb
FNDA:1,_ZN7emhash47HashSetIiSt4hashIiESt8equal_toIiESaIiEE8iteratorC2EPKS6_jb
FN:139,_ZN7emhash47HashSetIiSt4hashIiESt8equal_toIiESaIiEE8iteratorC2EPKS6_j
FNDA:146,_ZN7emhash47HashSetIiSt4hashIiESt8equal_toIiESaIiEE8iteratorC2EPKS6_j
FN:144,_ZN7emhash47HashSetIiSt4hashIiESt8equal_toIiESaIiEE8iterator4initEv
FNDA:1,_ZN7emhash47HashSetIiSt4hashIiESt8equal_toIiESaIiEE8iterator4initEv
FN:155,_ZN7emhash47HashSetIiSt4hashIiESt8equal_toIiESaIiEE8iterator4nextEv
FNDA:1,_ZN7emhash47HashSetIiSt4hashIiESt8equal_toIiESaIiEE8iterator4nextEv
FN:161,_ZN7emhash47HashSetIiSt4hashIiESt8equal_toIiESaIiEE8iterator5eraseEj
FNDA:1,_ZN7emhash47HashSetIiSt4hashIiESt8equal_toIiESaIiEE8iterator5eraseEj
FN:166,_ZN7emhash47HashSetIiSt4hashIiESt8equal_toIiESaIiEE8iteratorppEv
FNDA:10,_ZN7emhash47HashSetIiSt4hashIiESt8equal_toIiESaIiEE8iteratorppEv
FN:179,_ZNK7emhash47HashSetIiSt4hashIiESt8equal_toIiESaIiEE8iteratordeEv
FNDA:10,_ZNK7emhash47HashSetIiSt4hashIiESt8equal_toIiESaIiEE8iteratordeEv
FN:183,_ZNK7emhash47HashSetIiSt4hashIiESt8equal_toIiESaIiEE8iteratoreqERKS7_
FNDA:1,_ZNK7emhash47HashSetIiSt4hashIiESt8equal_toIiESaIiEE8iteratoreqERKS7_
FN:185,_ZNK7emhash47HashSetIiSt4hashIiESt8equal_toIiESaIiEE8iteratorneERKS7_
FNDA:12,_ZNK7emhash47HashSetIiSt4hashIiESt8equal_toIiESaIiEE8iteratorneERKS7_
FN:190,_ZN7emhash47HashSetIiSt4hashIiESt8equal_toIiESaIiEE8iterator17goto_next_elementEv
FNDA:11,_ZN7emhash47HashSetIiSt4hashIiESt8equal_toIiESaIiEE8iterator17goto_next_elementEv
FN:220,_ZN7emhash47HashSetIiSt4hashIiESt8equal_toIiESaIiEE14const_iteratorC2EPKS6_jb
FNDA:1,_ZN7emhash47HashSetIiSt4hashIiESt8equal_toIiESaIiEE14const_iteratorC2EPKS6_jb
FN:221,_ZN7emhash47HashSetIiSt4hashIiESt8equal_toIiESaIiEE14const_iteratorC2EPKS6_j
FNDA:11,_ZN7emhash47HashSetIiSt4hashIiESt8equal_toIiESaIiEE14const_iteratorC2EPKS6_j
FN:226,_ZN7emhash47HashSetIiSt4hashIiESt8equal_toIiESaIiEE14const_iterator4initEv
FNDA:1,_ZN7emhash47HashSetIiSt4hashIiESt8equal_toIiESaIiEE14const_iterator4initEv
FN:237,_ZN7emhash47HashSetIiSt4hashIiESt8equal_toIiESaIiEE14const_iteratorppEv
FNDA:10,_ZN7emhash47HashSetIiSt4hashIiESt8equal_toIiESaIiEE14const_iteratorppEv
FN:254,_ZNK7emhash47HashSetIiSt4hashIiESt8equal_toIiESaIiEE14const_iteratorneERKS7_
FNDA:11,_ZNK7emhash47HashSetIiSt4hashIiESt8equal_toIiESaIiEE14const_iteratorneERKS7_
FN:259,_ZN7emhash47HashSetIiSt4hashIiESt8equal_toIiESaIiEE14const_iterator17goto_next_elementEv
FNDA:10,_ZN7emhash47HashSetIiSt4hashIiESt8equal_toIiESaIiEE14const_iterator17goto_next_elementEv
FN:283,_ZN7emhash47HashSetIiSt4hashIiESt8equal_toIiESaIiEE11alloc_countEj
FNDA:38,_ZN7emhash47HashSetIiSt4hashIiESt8equal_toIiESaIiEE11alloc_countEj
FN:289,_ZN7emhash47HashSetIiSt4hashIiESt8equal_toIiESaIiEE12alloc_bucketEj
FNDA:19,_ZN7emhash47HashSetIiSt4hashIiESt8equal_toIiESaIiEE12alloc_bucketEj
FN:291,_ZN7emhash47HashSetIiSt4hashIiESt8equal_toIiESaIiEE14dealloc_bucketEPSt4pairIijEj
FNDA:29,_ZN7emhash47HashSetIiSt4hashIiESt8equal_toIiESaIiEE14dealloc_bucketEPSt4pairIijEj
FN:298,_ZN7emhash47HashSetIiSt4hashIiESt8equal_toIiESaIiEE4initEjf
FNDA:10,_ZN7emhash47HashSetIiSt4hashIiESt8equal_toIiESaIiEE4initEjf
FN:308,_ZN7emhash47HashSetIiSt4hashIiESt8equal_toIiESaIiEEC2Ejf
FNDA:9,_ZN7emhash47HashSetIiSt4hashIiESt8equal_toIiESaIiEEC2Ejf
FN:316,_ZN7emhash47HashSetIiSt4hashIiESt8equal_toIiESaIiEEC2ERKS6_
FNDA:1,_ZN7emhash47HashSetIiSt4hashIiESt8equal_toIiESaIiEEC2ERKS6_
FN:326,_ZN7emhash47HashSetIiSt4hashIiESt8equal_toIiESaIiEEC2EOS6_
FNDA:1,_ZN7emhash47HashSetIiSt4hashIiESt8equal_toIiESaIiEEC2EOS6_
FN:353,_ZN7emhash47HashSetIiSt4hashIiESt8equal_toIiESaIiEEaSERKS6_
FNDA:1,_ZN7emhash47HashSetIiSt4hashIiESt8equal_toIiESaIiEEaSERKS6_
FN:375,_ZN7emhash47HashSetIiSt4hashIiESt8equal_toIiESaIiEEaSEOS6_
FNDA:1,_ZN7emhash47HashSetIiSt4hashIiESt8equal_toIiESaIiEEaSEOS6_
FN:383,_ZN7emhash47HashSetIiSt4hashIiESt8equal_toIiESaIiEED2Ev
FNDA:11,_ZN7emhash47HashSetIiSt4hashIiESt8equal_toIiESaIiEED2Ev
FN:390,_ZN7emhash47HashSetIiSt4hashIiESt8equal_toIiESaIiEE5cloneERKS6_
FNDA:2,_ZN7emhash47HashSetIiSt4hashIiESt8equal_toIiESaIiEE5cloneERKS6_
FN:418,_ZN7emhash47HashSetIiSt4hashIiESt8equal_toIiESaIiEE4swapERS6_
FNDA:3,_ZN7emhash47HashSetIiSt4hashIiESt8equal_toIiESaIiEE4swapERS6_
FN:433,_ZN7emhash47HashSetIiSt4hashIiESt8equal_toIiESaIiEE5beginEv
FNDA:1,_ZN7emhash47HashSetIiSt4hashIiESt8equal_toIiESaIiEE5beginEv
FN:444,_ZNK7emhash47HashSetIiSt4hashIiESt8equal_toIiESaIiEE6cbeginEv
FNDA:1,_ZNK7emhash47HashSetIiSt4hashIiESt8equal_toIiESaIiEE6cbeginEv
FN:457,_ZN7emhash47HashSetIiSt4hashIiESt8equal_toIiESaIiEE3endEv
FNDA:13,_ZN7emhash47HashSetIiSt4hashIiESt8equal_toIiESaIiEE3endEv
FN:459,_ZNK7emhash47HashSetIiSt4hashIiESt8equal_toIiESaIiEE4cendEv
FNDA:11,_ZNK7emhash47HashSetIiSt4hashIiESt8equal_toIiESaIiEE4cendEv
FN:463,_ZNK7emhash47HashSetIiSt4hashIiESt8equal_toIiESaIiEE4sizeEv
FNDA:11,_ZNK7emhash47HashSetIiSt4hashIiESt8equal_toIiESaIiEE4sizeEv
FN:465,_ZNK7emhash47HashSetIiSt4hashIiESt8equal_toIiESaIiEE5emptyEv
FNDA:3,_ZNK7emhash47HashSetIiSt4hashIiESt8equal_toIiESaIiEE5emptyEv
FN:468,_ZNK7emhash47HashSetIiSt4hashIiESt8equal_toIiESaIiEE12bucket_countEv
FNDA:4,_ZNK7emhash47HashSetIiSt4hashIiESt8equal_toIiESaIiEE12bucket_countEv
FN:479,_ZN7emhash47HashSetIiSt4hashIiESt8equal_toIiESaIiEE15max_load_factorEf
FNDA:10,_ZN7emhash47HashSetIiSt4hashIiESt8equal_toIiESaIiEE15max_load_factorEf
FN:484,_ZNK7emhash47HashSetIiSt4hashIiESt8equal_toIiESaIiEE8max_sizeEv
FNDA:17,_ZNK7emhash47HashSetIiSt4hashIiESt8equal_toIiESaIiEE8max_sizeEv
FN:623,_ZN7emhash47HashSetIiSt4hashIiESt8equal_toIiESaIiEE4findERKi
FNDA:3,_ZN7emhash47HashSetIiSt4hashIiESt8equal_toIiESaIiEE4findERKi
FN:627,_ZNK7emhash47HashSetIiSt4hashIiESt8equal_toIiESaIiEE8containsERKi
FNDA:30,_ZNK7emhash47HashSetIiSt4hashIiESt8equal_toIiESaIiEE8containsERKi
FN:629,_ZNK7emhash47HashSetIiSt4hashIiESt8equal_toIiESaIiEE5countERKi
FNDA:2,_ZNK7emhash47HashSetIiSt4hashIiESt8equal_toIiESaIiEE5countERKi
FN:634,_ZN7emhash47HashSetIiSt4hashIiESt8equal_toIiESaIiEE6insertERKi
FNDA:120,_ZN7emhash47HashSetIiSt4hashIiESt8equal_toIiESaIiEE6insertERKi
FN:645,_ZN7emhash47HashSetIiSt4hashIiESt8equal_toIiESaIiEE6insertEOi
FNDA:10,_ZN7emhash47HashSetIiSt4hashIiESt8equal_toIiESaIiEE6insertEOi
FN:697,_ZN7emhash47HashSetIiSt4hashIiESt8equal_toIiESaIiEE13insert_uniqueEOi
FNDA:2,_ZN7emhash47HashSetIiSt4hashIiESt8equal_toIiESaIiEE13insert_uniqueEOi
FN:742,_ZN7emhash47HashSetIiSt4hashIiESt8equal_toIiESaIiEE7new_keyIiEEvRKT_j
FNDA:120,_ZN7emhash47HashSetIiSt4hashIiESt8equal_toIiESaIiEE7new_keyIiEEvRKT_j
FN:753,_ZN7emhash47HashSetIiSt4hashIiESt8equal_toIiESaIiEE7new_keyIiEEvOT_j
FNDA:153,_ZN7emhash47HashSetIiSt4hashIiESt8equal_toIiESaIiEE7new_keyIiEEvOT_j
FN:764,_ZN7emhash47HashSetIiSt4hashIiESt8equal_toIiESaIiEE12clear_bucketEj
FNDA:92,_ZN7emhash47HashSetIiSt4hashIiESt8equal_toIiESaIiEE12clear_bucketEj
FN:775,_ZN7emhash47HashSetIiSt4hashIiESt8equal_toIiESaIiEE5eraseERKi
FNDA:91,_ZN7emhash47HashSetIiSt4hashIiESt8equal_toIiESaIiEE5eraseERKi
FN:789,_ZN7emhash47HashSetIiSt4hashIiESt8equal_toIiESaIiEE5eraseENS6_8iteratorE
FNDA:1,_ZN7emhash47HashSetIiSt4hashIiESt8equal_toIiESaIiEE5eraseENS6_8iteratorE
FN:804,_ZN7emhash47HashSetIiSt4hashIiESt8equal_toIiESaIiEE18need_explicit_dtorEv
FNDA:246,_ZN7emhash47HashSetIiSt4hashIiESt8equal_toIiESaIiEE18need_explicit_dtorEv
FN:812,_ZN7emhash47HashSetIiSt4hashIiESt8equal_toIiESaIiEE7clearkvEv
FNDA:0,_ZN7emhash47HashSetIiSt4hashIiESt8equal_toIiESaIiEE7clearkvEv
FN:820,_ZN7emhash47HashSetIiSt4hashIiESt8equal_toIiESaIiEE5clearEv
FNDA:1,_ZN7emhash47HashSetIiSt4hashIiESt8equal_toIiESaIiEE5clearEv
FN:831,_ZN7emhash47HashSetIiSt4hashIiESt8equal_toIiESaIiEE13shrink_to_fitEv
FNDA:1,_ZN7emhash47HashSetIiSt4hashIiESt8equal_toIiESaIiEE13shrink_to_fitEv
FN:834,_ZN7emhash47HashSetIiSt4hashIiESt8equal_toIiESaIiEE7reserveEm
FNDA:142,_ZN7emhash47HashSetIiSt4hashIiESt8equal_toIiESaIiEE7reserveEm
FN:844,_ZN7emhash47HashSetIiSt4hashIiESt8equal_toIiESaIiEE6rehashEm
FNDA:17,_ZN7emhash47HashSetIiSt4hashIiESt8equal_toIiESaIiEE6rehashEm
FN:921,_ZN7emhash47HashSetIiSt4hashIiESt8equal_toIiESaIiEE17check_expand_needEv
FNDA:132,_ZN7emhash47HashSetIiSt4hashIiESt8equal_toIiESaIiEE17check_expand_needEv
FN:923,_ZN7emhash47HashSetIiSt4hashIiESt8equal_toIiESaIiEE9erase_keyERKi
FNDA:91,_ZN7emhash47HashSetIiSt4hashIiESt8equal_toIiESaIiEE9erase_keyERKi
FN:960,_ZN7emhash47HashSetIiSt4hashIiESt8equal_toIiESaIiEE12erase_bucketEj
FNDA:1,_ZN7emhash47HashSetIiSt4hashIiESt8equal_toIiESaIiEE12erase_bucketEj
FN:981,_ZNK7emhash47HashSetIiSt4hashIiESt8equal_toIiESaIiEE18find_filled_bucketERKi
FNDA:35,_ZNK7emhash47HashSetIiSt4hashIiESt8equal_toIiESaIiEE18find_filled_bucketERKi
FN:1011,_ZN7emhash47HashSetIiSt4hashIiESt8equal_toIiESaIiEE14kickout_bucketEjj
FNDA:0,_ZN7emhash47HashSetIiSt4hashIiESt8equal_toIiESaIiEE14kickout_bucketEjj
FN:1035,_ZN7emhash47HashSetIiSt4hashIiESt8equal_toIiESaIiEE16find_or_allocateERKi
FNDA:130,_ZN7emhash47HashSetIiSt4hashIiESt8equal_toIiESaIiEE16find_or_allocateERKi
FN:1103,_ZN7emhash47HashSetIiSt4hashIiESt8equal_toIiESaIiEE17find_empty_bucketEj
FNDA:0,_ZN7emhash47HashSetIiSt4hashIiESt8equal_toIiESaIiEE17find_empty_bucketEj
FN:1139,_ZNK7emhash47HashSetIiSt4hashIiESt8equal_toIiESaIiEE16find_last_bucketEj
FNDA:0,_ZNK7emhash47HashSetIiSt4hashIiESt8equal_toIiESaIiEE16find_last_bucketEj
FN:1152,_ZNK7emhash47HashSetIiSt4hashIiESt8equal_toIiESaIiEE16find_prev_bucketEjj
FNDA:0,_ZNK7emhash47HashSetIiSt4hashIiESt8equal_toIiESaIiEE16find_prev_bucketEjj
FN:1165,_ZN7emhash47HashSetIiSt4hashIiESt8equal_toIiESaIiEE18find_unique_bucketERKi
FNDA:144,_ZN7emhash47HashSetIiSt4hashIiESt8equal_toIiESaIiEE18find_unique_bucketERKi
FN:1213,_ZNK7emhash47HashSetIiSt4hashIiESt8equal_toIiESaIiEE11hash_bucketIiLj0EEEjT_
FNDA:401,_ZNK7emhash47HashSetIiSt4hashIiESt8equal_toIiESaIiEE11hash_bucketIiLj0EEEjT_
DA:66,21
DA:94,21
DA:99,21
DA:138,1
DA:139,146
DA:140,146
DA:141,146
DA:142,146
DA:144,1
DA:145,1
DA:146,1
DA:147,1
DA:148,1
DA:149,1
DA:151,0
DA:153,1
DA:155,1
DA:156,1
DA:157,1
DA:158,1
DA:161,1
DA:163,1
DA:164,1
DA:166,10
DA:167,10
DA:168,10
DA:169,10
DA:179,10
DA:183,1
DA:185,12
DA:190,11
DA:191,11
DA:192,10
DA:193,10
DA:197,1
DA:198,1
DA:199,1
DA:201,1
DA:220,1
DA:221,11
DA:222,11
DA:223,11
DA:224,11
DA:226,1
DA:227,1
DA:228,1
DA:229,1
DA:230,1
DA:231,1
DA:233,0
DA:235,1
DA:237,10
DA:238,10
DA:239,10
DA:254,11
DA:259,10
DA:260,10
DA:261,10
DA:262,10
DA:263,10
DA:267,0
DA:268,0
DA:269,0
DA:271,0
DA:283,38
DA:284,38
DA:285,38
DA:286,38
DA:289,19
DA:291,29
DA:292,29
DA:293,19
DA:294,29
DA:298,10
DA:299,10
DA:300,10
DA:301,10
DA:302,10
DA:303,10
DA:304,10
DA:305,10
DA:306,10
DA:308,9
DA:316,1
DA:317,1
DA:318,1
DA:319,1
DA:326,1
DA:331,1
DA:333,1
DA:334,1
DA:353,1
DA:354,1
DA:355,0
DA:361,1
DA:362,1
DA:365,1
DA:371,1
DA:372,1
DA:375,1
DA:376,1
DA:377,1
DA:378,1
DA:380,1
DA:383,11
DA:384,11
DA:385,0
DA:387,11
DA:388,11
DA:390,2
DA:393,2
DA:394,2
DA:395,2
DA:396,2
DA:397,2
DA:398,2
DA:399,2
DA:406,2
DA:414,2
DA:415,2
DA:416,2
DA:418,3
DA:419,3
DA:420,3
DA:421,3
DA:422,3
DA:423,3
DA:424,3
DA:425,3
DA:426,3
DA:427,3
DA:428,3
DA:429,3
DA:433,1
DA:434,1
DA:435,0
DA:437,1
DA:438,1
DA:439,0
DA:441,1
DA:444,1
DA:445,1
DA:446,0
DA:448,1
DA:449,1
DA:450,0
DA:452,1
DA:457,13
DA:459,11
DA:463,11
DA:465,3
DA:468,4
DA:479,10
DA:480,10
DA:481,10
DA:482,10
DA:484,17
DA:623,3
DA:627,30
DA:629,2
DA:634,120
DA:635,120
DA:636,120
DA:637,120
DA:638,120
DA:639,120
DA:641,0
DA:645,10
DA:646,10
DA:647,10
DA:648,10
DA:649,9
DA:650,9
DA:652,1
DA:697,2
DA:698,2
DA:699,2
DA:700,2
DA:701,2
DA:742,120
DA:746,120
DA:747,120
DA:749,120
DA:750,120
DA:751,120
DA:753,153
DA:757,153
DA:758,153
DA:760,153
DA:761,153
DA:762,153
DA:764,92
DA:765,92
DA:766,0
DA:767,92
DA:768,92
DA:769,92
DA:770,92
DA:775,91
DA:776,91
DA:777,91
DA:778,0
DA:780,91
DA:781,91
DA:789,1
DA:790,1
DA:792,1
DA:794,1
DA:796,1
DA:804,246
DA:806,246
DA:812,0
DA:813,0
DA:814,0
DA:815,0
DA:817,0
DA:820,1
DA:821,1
DA:822,0
DA:824,1
DA:825,1
DA:827,1
DA:828,1
DA:829,1
DA:831,1
DA:834,142
DA:835,142
DA:836,142
DA:837,126
DA:839,16
DA:840,16
DA:844,17
DA:845,17
DA:846,0
DA:848,17
DA:849,30
DA:850,13
DA:853,17
DA:854,0
DA:856,17
DA:858,17
DA:864,17
DA:865,17
DA:867,17
DA:868,17
DA:869,17
DA:871,17
DA:872,17
DA:873,17
DA:876,17
DA:880,17
DA:883,17
DA:884,17
DA:885,17
DA:887,17
DA:888,249
DA:889,232
DA:890,232
DA:891,90
DA:893,142
DA:894,142
DA:895,142
DA:896,0
DA:915,17
DA:916,17
DA:921,132
DA:923,91
DA:924,91
DA:925,91
DA:926,91
DA:927,0
DA:929,91
DA:930,91
DA:931,91
DA:932,0
DA:933,0
DA:935,0
DA:938,0
DA:939,0
DA:943,0
DA:944,0
DA:945,0
DA:946,0
DA:947,0
DA:948,0
DA:951,0
DA:952,0
DA:953,0
DA:954,0
DA:957,0
DA:960,1
DA:961,1
DA:962,1
DA:963,1
DA:964,1
DA:965,0
DA:967,0
DA:970,0
DA:972,1
DA:975,0
DA:976,0
DA:977,0
DA:981,35
DA:982,35
DA:983,35
DA:984,35
DA:985,35
DA:986,2
DA:989,33
DA:990,30
DA:991,3
DA:992,3
DA:994,0
DA:995,0
DA:996,0
DA:998,0
DA:999,0
DA:1000,0
DA:1001,0
DA:1004,0
DA:1011,0
DA:1012,0
DA:1013,0
DA:1014,0
DA:1015,0
DA:1017,0
DA:1019,0
DA:1020,0
DA:1021,0
DA:1022,0
DA:1023,0
DA:1024,0
DA:1025,0
DA:1035,130
DA:1036,130
DA:1037,130
DA:1038,130
DA:1039,130
DA:1040,130
DA:1043,0
DA:1044,0
DA:1045,0
DA:1046,0
DA:1047,0
DA:1050,0
DA:1051,0
DA:1056,0
DA:1060,0
DA:1061,0
DA:1062,0
DA:1063,0
DA:1068,0
DA:1069,0
DA:1103,0
DA:1104,0
DA:1105,0
DA:1115,0
DA:1116,0
DA:1119,0
DA:1120,0
DA:1121,0
DA:1124,0
DA:1125,0
DA:1126,0
DA:1127,0
DA:1128,0
DA:1130,0
DA:1131,0
DA:1132,0
DA:1133,0
DA:1134,0
DA:1139,0
DA:1140,0
DA:1141,0
DA:1142,0
DA:1144,0
DA:1145,0
DA:1146,0
DA:1147,0
DA:1148,0
DA:1152,0
DA:1153,0
DA:1154,0
DA:1155,0
DA:1157,0
DA:1158,0
DA:1159,0
DA:1160,0
DA:1161,0
DA:1165,144
DA:1166,144
DA:1167,144
DA:1168,144
DA:1169,144
DA:1172,0
DA:1173,0
DA:1174,0
DA:1175,0
DA:1176,0
DA:1179,0
DA:1213,401
DA:1221,401
end_of_record
SF:/mnt/d/emhash/include/emilib/emihset3.hpp
FN:119,_ZN7emilib3L3CTZEj
FNDA:66,_ZN7emilib3L3CTZEj
FN:163,_ZNK7emilib37HashSetIiSt4hashIiESt8equal_toIiEE9hash_key2IiLa0EEEaRjRKT_
FNDA:47,_ZNK7emilib37HashSetIiSt4hashIiESt8equal_toIiEE9hash_key2IiLa0EEEaRjRKT_
FN:181,_ZN7emilib37HashSetIiSt4hashIiESt8equal_toIiEE8iteratorC2EPKS5_j
FNDA:42,_ZN7emilib37HashSetIiSt4hashIiESt8equal_toIiEE8iteratorC2EPKS5_j
FN:185,_ZN7emilib37HashSetIiSt4hashIiESt8equal_toIiEE8iterator4initEv
FNDA:1,_ZN7emilib37HashSetIiSt4hashIiESt8equal_toIiEE8iterator4initEv
FN:198,_ZNK7emilib37HashSetIiSt4hashIiESt8equal_toIiEE8iterator6bucketEv
FNDA:0,_ZNK7emilib37HashSetIiSt4hashIiESt8equal_toIiEE8iterator6bucketEv
FN:200,_ZN7emilib37HashSetIiSt4hashIiESt8equal_toIiEE8iteratorppEv
FNDA:10,_ZN7emilib37HashSetIiSt4hashIiESt8equal_toIiEE8iteratorppEv
FN:219,_ZNK7emilib37HashSetIiSt4hashIiESt8equal_toIiEE8iteratordeEv
FNDA:10,_ZNK7emilib37HashSetIiSt4hashIiESt8equal_toIiEE8iteratordeEv
FN:223,_ZNK7emilib37HashSetIiSt4hashIiESt8equal_toIiEE8iteratorneERKS6_
FNDA:12,_ZNK7emilib37HashSetIiSt4hashIiESt8equal_toIiEE8iteratorneERKS6_
FN:228,_ZN7emilib37HashSetIiSt4hashIiESt8equal_toIiEE8iterator17goto_next_elementEv
FNDA:10,_ZN7emilib37HashSetIiSt4hashIiESt8equal_toIiEE8iterator17goto_next_elementEv
FN:258,_ZN7emilib37HashSetIiSt4hashIiESt8equal_toIiEE14const_iteratorC2EPKS5_j
FNDA:12,_ZN7emilib37HashSetIiSt4hashIiESt8equal_toIiEE14const_iteratorC2EPKS5_j
FN:260,_ZN7emilib37HashSetIiSt4hashIiESt8equal_toIiEE14const_iterator4initEv
FNDA:12,_ZN7emilib37HashSetIiSt4hashIiESt8equal_toIiEE14const_iterator4initEv
FN:271,_ZNK7emilib37HashSetIiSt4hashIiESt8equal_toIiEE14const_iterator6bucketEv
FNDA:0,_ZNK7emilib37HashSetIiSt4hashIiESt8equal_toIiEE14const_iterator6bucketEv
FN:275,_ZN7emilib37HashSetIiSt4hashIiESt8equal_toIiEE14const_iteratorppEv
FNDA:10,_ZN7emilib37HashSetIiSt4hashIiESt8equal_toIiEE14const_iteratorppEv
FN:286,_ZNK7emilib37HashSetIiSt4hashIiESt8equal_toIiEE14const_iteratordeEv
FNDA:0,_ZNK7emilib37HashSetIiSt4hashIiESt8equal_toIiEE14const_iteratordeEv
FN:292,_ZNK7emilib37HashSetIiSt4hashIiESt8equal_toIiEE14const_iteratorneERKS6_
FNDA:11,_ZNK7emilib37HashSetIiSt4hashIiESt8equal_toIiEE14const_iteratorneERKS6_
FN:295,_ZN7emilib37HashSetIiSt4hashIiESt8equal_toIiEE14const_iterator17goto_next_elementEv
FNDA:10,_ZN7emilib37HashSetIiSt4hashIiESt8equal_toIiEE14const_iterator17goto_next_elementEv
FN:317,_ZN7emilib37HashSetIiSt4hashIiESt8equal_toIiEEC2Ejf
FNDA:7,_ZN7emilib37HashSetIiSt4hashIiESt8equal_toIiEEC2Ejf
FN:322,_ZN7emilib37HashSetIiSt4hashIiESt8equal_toIiEEC2ERKS5_
FNDA:1,_ZN7emilib37HashSetIiSt4hashIiESt8equal_toIiEEC2ERKS5_
FN:324,_ZN7emilib37HashSetIiSt4hashIiESt8equal_toIiEEC2EOS5_
FNDA:1,_ZN7emilib37HashSetIiSt4hashIiESt8equal_toIiEEC2EOS5_
FN:343,_ZN7emilib37HashSetIiSt4hashIiESt8equal_toIiEEaSERKS5_
FNDA:1,_ZN7emilib37HashSetIiSt4hashIiESt8equal_toIiEEaSERKS5_
FN:349,_ZN7emilib37HashSetIiSt4hashIiESt8equal_toIiEEaSEOS5_
FNDA:1,_ZN7emilib37HashSetIiSt4hashIiESt8equal_toIiEEaSEOS5_
FN:357,_ZN7emilib37HashSetIiSt4hashIiESt8equal_toIiEED2Ev
FNDA:9,_ZN7emilib37HashSetIiSt4hashIiESt8equal_toIiEED2Ev
FN:364,_ZN7emilib37HashSetIiSt4hashIiESt8equal_toIiEE5cloneERKS5_
FNDA:2,_ZN7emilib37HashSetIiSt4hashIiESt8equal_toIiEE5cloneERKS5_
FN:391,_ZN7emilib37HashSetIiSt4hashIiESt8equal_toIiEE4swapERS5_
FNDA:3,_ZN7emilib37HashSetIiSt4hashIiESt8equal_toIiEE4swapERS5_
FN:405,_ZN7emilib37HashSetIiSt4hashIiESt8equal_toIiEE5beginEv
FNDA:1,_ZN7emilib37HashSetIiSt4hashIiESt8equal_toIiEE5beginEv
FN:407,_ZNK7emilib37HashSetIiSt4hashIiESt8equal_toIiEE6cbeginEv
FNDA:1,_ZNK7emilib37HashSetIiSt4hashIiESt8equal_toIiEE6cbeginEv
FN:411,_ZN7emilib37HashSetIiSt4hashIiESt8equal_toIiEE3endEv
FNDA:12,_ZN7emilib37HashSetIiSt4hashIiESt8equal_toIiEE3endEv
FN:413,_ZNK7emilib37HashSetIiSt4hashIiESt8equal_toIiEE4cendEv
FNDA:11,_ZNK7emilib37HashSetIiSt4hashIiESt8equal_toIiEE4cendEv
FN:417,_ZNK7emilib37HashSetIiSt4hashIiESt8equal_toIiEE4sizeEv
FNDA:10,_ZNK7emilib37HashSetIiSt4hashIiESt8equal_toIiEE4sizeEv
FN:419,_ZNK7emilib37HashSetIiSt4hashIiESt8equal_toIiEE5emptyEv
FNDA:1,_ZNK7emilib37HashSetIiSt4hashIiESt8equal_toIiEE5emptyEv
FN:422,_ZNK7emilib37HashSetIiSt4hashIiESt8equal_toIiEE12bucket_countEv
FNDA:13,_ZNK7emilib37HashSetIiSt4hashIiESt8equal_toIiEE12bucket_countEv
FN:434,_ZNK7emilib37HashSetIiSt4hashIiESt8equal_toIiEE8max_sizeEv
FNDA:9,_ZNK7emilib37HashSetIiSt4hashIiESt8equal_toIiEE8max_sizeEv
FN:439,_ZN7emilib37HashSetIiSt4hashIiESt8equal_toIiEE4findIiEENS5_8iteratorERKT_
FNDA:2,_ZN7emilib37HashSetIiSt4hashIiESt8equal_toIiEE4findIiEENS5_8iteratorERKT_
FN:445,_ZNK7emilib37HashSetIiSt4hashIiESt8equal_toIiEE8containsIiEEbRKT_
FNDA:16,_ZNK7emilib37HashSetIiSt4hashIiESt8equal_toIiEE8containsIiEEbRKT_
FN:449,_ZNK7emilib37HashSetIiSt4hashIiESt8equal_toIiEE5countIiEEjRKT_
FNDA:1,_ZNK7emilib37HashSetIiSt4hashIiESt8equal_toIiEE5countIiEEjRKT_
FN:489,_ZN7emilib37HashSetIiSt4hashIiESt8equal_toIiEE9do_insertIiEESt4pairINS5_8iteratorEbEOT_
FNDA:7,_ZN7emilib37HashSetIiSt4hashIiESt8equal_toIiEE9do_insertIiEESt4pairINS5_8iteratorEbEOT_
FN:500,_ZN7emilib37HashSetIiSt4hashIiESt8equal_toIiEE9do_insertIiEESt4pairINS5_8iteratorEbERKT_
FNDA:20,_ZN7emilib37HashSetIiSt4hashIiESt8equal_toIiEE9do_insertIiEESt4pairINS5_8iteratorEbERKT_
FN:514,_ZN7emilib37HashSetIiSt4hashIiESt8equal_toIiEE6insertEOi
FNDA:7,_ZN7emilib37HashSetIiSt4hashIiESt8equal_toIiEE6insertEOi
FN:516,_ZN7emilib37HashSetIiSt4hashIiESt8equal_toIiEE6insertERKi
FNDA:20,_ZN7emilib37HashSetIiSt4hashIiESt8equal_toIiEE6insertERKi
FN:575,_ZN7emilib37HashSetIiSt4hashIiESt8equal_toIiEE5eraseERKi
FNDA:1,_ZN7emilib37HashSetIiSt4hashIiESt8equal_toIiEE5eraseERKi
FN:586,_ZN7emilib37HashSetIiSt4hashIiESt8equal_toIiEE5eraseENS5_8iteratorE
FNDA:1,_ZN7emilib37HashSetIiSt4hashIiESt8equal_toIiEE5eraseENS5_8iteratorE
FN:588,_ZN7emilib37HashSetIiSt4hashIiESt8equal_toIiEE6_eraseEj
FNDA:2,_ZN7emilib37HashSetIiSt4hashIiESt8equal_toIiEE6_eraseEj
FN:621,_ZN7emilib37HashSetIiSt4hashIiESt8equal_toIiEE18need_explicit_dtorEv
FNDA:13,_ZN7emilib37HashSetIiSt4hashIiESt8equal_toIiEE18need_explicit_dtorEv
FN:629,_ZN7emilib37HashSetIiSt4hashIiESt8equal_toIiEE21is_trivially_copyableEv
FNDA:2,_ZN7emilib37HashSetIiSt4hashIiESt8equal_toIiEE21is_trivially_copyableEv
FN:638,_ZN7emilib37HashSetIiSt4hashIiESt8equal_toIiEE10clear_metaEv
FNDA:9,_ZN7emilib37HashSetIiSt4hashIiESt8equal_toIiEE10clear_metaEv
FN:647,_ZN7emilib37HashSetIiSt4hashIiESt8equal_toIiEE10clear_dataEv
FNDA:11,_ZN7emilib37HashSetIiSt4hashIiESt8equal_toIiEE10clear_dataEv
FN:658,_ZN7emilib37HashSetIiSt4hashIiESt8equal_toIiEE5clearEv
FNDA:1,_ZN7emilib37HashSetIiSt4hashIiESt8equal_toIiEE5clearEv
FN:677,_ZN7emilib37HashSetIiSt4hashIiESt8equal_toIiEE6rehashEm
FNDA:9,_ZN7emilib37HashSetIiSt4hashIiESt8equal_toIiEE6rehashEm
FN:748,_ZN7emilib37HashSetIiSt4hashIiESt8equal_toIiEE19prefetch_heap_blockEPc
FNDA:44,_ZN7emilib37HashSetIiSt4hashIiESt8equal_toIiEE19prefetch_heap_blockEPc
FN:760,_ZNK7emilib37HashSetIiSt4hashIiESt8equal_toIiEE10group_maskEj
FNDA:31,_ZNK7emilib37HashSetIiSt4hashIiESt8equal_toIiEE10group_maskEj
FN:762,_ZN7emilib37HashSetIiSt4hashIiESt8equal_toIiEE10set_statesEja
FNDA:26,_ZN7emilib37HashSetIiSt4hashIiESt8equal_toIiEE10set_statesEja
FN:764,_ZN7emilib37HashSetIiSt4hashIiESt8equal_toIiEE10set_offsetEj
FNDA:0,_ZN7emilib37HashSetIiSt4hashIiESt8equal_toIiEE10set_offsetEj
FN:766,_ZNK7emilib37HashSetIiSt4hashIiESt8equal_toIiEE15get_next_bucketEjj
FNDA:0,_ZNK7emilib37HashSetIiSt4hashIiESt8equal_toIiEE15get_next_bucketEjj
FN:781,_ZNK7emilib37HashSetIiSt4hashIiESt8equal_toIiEE18find_filled_bucketIiEEjRKT_
FNDA:20,_ZNK7emilib37HashSetIiSt4hashIiESt8equal_toIiEE18find_filled_bucketIiEEjRKT_
FN:811,_ZN7emilib37HashSetIiSt4hashIiESt8equal_toIiEE16find_or_allocateIiEEjRKT_Rb
FNDA:27,_ZN7emilib37HashSetIiSt4hashIiESt8equal_toIiEE16find_or_allocateIiEEjRKT_Rb
FN:868,_ZNK7emilib37HashSetIiSt4hashIiESt8equal_toIiEE12empty_deleteEj
FNDA:0,_ZNK7emilib37HashSetIiSt4hashIiESt8equal_toIiEE12empty_deleteEj
FN:873,_ZNK7emilib37HashSetIiSt4hashIiESt8equal_toIiEE11filled_maskEj
FNDA:6,_ZNK7emilib37HashSetIiSt4hashIiESt8equal_toIiEE11filled_maskEj
FN:878,_ZN7emilib37HashSetIiSt4hashIiESt8equal_toIiEE15find_empty_slotEjj
FNDA:0,_ZN7emilib37HashSetIiSt4hashIiESt8equal_toIiEE15find_empty_slotEjj
FN:894,_ZNK7emilib37HashSetIiSt4hashIiESt8equal_toIiEE16find_filled_slotEj
FNDA:2,_ZNK7emilib37HashSetIiSt4hashIiESt8equal_toIiEE16find_filled_slotEj
DA:119,66
DA:124,66
DA:127,66
DA:163,47
DA:164,47
DA:165,47
DA:166,47
DA:167,47
DA:181,42
DA:182,42
DA:183,42
DA:185,1
DA:186,1
DA:187,1
DA:188,1
DA:189,1
DA:190,1
DA:192,0
DA:194,1
DA:198,0
DA:200,10
DA:202,10
DA:203,1
DA:205,10
DA:206,10
DA:219,10
DA:223,12
DA:228,10
DA:229,10
DA:230,10
DA:231,9
DA:232,9
DA:236,1
DA:237,1
DA:239,1
DA:258,12
DA:260,12
DA:261,12
DA:262,12
DA:263,12
DA:264,1
DA:265,1
DA:267,11
DA:269,12
DA:271,0
DA:275,10
DA:276,10
DA:277,10
DA:286,0
DA:292,11
DA:295,10
DA:296,10
DA:297,10
DA:298,9
DA:299,9
DA:303,1
DA:304,1
DA:306,1
DA:317,7
DA:318,7
DA:319,7
DA:320,7
DA:322,1
DA:324,1
DA:325,1
DA:326,1
DA:327,1
DA:329,1
DA:343,1
DA:344,1
DA:345,1
DA:346,1
DA:349,1
DA:350,1
DA:351,1
DA:352,1
DA:354,1
DA:357,9
DA:358,9
DA:359,9
DA:360,9
DA:361,9
DA:362,9
DA:364,2
DA:365,2
DA:366,0
DA:367,0
DA:370,2
DA:372,2
DA:373,1
DA:374,1
DA:377,2
DA:378,2
DA:380,0
DA:381,0
DA:384,2
DA:385,2
DA:386,2
DA:387,2
DA:388,2
DA:391,3
DA:392,3
DA:393,3
DA:394,3
DA:395,3
DA:396,3
DA:397,3
DA:398,3
DA:399,3
DA:400,3
DA:401,3
DA:405,1
DA:407,1
DA:411,12
DA:413,11
DA:417,10
DA:419,1
DA:422,13
DA:434,9
DA:439,2
DA:445,16
DA:446,16
DA:449,1
DA:450,1
DA:489,7
DA:490,7
DA:491,7
DA:493,7
DA:494,6
DA:495,6
DA:497,7
DA:500,20
DA:501,20
DA:502,20
DA:503,20
DA:504,20
DA:505,20
DA:507,20
DA:514,7
DA:516,20
DA:575,1
DA:576,1
DA:577,1
DA:578,0
DA:580,1
DA:581,1
DA:586,1
DA:588,2
DA:589,2
DA:590,2
DA:591,0
DA:593,2
DA:594,2
DA:600,2
DA:621,13
DA:623,13
DA:629,2
DA:632,2
DA:638,9
DA:640,9
DA:642,9
DA:643,9
DA:644,9
DA:645,9
DA:647,11
DA:648,11
DA:649,0
DA:650,0
DA:651,0
DA:652,0
DA:655,11
DA:658,1
DA:659,1
DA:660,0
DA:661,0
DA:663,1
DA:677,9
DA:678,9
DA:679,0
DA:681,9
DA:682,9
DA:683,0
DA:686,9
DA:687,0
DA:689,9
DA:690,9
DA:691,9
DA:693,9
DA:694,9
DA:696,9
DA:697,9
DA:698,9
DA:699,9
DA:704,9
DA:705,9
DA:706,9
DA:707,9
DA:708,9
DA:711,9
DA:712,9
DA:719,9
DA:720,0
DA:721,0
DA:723,0
DA:724,0
DA:726,0
DA:727,0
DA:728,0
DA:729,0
DA:730,0
DA:740,9
DA:741,9
DA:748,44
DA:756,44
DA:758,44
DA:760,31
DA:762,26
DA:764,0
DA:766,0
DA:768,0
DA:769,0
DA:771,0
DA:777,0
DA:781,20
DA:783,20
DA:784,20
DA:785,20
DA:788,40
DA:789,20
DA:790,20
DA:791,17
DA:793,17
DA:794,17
DA:795,17
DA:796,0
DA:799,3
DA:800,3
DA:801,0
DA:802,0
DA:803,0
DA:804,0
DA:811,27
DA:812,27
DA:813,27
DA:814,0
DA:817,27
DA:818,27
DA:819,27
DA:820,27
DA:821,27
DA:822,27
DA:823,27
DA:826,54
DA:827,27
DA:830,27
DA:831,1
DA:832,1
DA:833,1
DA:834,1
DA:836,0
DA:839,26
DA:841,52
DA:842,26
DA:843,26
DA:844,26
DA:845,26
DA:846,0
DA:847,0
DA:852,0
DA:854,0
DA:856,0
DA:857,0
DA:858,0
DA:861,0
DA:863,0
DA:865,0
DA:868,0
DA:869,0
DA:870,0
DA:873,6
DA:874,6
DA:875,18
DA:878,0
DA:880,0
DA:881,0
DA:882,0
DA:883,0
DA:884,0
DA:885,0
DA:886,0
DA:888,0
DA:889,0
DA:894,2
DA:895,2
DA:896,0
DA:898,0
DA:899,2
DA:900,2
DA:901,2
DA:902,0
end_of_record
SF:/mnt/d/emhash/include/emhash/hash_set3.hpp
FN:130,_ZN7emhash37HashSetIiSt4hashIiESt8equal_toIiESaIiEE8iteratorC2EPS6_j
FNDA:42,_ZN7emhash37HashSetIiSt4hashIiESt8equal_toIiESaIiEE8iteratorC2EPS6_j
FN:132,_ZN7emhash37HashSetIiSt4hashIiESt8equal_toIiESaIiEE8iteratorppEv
FNDA:11,_ZN7emhash37HashSetIiSt4hashIiESt8equal_toIiESaIiEE8iteratorppEv
FN:143,_ZNK7emhash37HashSetIiSt4hashIiESt8equal_toIiESaIiEE8iteratordeEv
FNDA:10,_ZNK7emhash37HashSetIiSt4hashIiESt8equal_toIiESaIiEE8iteratordeEv
FN:149,_ZNK7emhash37HashSetIiSt4hashIiESt8equal_toIiESaIiEE8iteratorneERKS7_
FNDA:12,_ZNK7emhash37HashSetIiSt4hashIiESt8equal_toIiESaIiEE8iteratorneERKS7_
FN:154,_ZN7emhash37HashSetIiSt4hashIiESt8equal_toIiESaIiEE8iterator17goto_next_elementEv
FNDA:11,_ZN7emhash37HashSetIiSt4hashIiESt8equal_toIiESaIiEE8iterator17goto_next_elementEv
FN:176,_ZN7emhash37HashSetIiSt4hashIiESt8equal_toIiESaIiEE14const_iteratorC2EPKS6_j
FNDA:12,_ZN7emhash37HashSetIiSt4hashIiESt8equal_toIiESaIiEE14const_iteratorC2EPKS6_j
FN:178,_ZN7emhash37HashSetIiSt4hashIiESt8equal_toIiESaIiEE14const_iteratorppEv
FNDA:10,_ZN7emhash37HashSetIiSt4hashIiESt8equal_toIiESaIiEE14const_iteratorppEv
FN:195,_ZNK7emhash37HashSetIiSt4hashIiESt8equal_toIiESaIiEE14const_iteratorneERKS7_
FNDA:11,_ZNK7emhash37HashSetIiSt4hashIiESt8equal_toIiESaIiEE14const_iteratorneERKS7_
FN:200,_ZN7emhash37HashSetIiSt4hashIiESt8equal_toIiESaIiEE14const_iterator17goto_next_elementEv
FNDA:10,_ZN7emhash37HashSetIiSt4hashIiESt8equal_toIiESaIiEE14const_iterator17goto_next_elementEv
FN:214,_ZN7emhash37HashSetIiSt4hashIiESt8equal_toIiESaIiEE12alloc_bucketEj
FNDA:9,_ZN7emhash37HashSetIiSt4hashIiESt8equal_toIiESaIiEE12alloc_bucketEj
FN:216,_ZN7emhash37HashSetIiSt4hashIiESt8equal_toIiESaIiEE14dealloc_bucketEPSt4pairIijEj
FNDA:17,_ZN7emhash37HashSetIiSt4hashIiESt8equal_toIiESaIiEE14dealloc_bucketEPSt4pairIijEj
FN:221,_ZN7emhash37HashSetIiSt4hashIiESt8equal_toIiESaIiEE4initEv
FNDA:8,_ZN7emhash37HashSetIiSt4hashIiESt8equal_toIiESaIiEE4initEv
FN:236,_ZN7emhash37HashSetIiSt4hashIiESt8equal_toIiESaIiEEC2EjRKS2_RKS4_RKS5_
FNDA:7,_ZN7emhash37HashSetIiSt4hashIiESt8equal_toIiESaIiEEC2EjRKS2_RKS4_RKS5_
FN:249,_ZN7emhash37HashSetIiSt4hashIiESt8equal_toIiESaIiEEC2ERKS6_
FNDA:1,_ZN7emhash37HashSetIiSt4hashIiESt8equal_toIiESaIiEEC2ERKS6_
FN:259,_ZN7emhash37HashSetIiSt4hashIiESt8equal_toIiESaIiEE5cloneERKS6_
FNDA:2,_ZN7emhash37HashSetIiSt4hashIiESt8equal_toIiESaIiEE5cloneERKS6_
FN:285,_ZN7emhash37HashSetIiSt4hashIiESt8equal_toIiESaIiEEC2EOS6_
FNDA:1,_ZN7emhash37HashSetIiSt4hashIiESt8equal_toIiESaIiEEC2EOS6_
FN:309,_ZN7emhash37HashSetIiSt4hashIiESt8equal_toIiESaIiEEaSERKS6_
FNDA:1,_ZN7emhash37HashSetIiSt4hashIiESt8equal_toIiESaIiEEaSERKS6_
FN:330,_ZN7emhash37HashSetIiSt4hashIiESt8equal_toIiESaIiEEaSEOS6_
FNDA:2,_ZN7emhash37HashSetIiSt4hashIiESt8equal_toIiESaIiEEaSEOS6_
FN:338,_ZN7emhash37HashSetIiSt4hashIiESt8equal_toIiESaIiEED2Ev
FNDA:9,_ZN7emhash37HashSetIiSt4hashIiESt8equal_toIiESaIiEED2Ev
FN:345,_ZN7emhash37HashSetIiSt4hashIiESt8equal_toIiESaIiEE4swapERS6_
FNDA:3,_ZN7emhash37HashSetIiSt4hashIiESt8equal_toIiESaIiEE4swapERS6_
FN:364,_ZN7emhash37HashSetIiSt4hashIiESt8equal_toIiESaIiEE5beginEv
FNDA:1,_ZN7emhash37HashSetIiSt4hashIiESt8equal_toIiESaIiEE5beginEv
FN:373,_ZNK7emhash37HashSetIiSt4hashIiESt8equal_toIiESaIiEE6cbeginEv
FNDA:1,_ZNK7emhash37HashSetIiSt4hashIiESt8equal_toIiESaIiEE6cbeginEv
FN:384,_ZN7emhash37HashSetIiSt4hashIiESt8equal_toIiESaIiEE3endEv
FNDA:12,_ZN7emhash37HashSetIiSt4hashIiESt8equal_toIiESaIiEE3endEv
FN:386,_ZNK7emhash37HashSetIiSt4hashIiESt8equal_toIiESaIiEE4cendEv
FNDA:11,_ZNK7emhash37HashSetIiSt4hashIiESt8equal_toIiESaIiEE4cendEv
FN:390,_ZNK7emhash37HashSetIiSt4hashIiESt8equal_toIiESaIiEE4sizeEv
FNDA:12,_ZNK7emhash37HashSetIiSt4hashIiESt8equal_toIiESaIiEE4sizeEv
FN:392,_ZNK7emhash37HashSetIiSt4hashIiESt8equal_toIiESaIiEE5emptyEv
FNDA:2,_ZNK7emhash37HashSetIiSt4hashIiESt8equal_toIiESaIiEE5emptyEv
FN:410,_ZN7emhash37HashSetIiSt4hashIiESt8equal_toIiESaIiEE15max_load_factorEf
FNDA:8,_ZN7emhash37HashSetIiSt4hashIiESt8equal_toIiESaIiEE15max_load_factorEf
FN:415,_ZNK7emhash37HashSetIiSt4hashIiESt8equal_toIiESaIiEE8max_sizeEv
FNDA:8,_ZNK7emhash37HashSetIiSt4hashIiESt8equal_toIiESaIiEE8max_sizeEv
FN:520,_ZN7emhash37HashSetIiSt4hashIiESt8equal_toIiESaIiEE4findERKi
FNDA:2,_ZN7emhash37HashSetIiSt4hashIiESt8equal_toIiESaIiEE4findERKi
FN:524,_ZNK7emhash37HashSetIiSt4hashIiESt8equal_toIiESaIiEE8containsERKi
FNDA:16,_ZNK7emhash37HashSetIiSt4hashIiESt8equal_toIiESaIiEE8containsERKi
FN:526,_ZNK7emhash37HashSetIiSt4hashIiESt8equal_toIiESaIiEE5countERKi
FNDA:1,_ZNK7emhash37HashSetIiSt4hashIiESt8equal_toIiESaIiEE5countERKi
FN:531,_ZN7emhash37HashSetIiSt4hashIiESt8equal_toIiESaIiEE6insertERKi
FNDA:27,_ZN7emhash37HashSetIiSt4hashIiESt8equal_toIiESaIiEE6insertERKi
FN:564,_ZN7emhash37HashSetIiSt4hashIiESt8equal_toIiESaIiEE7new_keyERKijj
FNDA:26,_ZN7emhash37HashSetIiSt4hashIiESt8equal_toIiESaIiEE7new_keyERKijj
FN:577,_ZN7emhash37HashSetIiSt4hashIiESt8equal_toIiESaIiEE7del_keyEjRKi
FNDA:0,_ZN7emhash37HashSetIiSt4hashIiESt8equal_toIiESaIiEE7del_keyEjRKi
FN:591,_ZN7emhash37HashSetIiSt4hashIiESt8equal_toIiESaIiEE8del_mainEjRj
FNDA:2,_ZN7emhash37HashSetIiSt4hashIiESt8equal_toIiESaIiEE8del_mainEjRj
FN:690,_ZN7emhash37HashSetIiSt4hashIiESt8equal_toIiESaIiEE5eraseERKi
FNDA:1,_ZN7emhash37HashSetIiSt4hashIiESt8equal_toIiESaIiEE5eraseERKi
FN:718,_ZN7emhash37HashSetIiSt4hashIiESt8equal_toIiESaIiEE5eraseENS6_8iteratorE
FNDA:1,_ZN7emhash37HashSetIiSt4hashIiESt8equal_toIiESaIiEE5eraseENS6_8iteratorE
FN:738,_ZN7emhash37HashSetIiSt4hashIiESt8equal_toIiESaIiEE7clearkvEv
FNDA:2,_ZN7emhash37HashSetIiSt4hashIiESt8equal_toIiESaIiEE7clearkvEv
FN:760,_ZN7emhash37HashSetIiSt4hashIiESt8equal_toIiESaIiEE5clearEv
FNDA:2,_ZN7emhash37HashSetIiSt4hashIiESt8equal_toIiESaIiEE5clearEv
FN:770,_ZN7emhash37HashSetIiSt4hashIiESt8equal_toIiESaIiEE7reserveEm
FNDA:35,_ZN7emhash37HashSetIiSt4hashIiESt8equal_toIiESaIiEE7reserveEm
FN:781,_ZN7emhash37HashSetIiSt4hashIiESt8equal_toIiESaIiEE6rehashEm
FNDA:8,_ZN7emhash37HashSetIiSt4hashIiESt8equal_toIiESaIiEE6rehashEm
FN:906,_ZN7emhash37HashSetIiSt4hashIiESt8equal_toIiESaIiEE17check_expand_needEv
FNDA:27,_ZN7emhash37HashSetIiSt4hashIiESt8equal_toIiESaIiEE17check_expand_needEv
FN:908,_ZN7emhash37HashSetIiSt4hashIiESt8equal_toIiESaIiEE9erase_keyERKi
FNDA:0,_ZN7emhash37HashSetIiSt4hashIiESt8equal_toIiESaIiEE9erase_keyERKi
FN:945,_ZN7emhash37HashSetIiSt4hashIiESt8equal_toIiESaIiEE12erase_bucketEj
FNDA:0,_ZN7emhash37HashSetIiSt4hashIiESt8equal_toIiESaIiEE12erase_bucketEj
FN:966,_ZNK7emhash37HashSetIiSt4hashIiESt8equal_toIiESaIiEE17find_colls_bucketERKi
FNDA:19,_ZNK7emhash37HashSetIiSt4hashIiESt8equal_toIiESaIiEE17find_colls_bucketERKi
FN:1002,_ZN7emhash37HashSetIiSt4hashIiESt8equal_toIiESaIiEE17reset_coll_bucketEjj
FNDA:0,_ZN7emhash37HashSetIiSt4hashIiESt8equal_toIiESaIiEE17reset_coll_bucketEjj
FN:1021,_ZN7emhash37HashSetIiSt4hashIiESt8equal_toIiESaIiEE16find_or_allocateERKi
FNDA:4,_ZN7emhash37HashSetIiSt4hashIiESt8equal_toIiESaIiEE16find_or_allocateERKi
FN:1058,_ZNK7emhash37HashSetIiSt4hashIiESt8equal_toIiESaIiEE17find_empty_bucketEj
FNDA:0,_ZNK7emhash37HashSetIiSt4hashIiESt8equal_toIiESaIiEE17find_empty_bucketEj
FN:1087,_ZNK7emhash37HashSetIiSt4hashIiESt8equal_toIiESaIiEE16find_last_bucketEj
FNDA:0,_ZNK7emhash37HashSetIiSt4hashIiESt8equal_toIiESaIiEE16find_last_bucketEj
FN:1100,_ZNK7emhash37HashSetIiSt4hashIiESt8equal_toIiESaIiEE16find_prev_bucketEjj
FNDA:0,_ZNK7emhash37HashSetIiSt4hashIiESt8equal_toIiESaIiEE16find_prev_bucketEjj
FN:1130,_ZN7emhash37HashSetIiSt4hashIiESt8equal_toIiESaIiEE6hash64Em
FNDA:47,_ZN7emhash37HashSetIiSt4hashIiESt8equal_toIiESaIiEE6hash64Em
FN:1162,_ZNK7emhash37HashSetIiSt4hashIiESt8equal_toIiESaIiEE10hash_interIiLj0EEEjT_
FNDA:47,_ZNK7emhash37HashSetIiSt4hashIiESt8equal_toIiESaIiEE10hash_interIiLj0EEEjT_
DA:130,42
DA:132,11
DA:133,11
DA:134,11
DA:143,10
DA:149,12
DA:154,27
DA:156,27
DA:157,27
DA:158,11
DA:159,11
DA:176,12
DA:178,10
DA:179,10
DA:180,10
DA:195,11
DA:200,16
DA:202,16
DA:203,16
DA:204,10
DA:205,10
DA:214,9
DA:216,17
DA:217,17
DA:218,9
DA:219,17
DA:221,8
DA:222,8
DA:223,8
DA:224,8
DA:226,8
DA:227,8
DA:228,8
DA:229,8
DA:230,8
DA:231,8
DA:232,8
DA:236,7
DA:237,7
DA:238,7
DA:241,7
DA:242,7
DA:249,1
DA:250,1
DA:251,1
DA:252,1
DA:259,2
DA:261,2
DA:262,2
DA:263,2
DA:265,2
DA:266,2
DA:267,2
DA:269,2
DA:270,2
DA:273,2
DA:282,2
DA:283,2
DA:285,1
DA:286,1
DA:287,1
DA:288,1
DA:289,1
DA:309,1
DA:310,1
DA:311,0
DA:316,1
DA:317,0
DA:320,0
DA:326,1
DA:327,1
DA:330,2
DA:331,2
DA:332,2
DA:333,2
DA:335,2
DA:338,9
DA:342,9
DA:343,9
DA:345,3
DA:346,3
DA:347,3
DA:348,3
DA:349,3
DA:350,3
DA:352,3
DA:353,3
DA:354,3
DA:356,3
DA:357,3
DA:358,3
DA:359,3
DA:360,3
DA:364,1
DA:365,1
DA:366,1
DA:367,1
DA:368,0
DA:370,1
DA:373,1
DA:374,1
DA:375,1
DA:376,1
DA:377,0
DA:379,1
DA:384,12
DA:386,11
DA:390,12
DA:392,2
DA:410,8
DA:411,8
DA:412,8
DA:413,8
DA:415,8
DA:520,2
DA:524,16
DA:526,1
DA:531,27
DA:532,27
DA:534,27
DA:535,27
DA:538,27
DA:539,22
DA:540,22
DA:541,5
DA:542,1
DA:543,4
DA:544,0
DA:545,0
DA:546,0
DA:547,0
DA:549,0
DA:554,4
DA:555,4
DA:556,4
DA:557,4
DA:558,4
DA:560,0
DA:564,26
DA:565,26
DA:566,26
DA:567,22
DA:568,22
DA:569,22
DA:571,4
DA:572,4
DA:573,4
DA:575,26
DA:577,0
DA:578,0
DA:579,0
DA:582,0
DA:583,0
DA:585,0
DA:586,0
DA:587,0
DA:588,0
DA:589,0
DA:591,2
DA:594,2
DA:595,2
DA:597,2
DA:598,2
DA:599,2
DA:600,2
DA:690,1
DA:691,1
DA:692,1
DA:693,1
DA:694,0
DA:696,1
DA:697,1
DA:698,1
DA:699,1
DA:700,0
DA:701,0
DA:703,0
DA:704,0
DA:705,0
DA:707,0
DA:708,0
DA:718,1
DA:719,1
DA:720,1
DA:721,1
DA:722,1
DA:723,0
DA:724,1
DA:728,0
DA:729,0
DA:730,0
DA:731,0
DA:733,0
DA:734,0
DA:735,0
DA:738,2
DA:739,2
DA:740,0
DA:741,0
DA:742,0
DA:743,0
DA:744,0
DA:748,2
DA:749,0
DA:750,0
DA:751,0
DA:752,0
DA:753,0
DA:756,2
DA:757,2
DA:760,2
DA:761,2
DA:762,0
DA:764,2
DA:766,2
DA:767,2
DA:770,35
DA:772,35
DA:773,35
DA:774,27
DA:776,8
DA:777,8
DA:781,8
DA:782,8
DA:783,0
DA:785,8
DA:786,8
DA:787,0
DA:789,8
DA:790,0
DA:792,8
DA:793,8
DA:794,8
DA:795,8
DA:803,8
DA:804,8
DA:806,8
DA:807,8
DA:808,8
DA:810,8
DA:811,8
DA:812,8
DA:813,8
DA:814,8
DA:817,8
DA:822,8
DA:824,8
DA:826,8
DA:827,0
DA:828,0
DA:829,0
DA:831,0
DA:832,0
DA:834,0
DA:835,0
DA:836,0
DA:838,0
DA:839,0
DA:840,0
DA:841,0
DA:843,0
DA:844,0
DA:845,0
DA:846,0
DA:847,0
DA:848,0
DA:849,0
DA:852,0
DA:857,8
DA:859,8
DA:860,0
DA:861,0
DA:862,0
DA:864,0
DA:867,0
DA:868,0
DA:870,0
DA:871,0
DA:872,0
DA:873,0
DA:876,8
DA:906,27
DA:908,0
DA:909,0
DA:910,0
DA:911,0
DA:912,0
DA:914,0
DA:915,0
DA:916,0
DA:917,0
DA:918,0
DA:920,0
DA:923,0
DA:924,0
DA:925,0
DA:926,0
DA:928,0
DA:929,0
DA:930,0
DA:931,0
DA:932,0
DA:933,0
DA:936,0
DA:937,0
DA:938,0
DA:939,0
DA:942,0
DA:945,0
DA:946,0
DA:947,0
DA:948,0
DA:949,0
DA:950,0
DA:952,0
DA:955,0
DA:957,0
DA:960,0
DA:961,0
DA:962,0
DA:966,19
DA:967,19
DA:968,19
DA:971,19
DA:972,3
DA:973,16
DA:974,14
DA:975,2
DA:976,0
DA:979,2
DA:980,2
DA:981,2
DA:982,0
DA:983,2
DA:984,2
DA:985,0
DA:986,0
DA:989,0
DA:990,0
DA:991,0
DA:993,0
DA:994,0
DA:995,0
DA:996,0
DA:999,0
DA:1002,0
DA:1003,0
DA:1004,0
DA:1005,0
DA:1006,0
DA:1007,0
DA:1008,0
DA:1009,0
DA:1010,0
DA:1011,0
DA:1021,4
DA:1022,4
DA:1023,4
DA:1024,4
DA:1025,4
DA:1026,4
DA:1029,0
DA:1030,0
DA:1031,0
DA:1032,0
DA:1033,0
DA:1036,0
DA:1037,0
DA:1042,0
DA:1046,0
DA:1047,0
DA:1048,0
DA:1049,0
DA:1053,0
DA:1054,0
DA:1058,0
DA:1059,0
DA:1060,0
DA:1061,0
DA:1063,0
DA:1064,0
DA:1065,0
DA:1067,0
DA:1070,0
DA:1071,0
DA:1072,0
DA:1073,0
DA:1075,0
DA:1076,0
DA:1077,0
DA:1078,0
DA:1080,0
DA:1081,0
DA:1082,0
DA:1087,0
DA:1088,0
DA:1089,0
DA:1090,0
DA:1092,0
DA:1093,0
DA:1094,0
DA:1095,0
DA:1096,0
DA:1100,0
DA:1101,0
DA:1102,0
DA:1103,0
DA:1105,0
DA:1106,0
DA:1107,0
DA:1108,0
DA:1109,0
DA:1130,47
DA:1132,47
DA:1133,47
DA:1134,47
DA:1135,47
DA:1162,47
DA:1164,47
end_of_record
TN:
SF:/mnt/d/emhash/include/emhash/hash_table6.hpp
FN:132,_ZN7emhash6L3CTZEm
FNDA:14144951,_ZN7emhash6L3CTZEm
FN:164,_ZN7emhash65entryIiiEC2EOiS2_j
FNDA:6924074,_ZN7emhash65entryIiiEC2EOiS2_j
FN:164,_ZN7emhash65entryIliEC2EOlOij
FNDA:1628000,_ZN7emhash65entryIliEC2EOlOij
FN:174,_ZN7emhash65entryIliEC2EOS1_
FNDA:265394,_ZN7emhash65entryIliEC2EOS1_
FN:174,_ZN7emhash65entryIiiEC2EOS1_
FNDA:669520,_ZN7emhash65entryIiiEC2EOS1_
FN:179,_ZN7emhash65entryIliEC2IRKliEEOT_OT0_j
FNDA:2481973,_ZN7emhash65entryIliEC2IRKliEEOT_OT0_j
FN:179,_ZN7emhash65entryIiiEC2IRKiiEEOT_OT0_j
FNDA:4010578,_ZN7emhash65entryIiiEC2IRKiiEEOT_OT0_j
FN:183,_ZN7emhash65entryIiiEaSEOS1_
FNDA:78594,_ZN7emhash65entryIiiEaSEOS1_
FN:183,_ZN7emhash65entryIliEaSEOS1_
FNDA:0,_ZN7emhash65entryIliEaSEOS1_
FN:284,_ZN7emhash67HashMapIiiSt4hashIiESt8equal_toIiESaISt4pairIiiEEE8iteratorC2EPKS8_j
FNDA:686325,_ZN7emhash67HashMapIiiSt4hashIiESt8equal_toIiESaISt4pairIiiEEE8iteratorC2EPKS8_j
FN:284,_ZN7emhash67HashMapIliSt4hashIlESt8equal_toIlESaISt4pairIliEEE8iteratorC2EPKS8_j
FNDA:3004000,_ZN7emhash67HashMapIliSt4hashIlESt8equal_toIlESaISt4pairIliEEE8iteratorC2EPKS8_j
FN:287,_ZN7emhash67HashMapIiiSt4hashIiESt8equal_toIiESaISt4pairIiiEEE8iterator4initEv
FNDA:53617,_ZN7emhash67HashMapIiiSt4hashIiESt8equal_toIiESaISt4pairIiiEEE8iterator4initEv
FN:287,_ZN7emhash67HashMapIliSt4hashIlESt8equal_toIlESaISt4pairIliEEE8iterator4initEv
FNDA:2000,_ZN7emhash67HashMapIliSt4hashIlESt8equal_toIlESaISt4pairIliEEE8iterator4initEv
FN:300,_ZN7emhash67HashMapIiiSt4hashIiESt8equal_toIiESaISt4pairIiiEEE8iterator5clearEj
FNDA:263,_ZN7emhash67HashMapIiiSt4hashIiESt8equal_toIiESaISt4pairIiiEEE8iterator5clearEj
FN:305,_ZN7emhash67HashMapIiiSt4hashIiESt8equal_toIiESaISt4pairIiiEEE8iterator4nextEv
FNDA:0,_ZN7emhash67HashMapIiiSt4hashIiESt8equal_toIiESaISt4pairIiiEEE8iterator4nextEv
FN:305,_ZN7emhash67HashMapIliSt4hashIlESt8equal_toIlESaISt4pairIliEEE8iterator4nextEv
FNDA:0,_ZN7emhash67HashMapIliSt4hashIlESt8equal_toIlESaISt4pairIliEEE8iterator4nextEv
FN:310,_ZN7emhash67HashMapIiiSt4hashIiESt8equal_toIiESaISt4pairIiiEEE8iteratorppEv
FNDA:7344864,_ZN7emhash67HashMapIiiSt4hashIiESt8equal_toIiESaISt4pairIiiEEE8iteratorppEv
FN:310,_ZN7emhash67HashMapIliSt4hashIlESt8equal_toIlESaISt4pairIliEEE8iteratorppEv
FNDA:2481973,_ZN7emhash67HashMapIliSt4hashIlESt8equal_toIlESaISt4pairIliEEE8iteratorppEv
FN:331,_ZNK7emhash67HashMapIiiSt4hashIiESt8equal_toIiESaISt4pairIiiEEE8iteratordeEv
FNDA:7323634,_ZNK7emhash67HashMapIiiSt4hashIiESt8equal_toIiESaISt4pairIiiEEE8iteratordeEv
FN:331,_ZNK7emhash67HashMapIliSt4hashIlESt8equal_toIlESaISt4pairIliEEE8iteratordeEv
FNDA:2481973,_ZNK7emhash67HashMapIliSt4hashIlESt8equal_toIlESaISt4pairIliEEE8iteratordeEv
FN:333,_ZNK7emhash67HashMapIliSt4hashIlESt8equal_toIlESaISt4pairIliEEE8iteratorptEv
FNDA:3000000,_ZNK7emhash67HashMapIliSt4hashIlESt8equal_toIlESaISt4pairIliEEE8iteratorptEv
FN:333,_ZNK7emhash67HashMapIiiSt4hashIiESt8equal_toIiESaISt4pairIiiEEE8iteratorptEv
FNDA:20000,_ZNK7emhash67HashMapIiiSt4hashIiESt8equal_toIiESaISt4pairIiiEEE8iteratorptEv
FN:335,_ZNK7emhash67HashMapIiiSt4hashIiESt8equal_toIiESaISt4pairIiiEEE8iteratoreqERKS9_
FNDA:20000,_ZNK7emhash67HashMapIiiSt4hashIiESt8equal_toIiESaISt4pairIiiEEE8iteratoreqERKS9_
FN:336,_ZNK7emhash67HashMapIiiSt4hashIiESt8equal_toIiESaISt4pairIiiEEE8iteratorneERKS9_
FNDA:7496655,_ZNK7emhash67HashMapIiiSt4hashIiESt8equal_toIiESaISt4pairIiiEEE8iteratorneERKS9_
FN:336,_ZNK7emhash67HashMapIliSt4hashIlESt8equal_toIlESaISt4pairIliEEE8iteratorneERKS9_
FNDA:3983973,_ZNK7emhash67HashMapIliSt4hashIlESt8equal_toIlESaISt4pairIliEEE8iteratorneERKS9_
FN:341,_ZN7emhash67HashMapIliSt4hashIlESt8equal_toIlESaISt4pairIliEEE8iterator17goto_next_elementEv
FNDA:2481973,_ZN7emhash67HashMapIliSt4hashIlESt8equal_toIlESaISt4pairIliEEE8iterator17goto_next_elementEv
FN:341,_ZN7emhash67HashMapIiiSt4hashIiESt8equal_toIiESaISt4pairIiiEEE8iterator17goto_next_elementEv
FNDA:7344864,_ZN7emhash67HashMapIiiSt4hashIiESt8equal_toIiESaISt4pairIiiEEE8iterator17goto_next_elementEv
FN:371,_ZN7emhash67HashMapIliSt4hashIlESt8equal_toIlESaISt4pairIliEEE14const_iteratorC2ERKNS8_8iteratorE
FNDA:0,_ZN7emhash67HashMapIliSt4hashIlESt8equal_toIlESaISt4pairIliEEE14const_iteratorC2ERKNS8_8iteratorE
FN:371,_ZN7emhash67HashMapIiiSt4hashIiESt8equal_toIiESaISt4pairIiiEEE14const_iteratorC2ERKNS8_8iteratorE
FNDA:0,_ZN7emhash67HashMapIiiSt4hashIiESt8equal_toIiESaISt4pairIiiEEE14const_iteratorC2ERKNS8_8iteratorE
FN:376,_ZN7emhash67HashMapIliSt4hashIlESt8equal_toIlESaISt4pairIliEEE14const_iteratorC2EPKS8_j
FNDA:0,_ZN7emhash67HashMapIliSt4hashIlESt8equal_toIlESaISt4pairIliEEE14const_iteratorC2EPKS8_j
FN:376,_ZN7emhash67HashMapIiiSt4hashIiESt8equal_toIiESaISt4pairIiiEEE14const_iteratorC2EPKS8_j
FNDA:0,_ZN7emhash67HashMapIiiSt4hashIiESt8equal_toIiESaISt4pairIiiEEE14const_iteratorC2EPKS8_j
FN:381,_ZN7emhash67HashMapIliSt4hashIlESt8equal_toIlESaISt4pairIliEEE14const_iterator4initEv
FNDA:0,_ZN7emhash67HashMapIliSt4hashIlESt8equal_toIlESaISt4pairIliEEE14const_iterator4initEv
FN:381,_ZN7emhash67HashMapIiiSt4hashIiESt8equal_toIiESaISt4pairIiiEEE14const_iterator4initEv
FNDA:0,_ZN7emhash67HashMapIiiSt4hashIiESt8equal_toIiESaISt4pairIiiEEE14const_iterator4initEv
FN:394,_ZN7emhash67HashMapIliSt4hashIlESt8equal_toIlESaISt4pairIliEEE14const_iteratorppEv
FNDA:0,_ZN7emhash67HashMapIliSt4hashIlESt8equal_toIlESaISt4pairIliEEE14const_iteratorppEv
FN:394,_ZN7emhash67HashMapIiiSt4hashIiESt8equal_toIiESaISt4pairIiiEEE14const_iteratorppEv
FNDA:0,_ZN7emhash67HashMapIiiSt4hashIiESt8equal_toIiESaISt4pairIiiEEE14const_iteratorppEv
FN:415,_ZNK7emhash67HashMapIiiSt4hashIiESt8equal_toIiESaISt4pairIiiEEE14const_iteratorptEv
FNDA:0,_ZNK7emhash67HashMapIiiSt4hashIiESt8equal_toIiESaISt4pairIiiEEE14const_iteratorptEv
FN:415,_ZNK7emhash67HashMapIliSt4hashIlESt8equal_toIlESaISt4pairIliEEE14const_iteratorptEv
FNDA:0,_ZNK7emhash67HashMapIliSt4hashIlESt8equal_toIlESaISt4pairIliEEE14const_iteratorptEv
FN:421,_ZN7emhash67HashMapIliSt4hashIlESt8equal_toIlESaISt4pairIliEEE14const_iterator17goto_next_elementEv
FNDA:0,_ZN7emhash67HashMapIliSt4hashIlESt8equal_toIlESaISt4pairIliEEE14const_iterator17goto_next_elementEv
FN:421,_ZN7emhash67HashMapIiiSt4hashIiESt8equal_toIiESaISt4pairIiiEEE14const_iterator17goto_next_elementEv
FNDA:0,_ZN7emhash67HashMapIiiSt4hashIiESt8equal_toIiESaISt4pairIiiEEE14const_iterator17goto_next_elementEv
FN:443,_ZN7emhash67HashMapIliSt4hashIlESt8equal_toIlESaISt4pairIliEEE4initEjf
FNDA:2000,_ZN7emhash67HashMapIliSt4hashIlESt8equal_toIlESaISt4pairIliEEE4initEjf
FN:443,_ZN7emhash67HashMapIiiSt4hashIiESt8equal_toIiESaISt4pairIiiEEE4initEjf
FNDA:3000,_ZN7emhash67HashMapIiiSt4hashIiESt8equal_toIiESaISt4pairIiiEEE4initEjf
FN:456,_ZN7emhash67HashMapIliSt4hashIlESt8equal_toIlESaISt4pairIliEEEC2Ejf
FNDA:2000,_ZN7emhash67HashMapIliSt4hashIlESt8equal_toIlESaISt4pairIliEEEC2Ejf
FN:456,_ZN7emhash67HashMapIiiSt4hashIiESt8equal_toIiESaISt4pairIiiEEEC2Ejf
FNDA:3000,_ZN7emhash67HashMapIiiSt4hashIiESt8equal_toIiESaISt4pairIiiEEEC2Ejf
FN:550,_ZN7emhash67HashMapIliSt4hashIlESt8equal_toIlESaISt4pairIliEEED2Ev
FNDA:2000,_ZN7emhash67HashMapIliSt4hashIlESt8equal_toIlESaISt4pairIliEEED2Ev
FN:550,_ZN7emhash67HashMapIiiSt4hashIiESt8equal_toIiESaISt4pairIiiEEED2Ev
FNDA:3000,_ZN7emhash67HashMapIiiSt4hashIiESt8equal_toIiESaISt4pairIiiEEED2Ev
FN:605,_ZN7emhash67HashMapIiiSt4hashIiESt8equal_toIiESaISt4pairIiiEEE5beginEv
FNDA:52721,_ZN7emhash67HashMapIiiSt4hashIiESt8equal_toIiESaISt4pairIiiEEE5beginEv
FN:605,_ZN7emhash67HashMapIliSt4hashIlESt8equal_toIlESaISt4pairIliEEE5beginEv
FNDA:2000,_ZN7emhash67HashMapIliSt4hashIlESt8equal_toIlESaISt4pairIliEEE5beginEv
FN:622,_ZNK7emhash67HashMapIiiSt4hashIiESt8equal_toIiESaISt4pairIiiEEE6cbeginEv
FNDA:0,_ZNK7emhash67HashMapIiiSt4hashIiESt8equal_toIiESaISt4pairIiiEEE6cbeginEv
FN:622,_ZNK7emhash67HashMapIliSt4hashIlESt8equal_toIlESaISt4pairIliEEE6cbeginEv
FNDA:0,_ZNK7emhash67HashMapIliSt4hashIlESt8equal_toIlESaISt4pairIliEEE6cbeginEv
FN:651,_ZN7emhash67HashMapIliSt4hashIlESt8equal_toIlESaISt4pairIliEEE3endEv
FNDA:1502000,_ZN7emhash67HashMapIliSt4hashIlESt8equal_toIlESaISt4pairIliEEE3endEv
FN:651,_ZN7emhash67HashMapIiiSt4hashIiESt8equal_toIiESaISt4pairIiiEEE3endEv
FNDA:193021,_ZN7emhash67HashMapIiiSt4hashIiESt8equal_toIiESaISt4pairIiiEEE3endEv
FN:655,_ZNK7emhash67HashMapIiiSt4hashIiESt8equal_toIiESaISt4pairIiiEEE4sizeEv
FNDA:51721,_ZNK7emhash67HashMapIiiSt4hashIiESt8equal_toIiESaISt4pairIiiEEE4sizeEv
FN:655,_ZNK7emhash67HashMapIliSt4hashIlESt8equal_toIlESaISt4pairIliEEE4sizeEv
FNDA:3000,_ZNK7emhash67HashMapIliSt4hashIlESt8equal_toIlESaISt4pairIliEEE4sizeEv
FN:658,_ZNK7emhash67HashMapIiiSt4hashIiESt8equal_toIiESaISt4pairIiiEEE12bucket_countEv
FNDA:53617,_ZNK7emhash67HashMapIiiSt4hashIiESt8equal_toIiESaISt4pairIiiEEE12bucket_countEv
FN:658,_ZNK7emhash67HashMapIliSt4hashIlESt8equal_toIlESaISt4pairIliEEE12bucket_countEv
FNDA:4000,_ZNK7emhash67HashMapIliSt4hashIlESt8equal_toIlESaISt4pairIliEEE12bucket_countEv
FN:665,_ZN7emhash67HashMapIliSt4hashIlESt8equal_toIlESaISt4pairIliEEE15max_load_factorEf
FNDA:3000,_ZN7emhash67HashMapIliSt4hashIlESt8equal_toIlESaISt4pairIliEEE15max_load_factorEf
FN:665,_ZN7emhash67HashMapIiiSt4hashIiESt8equal_toIiESaISt4pairIiiEEE15max_load_factorEf
FNDA:3000,_ZN7emhash67HashMapIiiSt4hashIiESt8equal_toIiESaISt4pairIiiEEE15max_load_factorEf
FN:671,_ZNK7emhash67HashMapIliSt4hashIlESt8equal_toIlESaISt4pairIliEEE8max_sizeEv
FNDA:22000,_ZNK7emhash67HashMapIliSt4hashIlESt8equal_toIlESaISt4pairIliEEE8max_sizeEv
FN:671,_ZNK7emhash67HashMapIiiSt4hashIiESt8equal_toIiESaISt4pairIiiEEE8max_sizeEv
FNDA:40000,_ZNK7emhash67HashMapIiiSt4hashIiESt8equal_toIiESaISt4pairIiiEEE8max_sizeEv
FN:804,_ZN7emhash67HashMapIliSt4hashIlESt8equal_toIlESaISt4pairIliEEE4findIlEENS8_8iteratorERKT_
FNDA:1500000,_ZN7emhash67HashMapIliSt4hashIlESt8equal_toIlESaISt4pairIliEEE4findIlEENS8_8iteratorERKT_
FN:804,_ZN7emhash67HashMapIiiSt4hashIiESt8equal_toIiESaISt4pairIiiEEE4findIiEENS8_8iteratorERKT_
FNDA:270248,_ZN7emhash67HashMapIiiSt4hashIiESt8equal_toIiESaISt4pairIiiEEE4findIiEENS8_8iteratorERKT_
FN:830,_ZNK7emhash67HashMapIliSt4hashIlESt8equal_toIlESaISt4pairIliEEE5countIlEEjRKT_
FNDA:33627,_ZNK7emhash67HashMapIliSt4hashIlESt8equal_toIlESaISt4pairIliEEE5countIlEEjRKT_
FN:830,_ZNK7emhash67HashMapIiiSt4hashIiESt8equal_toIiESaISt4pairIiiEEE5countIiEEjRKT_
FNDA:49696,_ZNK7emhash67HashMapIiiSt4hashIiESt8equal_toIiESaISt4pairIiiEEE5countIiEEjRKT_
FN:912,_ZN7emhash67HashMapIiiSt4hashIiESt8equal_toIiESaISt4pairIiiEEE9do_insertEOS6_
FNDA:170335,_ZN7emhash67HashMapIiiSt4hashIiESt8equal_toIiESaISt4pairIiiEEE9do_insertEOS6_
FN:950,_ZN7emhash67HashMapIiiSt4hashIiESt8equal_toIiESaISt4pairIiiEEE6insertEOS6_
FNDA:170335,_ZN7emhash67HashMapIiiSt4hashIiESt8equal_toIiESaISt4pairIiiEEE6insertEOS6_
FN:1016,_ZN7emhash67HashMapIliSt4hashIlESt8equal_toIlESaISt4pairIliEEEixERKl
FNDA:2483052,_ZN7emhash67HashMapIliSt4hashIlESt8equal_toIlESaISt4pairIliEEEixERKl
FN:1016,_ZN7emhash67HashMapIiiSt4hashIiESt8equal_toIiESaISt4pairIiiEEEixERKi
FNDA:5000000,_ZN7emhash67HashMapIiiSt4hashIiESt8equal_toIiESaISt4pairIiiEEEixERKi
FN:1043,_ZN7emhash67HashMapIliSt4hashIlESt8equal_toIlESaISt4pairIliEEE5eraseIlEEjRKT_
FNDA:33321,_ZN7emhash67HashMapIliSt4hashIlESt8equal_toIlESaISt4pairIliEEE5eraseIlEEjRKT_
FN:1043,_ZN7emhash67HashMapIiiSt4hashIiESt8equal_toIiESaISt4pairIiiEEE5eraseIiEEjRKT_
FNDA:2500000,_ZN7emhash67HashMapIiiSt4hashIiESt8equal_toIiESaISt4pairIiiEEE5eraseIiEEjRKT_
FN:1060,_ZN7emhash67HashMapIiiSt4hashIiESt8equal_toIiESaISt4pairIiiEEE5eraseENS8_8iteratorE
FNDA:1493,_ZN7emhash67HashMapIiiSt4hashIiESt8equal_toIiESaISt4pairIiiEEE5eraseENS8_8iteratorE
FN:1089,_ZN7emhash67HashMapIiiSt4hashIiESt8equal_toIiESaISt4pairIiiEEE18need_explicit_dtorEv
FNDA:7932216,_ZN7emhash67HashMapIiiSt4hashIiESt8equal_toIiESaISt4pairIiiEEE18need_explicit_dtorEv
FN:1089,_ZN7emhash67HashMapIliSt4hashIlESt8equal_toIlESaISt4pairIliEEE18need_explicit_dtorEv
FNDA:1895394,_ZN7emhash67HashMapIliSt4hashIlESt8equal_toIlESaISt4pairIliEEE18need_explicit_dtorEv
FN:1135,_ZN7emhash67HashMapIiiSt4hashIiESt8equal_toIiESaISt4pairIiiEEE7reserveEm
FNDA:5171335,_ZN7emhash67HashMapIiiSt4hashIiESt8equal_toIiESaISt4pairIiiEEE7reserveEm
FN:1135,_ZN7emhash67HashMapIliSt4hashIlESt8equal_toIlESaISt4pairIliEEE7reserveEm
FNDA:2484052,_ZN7emhash67HashMapIliSt4hashIlESt8equal_toIlESaISt4pairIliEEE7reserveEm
FN:1148,_ZN7emhash67HashMapIliSt4hashIlESt8equal_toIlESaISt4pairIliEEE6rehashEm
FNDA:11000,_ZN7emhash67HashMapIliSt4hashIlESt8equal_toIlESaISt4pairIliEEE6rehashEm
FN:1148,_ZN7emhash67HashMapIiiSt4hashIiESt8equal_toIiESaISt4pairIiiEEE6rehashEm
FNDA:20000,_ZN7emhash67HashMapIiiSt4hashIiESt8equal_toIiESaISt4pairIiiEEE6rehashEm
FN:1263,_ZN7emhash67HashMapIliSt4hashIlESt8equal_toIlESaISt4pairIliEEE17check_expand_needEv
FNDA:2483052,_ZN7emhash67HashMapIliSt4hashIlESt8equal_toIlESaISt4pairIliEEE17check_expand_needEv
FN:1263,_ZN7emhash67HashMapIiiSt4hashIiESt8equal_toIiESaISt4pairIiiEEE17check_expand_needEv
FNDA:5170335,_ZN7emhash67HashMapIiiSt4hashIiESt8equal_toIiESaISt4pairIiiEEE17check_expand_needEv
FN:1285,_ZN7emhash67HashMapIliSt4hashIlESt8equal_toIlESaISt4pairIliEEE12clear_bucketEj
FNDA:265394,_ZN7emhash67HashMapIliSt4hashIlESt8equal_toIlESaISt4pairIliEEE12clear_bucketEj
FN:1285,_ZN7emhash67HashMapIiiSt4hashIiESt8equal_toIiESaISt4pairIiiEEE12clear_bucketEj
FNDA:1173216,_ZN7emhash67HashMapIiiSt4hashIiESt8equal_toIiESaISt4pairIiiEEE12clear_bucketEj
FN:1298,_ZN7emhash67HashMapIliSt4hashIlESt8equal_toIlESaISt4pairIliEEE9erase_keyIlLj0EEEjRKT_
FNDA:33321,_ZN7emhash67HashMapIliSt4hashIlESt8equal_toIlESaISt4pairIliEEE9erase_keyIlLj0EEEjRKT_
FN:1298,_ZN7emhash67HashMapIiiSt4hashIiESt8equal_toIiESaISt4pairIiiEEE9erase_keyIiLj0EEEjRKT_
FNDA:2500000,_ZN7emhash67HashMapIiiSt4hashIiESt8equal_toIiESaISt4pairIiiEEE9erase_keyIiLj0EEEjRKT_
FN:1383,_ZN7emhash67HashMapIiiSt4hashIiESt8equal_toIiESaISt4pairIiiEEE12erase_bucketEj
FNDA:1493,_ZN7emhash67HashMapIiiSt4hashIiESt8equal_toIiESaISt4pairIiiEEE12erase_bucketEj
FN:1468,_ZN7emhash67HashMapIiiSt4hashIiESt8equal_toIiESaISt4pairIiiEEE14kickout_bucketEj
FNDA:669520,_ZN7emhash67HashMapIiiSt4hashIiESt8equal_toIiESaISt4pairIiiEEE14kickout_bucketEj
FN:1468,_ZN7emhash67HashMapIliSt4hashIlESt8equal_toIlESaISt4pairIliEEE14kickout_bucketEj
FNDA:265394,_ZN7emhash67HashMapIliSt4hashIlESt8equal_toIlESaISt4pairIliEEE14kickout_bucketEj
FN:1493,_ZN7emhash67HashMapIiiSt4hashIiESt8equal_toIiESaISt4pairIiiEEE16find_or_allocateIiEEjRKT_
FNDA:5170335,_ZN7emhash67HashMapIiiSt4hashIiESt8equal_toIiESaISt4pairIiiEEE16find_or_allocateIiEEjRKT_
FN:1493,_ZN7emhash67HashMapIliSt4hashIlESt8equal_toIlESaISt4pairIliEEE16find_or_allocateIlEEjRKT_
FNDA:2483052,_ZN7emhash67HashMapIliSt4hashIlESt8equal_toIlESaISt4pairIliEEE16find_or_allocateIlEEjRKT_
FN:1585,_ZNK7emhash67HashMapIliSt4hashIlESt8equal_toIlESaISt4pairIliEEE16find_last_bucketEj
FNDA:34955,_ZNK7emhash67HashMapIliSt4hashIlESt8equal_toIlESaISt4pairIliEEE16find_last_bucketEj
FN:1585,_ZNK7emhash67HashMapIiiSt4hashIiESt8equal_toIiESaISt4pairIiiEEE16find_last_bucketEj
FNDA:35898,_ZNK7emhash67HashMapIiiSt4hashIiESt8equal_toIiESaISt4pairIiiEEE16find_last_bucketEj
FN:1598,_ZNK7emhash67HashMapIiiSt4hashIiESt8equal_toIiESaISt4pairIiiEEE16find_prev_bucketEjj
FNDA:669839,_ZNK7emhash67HashMapIiiSt4hashIiESt8equal_toIiESaISt4pairIiiEEE16find_prev_bucketEjj
FN:1598,_ZNK7emhash67HashMapIliSt4hashIlESt8equal_toIlESaISt4pairIliEEE16find_prev_bucketEjj
FNDA:265394,_ZNK7emhash67HashMapIliSt4hashIlESt8equal_toIlESaISt4pairIliEEE16find_prev_bucketEjj
FN:1708,_ZN7emhash67HashMapIliSt4hashIlESt8equal_toIlESaISt4pairIliEEE14AllocPairCountEm
FNDA:22000,_ZN7emhash67HashMapIliSt4hashIlESt8equal_toIlESaISt4pairIliEEE14AllocPairCountEm
FN:1708,_ZN7emhash67HashMapIiiSt4hashIiESt8equal_toIiESaISt4pairIiiEEE14AllocPairCountEm
FNDA:40000,_ZN7emhash67HashMapIiiSt4hashIiESt8equal_toIiESaISt4pairIiiEEE14AllocPairCountEm
FN:1713,_ZN7emhash67HashMapIliSt4hashIlESt8equal_toIlESaISt4pairIliEEE12alloc_bucketEm
FNDA:11000,_ZN7emhash67HashMapIliSt4hashIlESt8equal_toIlESaISt4pairIliEEE12alloc_bucketEm
FN:1713,_ZN7emhash67HashMapIiiSt4hashIiESt8equal_toIiESaISt4pairIiiEEE12alloc_bucketEm
FNDA:20000,_ZN7emhash67HashMapIiiSt4hashIiESt8equal_toIiESaISt4pairIiiEEE12alloc_bucketEm
FN:1723,_ZN7emhash67HashMapIiiSt4hashIiESt8equal_toIiESaISt4pairIiiEEE14dealloc_bucketEPNS_5entryIiiEEm
FNDA:23000,_ZN7emhash67HashMapIiiSt4hashIiESt8equal_toIiESaISt4pairIiiEEE14dealloc_bucketEPNS_5entryIiiEEm
FN:1723,_ZN7emhash67HashMapIliSt4hashIlESt8equal_toIlESaISt4pairIliEEE14dealloc_bucketEPNS_5entryIliEEm
FNDA:13000,_ZN7emhash67HashMapIliSt4hashIlESt8equal_toIlESaISt4pairIliEEE14dealloc_bucketEPNS_5entryIliEEm
DA:132,14144951
DA:152,14144951
DA:157,14144951
DA:164,1628000
DA:165,1628000
DA:166,1628000
DA:164,6924074
DA:165,6924074
DA:166,6924074
DA:174,669520
DA:175,669520
DA:176,669520
DA:174,265394
DA:175,265394
DA:176,265394
DA:179,4010578
DA:180,4010578
DA:181,4010578
DA:179,2481973
DA:180,2481973
DA:181,2481973
DA:183,78594
DA:184,78594
DA:185,78594
DA:186,78594
DA:187,78594
DA:183,0
DA:184,0
DA:185,0
DA:186,0
DA:187,0
DA:284,3004000
DA:284,686325
DA:287,2000
DA:288,2000
DA:289,2000
DA:290,2000
DA:291,2000
DA:292,2000
DA:294,0
DA:296,2000
DA:287,53617
DA:288,53617
DA:289,53617
DA:290,53617
DA:291,53617
DA:292,53617
DA:294,0
DA:296,53617
DA:300,263
DA:301,263
DA:302,253
DA:303,263
DA:305,0
DA:306,0
DA:307,0
DA:305,0
DA:306,0
DA:307,0
DA:310,2481973
DA:312,2481973
DA:313,2000
DA:315,2481973
DA:316,2481973
DA:317,2481973
DA:310,7344864
DA:312,7344864
DA:313,53617
DA:315,7344864
DA:316,7344864
DA:317,7344864
DA:331,7323634
DA:331,2481973
DA:333,3000000
DA:333,20000
DA:335,20000
DA:336,3983973
DA:336,7496655
DA:341,2481973
DA:342,2481973
DA:343,2417973
DA:344,2417973
DA:348,64000
DA:349,64000
DA:350,64000
DA:352,64000
DA:341,7344864
DA:342,7344864
DA:343,7109366
DA:344,7109366
DA:348,235498
DA:349,235498
DA:350,235498
DA:352,235498
DA:371,0
DA:371,0
DA:376,0
DA:377,0
DA:378,0
DA:376,0
DA:377,0
DA:378,0
DA:381,0
DA:382,0
DA:383,0
DA:384,0
DA:385,0
DA:386,0
DA:388,0
DA:390,0
DA:381,0
DA:382,0
DA:383,0
DA:384,0
DA:385,0
DA:386,0
DA:388,0
DA:390,0
DA:394,0
DA:396,0
DA:397,0
DA:399,0
DA:400,0
DA:394,0
DA:396,0
DA:397,0
DA:399,0
DA:400,0
DA:415,0
DA:415,0
DA:421,0
DA:422,0
DA:423,0
DA:424,0
DA:425,0
DA:429,0
DA:430,0
DA:431,0
DA:433,0
DA:421,0
DA:422,0
DA:423,0
DA:424,0
DA:425,0
DA:429,0
DA:430,0
DA:431,0
DA:433,0
DA:443,2000
DA:447,2000
DA:448,2000
DA:449,2000
DA:450,2000
DA:451,2000
DA:452,2000
DA:453,2000
DA:454,2000
DA:443,3000
DA:447,3000
DA:448,3000
DA:449,3000
DA:450,3000
DA:451,3000
DA:452,3000
DA:453,3000
DA:454,3000
DA:456,2000
DA:456,3000
DA:550,2000
DA:551,2000
DA:552,0
DA:553,0
DA:554,0
DA:557,2000
DA:558,2000
DA:559,2000
DA:550,3000
DA:551,3000
DA:552,0
DA:553,0
DA:554,0
DA:557,3000
DA:558,3000
DA:559,3000
DA:605,2000
DA:612,2000
DA:613,2000
DA:614,2000
DA:615,2000
DA:617,0
DA:618,0
DA:619,0
DA:605,52721
DA:612,52721
DA:613,52721
DA:614,52721
DA:615,52721
DA:617,0
DA:618,0
DA:619,0
DA:622,0
DA:629,0
DA:630,0
DA:631,0
DA:632,0
DA:634,0
DA:635,0
DA:636,0
DA:622,0
DA:629,0
DA:630,0
DA:631,0
DA:632,0
DA:634,0
DA:635,0
DA:636,0
DA:651,1502000
DA:651,193021
DA:655,51721
DA:655,3000
DA:658,53617
DA:658,4000
DA:665,3000
DA:666,3000
DA:667,3000
DA:668,3000
DA:665,3000
DA:666,3000
DA:667,3000
DA:668,3000
DA:671,22000
DA:671,40000
DA:804,1500000
DA:805,1500000
DA:804,270248
DA:805,270248
DA:830,49696
DA:831,49696
DA:830,33627
DA:831,33627
DA:912,170335
DA:913,170335
DA:914,170335
DA:915,170335
DA:916,170335
DA:917,168074
DA:919,170335
DA:950,170335
DA:951,170335
DA:952,170335
DA:1016,5000000
DA:1017,5000000
DA:1018,5000000
DA:1019,5000000
DA:1021,5000000
DA:1022,4010578
DA:1026,5000000
DA:1016,2483052
DA:1017,2483052
DA:1018,2483052
DA:1019,2483052
DA:1021,2483052
DA:1022,2481973
DA:1026,2483052
DA:1043,2500000
DA:1044,2500000
DA:1045,2500000
DA:1046,1997797
DA:1048,502203
DA:1049,502203
DA:1043,33321
DA:1044,33321
DA:1045,33321
DA:1046,33321
DA:1048,0
DA:1049,0
DA:1060,1493
DA:1061,1493
DA:1062,1493
DA:1063,1493
DA:1064,1230
DA:1067,263
DA:1068,263
DA:1089,1895394
DA:1091,1895394
DA:1089,7932216
DA:1091,7932216
DA:1135,2484052
DA:1136,2484052
DA:1137,2484052
DA:1138,2475052
DA:1143,9000
DA:1144,9000
DA:1135,5171335
DA:1136,5171335
DA:1137,5171335
DA:1138,5154335
DA:1143,17000
DA:1144,17000
DA:1148,11000
DA:1149,11000
DA:1150,0
DA:1151,11000
DA:1152,55000
DA:1153,44000
DA:1161,11000
DA:1162,0
DA:1165,11000
DA:1167,11000
DA:1168,11000
DA:1169,11000
DA:1171,11000
DA:1173,11000
DA:1174,11000
DA:1175,11000
DA:1176,0
DA:1177,0
DA:1180,11000
DA:1181,11000
DA:1182,11000
DA:1190,11000
DA:1198,11000
DA:1201,11000
DA:1202,11000
DA:1203,11000
DA:1204,11000
DA:1205,0
DA:1213,2042041
DA:1214,2037472
DA:1215,409472
DA:1217,1628000
DA:1218,1628000
DA:1219,1628000
DA:1224,1628000
DA:1225,0
DA:1227,1628000
DA:1228,6431
DA:1230,0
DA:1231,0
DA:1232,0
DA:1257,11000
DA:1258,11000
DA:1148,20000
DA:1149,20000
DA:1150,0
DA:1151,20000
DA:1152,93000
DA:1153,73000
DA:1161,20000
DA:1162,0
DA:1165,20000
DA:1167,20000
DA:1168,20000
DA:1169,20000
DA:1171,20000
DA:1173,20000
DA:1174,20000
DA:1175,20000
DA:1176,0
DA:1177,0
DA:1180,20000
DA:1181,20000
DA:1182,20000
DA:1190,20000
DA:1198,20000
DA:1201,20000
DA:1202,20000
DA:1203,20000
DA:1204,20000
DA:1205,0
DA:1213,8457044
DA:1214,8450676
DA:1215,1694676
DA:1217,6756000
DA:1218,6756000
DA:1219,6756000
DA:1224,6756000
DA:1225,0
DA:1227,6756000
DA:1228,13632
DA:1230,0
DA:1231,0
DA:1232,0
DA:1257,20000
DA:1258,20000
DA:1263,2483052
DA:1270,2483052
DA:1263,5170335
DA:1270,5170335
DA:1285,1173216
DA:1286,1173216
DA:1287,1173216
DA:1288,1173216
DA:1289,0
DA:1291,1173216
DA:1295,1173216
DA:1285,265394
DA:1286,265394
DA:1287,265394
DA:1288,265394
DA:1289,0
DA:1291,265394
DA:1295,265394
DA:1298,2500000
DA:1299,2500000
DA:1300,5000000
DA:1301,2500000
DA:1303,2500000
DA:1304,940508
DA:1308,940508
DA:1310,1559492
DA:1311,1281623
DA:1312,277869
DA:1313,78331
DA:1314,78331
DA:1315,78331
DA:1316,78331
DA:1317,78331
DA:1320,199538
DA:1321,199538
DA:1322,20303
DA:1323,219841
DA:1324,219841
DA:1325,84965
DA:1326,84965
DA:1327,84965
DA:1330,134876
DA:1331,114573
DA:1332,20303
DA:1333,20303
DA:1336,114573
DA:1298,33321
DA:1299,33321
DA:1300,66642
DA:1301,33321
DA:1303,33321
DA:1304,9781
DA:1308,9781
DA:1310,23540
DA:1311,20839
DA:1312,2701
DA:1313,0
DA:1314,0
DA:1315,0
DA:1316,0
DA:1317,0
DA:1320,2701
DA:1321,2701
DA:1322,457
DA:1323,3158
DA:1324,3158
DA:1325,0
DA:1326,0
DA:1327,0
DA:1330,3158
DA:1331,2701
DA:1332,457
DA:1333,457
DA:1336,2701
DA:1383,1493
DA:1384,1493
DA:1385,1493
DA:1389,911
DA:1390,582
DA:1391,263
DA:1392,263
DA:1393,263
DA:1394,263
DA:1395,263
DA:1398,319
DA:1399,319
DA:1400,319
DA:1401,319
DA:1402,319
DA:1403,267
DA:1405,52
DA:1406,319
DA:1411,1853571
DA:1412,1853571
DA:1413,1853571
DA:1415,1853571
DA:1416,192681
DA:1417,1660890
DA:1418,1082467
DA:1419,578423
DA:1420,103369
DA:1443,475054
DA:1444,119458
DA:1445,594512
DA:1446,441902
DA:1448,152610
DA:1449,152610
DA:1450,33152
DA:1451,119458
DA:1461,3707142
DA:1468,669520
DA:1469,669520
DA:1470,669520
DA:1471,669520
DA:1472,669520
DA:1473,669520
DA:1474,669520
DA:1475,669520
DA:1476,601768
DA:1478,669520
DA:1482,669520
DA:1483,669520
DA:1484,669520
DA:1468,265394
DA:1469,265394
DA:1470,265394
DA:1471,265394
DA:1472,265394
DA:1473,265394
DA:1474,265394
DA:1475,265394
DA:1476,220853
DA:1478,265394
DA:1482,265394
DA:1483,265394
DA:1484,265394
DA:1493,5170335
DA:1494,10340670
DA:1495,5170335
DA:1502,5170335
DA:1503,2865115
DA:1507,2305220
DA:1508,1263031
DA:1509,1042189
DA:1510,631474
DA:1513,410715
DA:1515,39829
DA:1516,450544
DA:1521,171346
DA:1525,279198
DA:1526,279198
DA:1527,239369
DA:1528,39829
DA:1533,239369
DA:1534,239369
DA:1493,2483052
DA:1494,4966104
DA:1495,2483052
DA:1502,2483052
DA:1503,1375636
DA:1507,1107416
DA:1508,654505
DA:1509,452911
DA:1510,248034
DA:1513,204877
DA:1515,42957
DA:1516,247834
DA:1521,255
DA:1525,247579
DA:1526,247579
DA:1527,204622
DA:1528,42957
DA:1533,204622
DA:1534,204622
DA:1551,4263393
DA:1552,4263393
DA:1554,4263393
DA:1555,4263393
DA:1557,4263393
DA:1558,4186096
DA:1560,77297
DA:1568,77297
DA:1569,2
DA:1570,77299
DA:1571,77299
DA:1572,74944
DA:1574,2355
DA:1575,2355
DA:1576,2355
DA:1577,2353
DA:1578,2353
DA:1580,2
DA:1585,34955
DA:1586,34955
DA:1587,34955
DA:1588,31742
DA:1590,253
DA:1591,3466
DA:1592,3466
DA:1593,3213
DA:1594,253
DA:1585,35898
DA:1586,35898
DA:1587,35898
DA:1588,34225
DA:1590,77
DA:1591,1750
DA:1592,1750
DA:1593,1673
DA:1594,77
DA:1598,265394
DA:1599,265394
DA:1600,265394
DA:1601,221496
DA:1603,6808
DA:1604,50706
DA:1605,50706
DA:1606,43898
DA:1607,6808
DA:1598,669839
DA:1599,669839
DA:1600,669839
DA:1601,602654
DA:1603,4536
DA:1604,71721
DA:1605,71721
DA:1606,67185
DA:1607,4536
DA:1612,16768000
DA:1613,8384000
DA:1614,8384000
DA:1618,7361642
DA:1622,1022358
DA:1623,896099
DA:1624,126259
DA:1625,55406
DA:1627,70853
DA:1629,70853
DA:1672,935233
DA:1683,21359512
DA:1708,22000
DA:1709,22000
DA:1710,22000
DA:1708,40000
DA:1709,40000
DA:1710,40000
DA:1713,11000
DA:1714,11000
DA:1715,0
DA:1716,11000
DA:1717,11000
DA:1718,11000
DA:1719,0
DA:1720,11000
DA:1713,20000
DA:1714,20000
DA:1715,0
DA:1716,20000
DA:1717,20000
DA:1718,20000
DA:1719,0
DA:1720,20000
DA:1723,13000
DA:1724,13000
DA:1725,11000
DA:1726,11000
DA:1728,13000
DA:1723,23000
DA:1724,23000
DA:1725,20000
DA:1726,20000
DA:1728,23000
end_of_record
SF:/mnt/d/emhash/include/emhash/hash_table7.hpp
FN:181,_ZN7emhash7L3CTZEm
FNDA:14172183,_ZN7emhash7L3CTZEm
FN:216,_ZN7emhash75entryIiiEC2EOiS2_j
FNDA:6959074,_ZN7emhash75entryIiiEC2EOiS2_j
FN:216,_ZN7emhash75entryIliEC2EOlOij
FNDA:1642000,_ZN7emhash75entryIliEC2EOlOij
FN:221,_ZN7emhash75entryIliEC2IRKliEEOT_OT0_j
FNDA:2481973,_ZN7emhash75entryIliEC2IRKliEEOT_OT0_j
FN:221,_ZN7emhash75entryIiiEC2IRKiiEEOT_OT0_j
FNDA:4010578,_ZN7emhash75entryIiiEC2IRKiiEEOT_OT0_j
FN:237,_ZN7emhash75entryIliEC2EOS1_
FNDA:267377,_ZN7emhash75entryIliEC2EOS1_
FN:237,_ZN7emhash75entryIiiEC2EOS1_
FNDA:674063,_ZN7emhash75entryIiiEC2EOS1_
FN:246,_ZN7emhash75entryIiiEaSERKS1_
FNDA:78662,_ZN7emhash75entryIiiEaSERKS1_
FN:246,_ZN7emhash75entryIliEaSERKS1_
FNDA:0,_ZN7emhash75entryIliEaSERKS1_
FN:260,_ZN7emhash75entryIiiE4swapERS1_
FNDA:0,_ZN7emhash75entryIiiE4swapERS1_
FN:260,_ZN7emhash75entryIliE4swapERS1_
FNDA:0,_ZN7emhash75entryIliE4swapERS1_
FN:348,_ZN7emhash77HashMapIliSt4hashIlESt8equal_toIlESaISt4pairIliEEE8iteratorC2EPKS8_j
FNDA:3004000,_ZN7emhash77HashMapIliSt4hashIlESt8equal_toIlESaISt4pairIliEEE8iteratorC2EPKS8_j
FN:348,_ZN7emhash77HashMapIiiSt4hashIiESt8equal_toIiESaISt4pairIiiEEE8iteratorC2EPKS8_j
FNDA:686325,_ZN7emhash77HashMapIiiSt4hashIiESt8equal_toIiESaISt4pairIiiEEE8iteratorC2EPKS8_j
FN:353,_ZN7emhash77HashMapIliSt4hashIlESt8equal_toIlESaISt4pairIliEEE8iterator4initEv
FNDA:2000,_ZN7emhash77HashMapIliSt4hashIlESt8equal_toIlESaISt4pairIliEEE8iterator4initEv
FN:353,_ZN7emhash77HashMapIiiSt4hashIiESt8equal_toIiESaISt4pairIiiEEE8iterator4initEv
FNDA:53601,_ZN7emhash77HashMapIiiSt4hashIiESt8equal_toIiESaISt4pairIiiEEE8iterator4initEv
FN:366,_ZN7emhash77HashMapIiiSt4hashIiESt8equal_toIiESaISt4pairIiiEEE8iterator5clearEj
FNDA:279,_ZN7emhash77HashMapIiiSt4hashIiESt8equal_toIiESaISt4pairIiiEEE8iterator5clearEj
FN:371,_ZN7emhash77HashMapIliSt4hashIlESt8equal_toIlESaISt4pairIliEEE8iterator4nextEv
FNDA:0,_ZN7emhash77HashMapIliSt4hashIlESt8equal_toIlESaISt4pairIliEEE8iterator4nextEv
FN:371,_ZN7emhash77HashMapIiiSt4hashIiESt8equal_toIiESaISt4pairIiiEEE8iterator4nextEv
FNDA:0,_ZN7emhash77HashMapIiiSt4hashIiESt8equal_toIiESaISt4pairIiiEEE8iterator4nextEv
FN:376,_ZN7emhash77HashMapIliSt4hashIlESt8equal_toIlESaISt4pairIliEEE8iteratorppEv
FNDA:2481973,_ZN7emhash77HashMapIliSt4hashIlESt8equal_toIlESaISt4pairIliEEE8iteratorppEv
FN:376,_ZN7emhash77HashMapIiiSt4hashIiESt8equal_toIiESaISt4pairIiiEEE8iteratorppEv
FNDA:7344848,_ZN7emhash77HashMapIiiSt4hashIiESt8equal_toIiESaISt4pairIiiEEE8iteratorppEv
FN:397,_ZNK7emhash77HashMapIliSt4hashIlESt8equal_toIlESaISt4pairIliEEE8iteratordeEv
FNDA:2481973,_ZNK7emhash77HashMapIliSt4hashIlESt8equal_toIlESaISt4pairIliEEE8iteratordeEv
FN:397,_ZNK7emhash77HashMapIiiSt4hashIiESt8equal_toIiESaISt4pairIiiEEE8iteratordeEv
FNDA:7323634,_ZNK7emhash77HashMapIiiSt4hashIiESt8equal_toIiESaISt4pairIiiEEE8iteratordeEv
FN:399,_ZNK7emhash77HashMapIiiSt4hashIiESt8equal_toIiESaISt4pairIiiEEE8iteratorptEv
FNDA:20000,_ZNK7emhash77HashMapIiiSt4hashIiESt8equal_toIiESaISt4pairIiiEEE8iteratorptEv
FN:399,_ZNK7emhash77HashMapIliSt4hashIlESt8equal_toIlESaISt4pairIliEEE8iteratorptEv
FNDA:3000000,_ZNK7emhash77HashMapIliSt4hashIlESt8equal_toIlESaISt4pairIliEEE8iteratorptEv
FN:401,_ZNK7emhash77HashMapIiiSt4hashIiESt8equal_toIiESaISt4pairIiiEEE8iteratoreqERKS9_
FNDA:20000,_ZNK7emhash77HashMapIiiSt4hashIiESt8equal_toIiESaISt4pairIiiEEE8iteratoreqERKS9_
FN:402,_ZNK7emhash77HashMapIliSt4hashIlESt8equal_toIlESaISt4pairIliEEE8iteratorneERKS9_
FNDA:3983973,_ZNK7emhash77HashMapIliSt4hashIlESt8equal_toIlESaISt4pairIliEEE8iteratorneERKS9_
FN:402,_ZNK7emhash77HashMapIiiSt4hashIiESt8equal_toIiESaISt4pairIiiEEE8iteratorneERKS9_
FNDA:7496655,_ZNK7emhash77HashMapIiiSt4hashIiESt8equal_toIiESaISt4pairIiiEEE8iteratorneERKS9_
FN:407,_ZN7emhash77HashMapIiiSt4hashIiESt8equal_toIiESaISt4pairIiiEEE8iterator17goto_next_elementEv
FNDA:7344848,_ZN7emhash77HashMapIiiSt4hashIiESt8equal_toIiESaISt4pairIiiEEE8iterator17goto_next_elementEv
FN:407,_ZN7emhash77HashMapIliSt4hashIlESt8equal_toIlESaISt4pairIliEEE8iterator17goto_next_elementEv
FNDA:2481973,_ZN7emhash77HashMapIliSt4hashIlESt8equal_toIlESaISt4pairIliEEE8iterator17goto_next_elementEv
FN:437,_ZN7emhash77HashMapIliSt4hashIlESt8equal_toIlESaISt4pairIliEEE14const_iteratorC2ERKNS8_8iteratorE
FNDA:0,_ZN7emhash77HashMapIliSt4hashIlESt8equal_toIlESaISt4pairIliEEE14const_iteratorC2ERKNS8_8iteratorE
FN:437,_ZN7emhash77HashMapIiiSt4hashIiESt8equal_toIiESaISt4pairIiiEEE14const_iteratorC2ERKNS8_8iteratorE
FNDA:0,_ZN7emhash77HashMapIiiSt4hashIiESt8equal_toIiESaISt4pairIiiEEE14const_iteratorC2ERKNS8_8iteratorE
FN:442,_ZN7emhash77HashMapIliSt4hashIlESt8equal_toIlESaISt4pairIliEEE14const_iteratorC2EPKS8_j
FNDA:0,_ZN7emhash77HashMapIliSt4hashIlESt8equal_toIlESaISt4pairIliEEE14const_iteratorC2EPKS8_j
FN:442,_ZN7emhash77HashMapIiiSt4hashIiESt8equal_toIiESaISt4pairIiiEEE14const_iteratorC2EPKS8_j
FNDA:0,_ZN7emhash77HashMapIiiSt4hashIiESt8equal_toIiESaISt4pairIiiEEE14const_iteratorC2EPKS8_j
FN:447,_ZN7emhash77HashMapIliSt4hashIlESt8equal_toIlESaISt4pairIliEEE14const_iterator4initEv
FNDA:0,_ZN7emhash77HashMapIliSt4hashIlESt8equal_toIlESaISt4pairIliEEE14const_iterator4initEv
FN:447,_ZN7emhash77HashMapIiiSt4hashIiESt8equal_toIiESaISt4pairIiiEEE14const_iterator4initEv
FNDA:0,_ZN7emhash77HashMapIiiSt4hashIiESt8equal_toIiESaISt4pairIiiEEE14const_iterator4initEv
FN:460,_ZN7emhash77HashMapIliSt4hashIlESt8equal_toIlESaISt4pairIliEEE14const_iteratorppEv
FNDA:0,_ZN7emhash77HashMapIliSt4hashIlESt8equal_toIlESaISt4pairIliEEE14const_iteratorppEv
FN:460,_ZN7emhash77HashMapIiiSt4hashIiESt8equal_toIiESaISt4pairIiiEEE14const_iteratorppEv
FNDA:0,_ZN7emhash77HashMapIiiSt4hashIiESt8equal_toIiESaISt4pairIiiEEE14const_iteratorppEv
FN:481,_ZNK7emhash77HashMapIiiSt4hashIiESt8equal_toIiESaISt4pairIiiEEE14const_iteratorptEv
FNDA:0,_ZNK7emhash77HashMapIiiSt4hashIiESt8equal_toIiESaISt4pairIiiEEE14const_iteratorptEv
FN:481,_ZNK7emhash77HashMapIliSt4hashIlESt8equal_toIlESaISt4pairIliEEE14const_iteratorptEv
FNDA:0,_ZNK7emhash77HashMapIliSt4hashIlESt8equal_toIlESaISt4pairIliEEE14const_iteratorptEv
FN:487,_ZN7emhash77HashMapIliSt4hashIlESt8equal_toIlESaISt4pairIliEEE14const_iterator17goto_next_elementEv
FNDA:0,_ZN7emhash77HashMapIliSt4hashIlESt8equal_toIlESaISt4pairIliEEE14const_iterator17goto_next_elementEv
FN:487,_ZN7emhash77HashMapIiiSt4hashIiESt8equal_toIiESaISt4pairIiiEEE14const_iterator17goto_next_elementEv
FNDA:0,_ZN7emhash77HashMapIiiSt4hashIiESt8equal_toIiESaISt4pairIiiEEE14const_iterator17goto_next_elementEv
FN:509,_ZN7emhash77HashMapIliSt4hashIlESt8equal_toIlESaISt4pairIliEEE4initEjf
FNDA:2000,_ZN7emhash77HashMapIliSt4hashIlESt8equal_toIlESaISt4pairIliEEE4initEjf
FN:509,_ZN7emhash77HashMapIiiSt4hashIiESt8equal_toIiESaISt4pairIiiEEE4initEjf
FNDA:3000,_ZN7emhash77HashMapIiiSt4hashIiESt8equal_toIiESaISt4pairIiiEEE4initEjf
FN:518,_ZN7emhash77HashMapIiiSt4hashIiESt8equal_toIiESaISt4pairIiiEEEC2Ejf
FNDA:3000,_ZN7emhash77HashMapIiiSt4hashIiESt8equal_toIiESaISt4pairIiiEEEC2Ejf
FN:518,_ZN7emhash77HashMapIliSt4hashIlESt8equal_toIlESaISt4pairIliEEEC2Ejf
FNDA:2000,_ZN7emhash77HashMapIliSt4hashIlESt8equal_toIlESaISt4pairIliEEEC2Ejf
FN:524,_ZN7emhash77HashMapIliSt4hashIlESt8equal_toIlESaISt4pairIliEEE9AllocSizeEm
FNDA:26000,_ZN7emhash77HashMapIliSt4hashIlESt8equal_toIlESaISt4pairIliEEE9AllocSizeEm
FN:524,_ZN7emhash77HashMapIiiSt4hashIiESt8equal_toIiESaISt4pairIiiEEE9AllocSizeEm
FNDA:52000,_ZN7emhash77HashMapIiiSt4hashIiESt8equal_toIiESaISt4pairIiiEEE9AllocSizeEm
FN:528,_ZN7emhash77HashMapIiiSt4hashIiESt8equal_toIiESaISt4pairIiiEEE11alloc_countEj
FNDA:52000,_ZN7emhash77HashMapIiiSt4hashIiESt8equal_toIiESaISt4pairIiiEEE11alloc_countEj
FN:528,_ZN7emhash77HashMapIliSt4hashIlESt8equal_toIlESaISt4pairIliEEE11alloc_countEj
FNDA:26000,_ZN7emhash77HashMapIliSt4hashIlESt8equal_toIlESaISt4pairIliEEE11alloc_countEj
FN:532,_ZN7emhash77HashMapIliSt4hashIlESt8equal_toIlESaISt4pairIliEEE12alloc_bucketEj
FNDA:13000,_ZN7emhash77HashMapIliSt4hashIlESt8equal_toIlESaISt4pairIliEEE12alloc_bucketEj
FN:532,_ZN7emhash77HashMapIiiSt4hashIiESt8equal_toIiESaISt4pairIiiEEE12alloc_bucketEj
FNDA:26000,_ZN7emhash77HashMapIiiSt4hashIiESt8equal_toIiESaISt4pairIiiEEE12alloc_bucketEj
FN:542,_ZN7emhash77HashMapIiiSt4hashIiESt8equal_toIiESaISt4pairIiiEEE14dealloc_bucketEPNS_5entryIiiEEj
FNDA:29000,_ZN7emhash77HashMapIiiSt4hashIiESt8equal_toIiESaISt4pairIiiEEE14dealloc_bucketEPNS_5entryIiiEEj
FN:542,_ZN7emhash77HashMapIliSt4hashIlESt8equal_toIlESaISt4pairIliEEE14dealloc_bucketEPNS_5entryIliEEj
FNDA:15000,_ZN7emhash77HashMapIliSt4hashIlESt8equal_toIlESaISt4pairIliEEE14dealloc_bucketEPNS_5entryIliEEj
FN:633,_ZN7emhash77HashMapIliSt4hashIlESt8equal_toIlESaISt4pairIliEEED2Ev
FNDA:2000,_ZN7emhash77HashMapIliSt4hashIlESt8equal_toIlESaISt4pairIliEEED2Ev
FN:633,_ZN7emhash77HashMapIiiSt4hashIiESt8equal_toIiESaISt4pairIiiEEED2Ev
FNDA:3000,_ZN7emhash77HashMapIiiSt4hashIiESt8equal_toIiESaISt4pairIiiEEED2Ev
FN:682,_ZN7emhash77HashMapIiiSt4hashIiESt8equal_toIiESaISt4pairIiiEEE5beginEv
FNDA:52721,_ZN7emhash77HashMapIiiSt4hashIiESt8equal_toIiESaISt4pairIiiEEE5beginEv
FN:682,_ZN7emhash77HashMapIliSt4hashIlESt8equal_toIlESaISt4pairIliEEE5beginEv
FNDA:2000,_ZN7emhash77HashMapIliSt4hashIlESt8equal_toIlESaISt4pairIliEEE5beginEv
FN:699,_ZNK7emhash77HashMapIiiSt4hashIiESt8equal_toIiESaISt4pairIiiEEE6cbeginEv
FNDA:0,_ZNK7emhash77HashMapIiiSt4hashIiESt8equal_toIiESaISt4pairIiiEEE6cbeginEv
FN:699,_ZNK7emhash77HashMapIliSt4hashIlESt8equal_toIlESaISt4pairIliEEE6cbeginEv
FNDA:0,_ZNK7emhash77HashMapIliSt4hashIlESt8equal_toIlESaISt4pairIliEEE6cbeginEv
FN:728,_ZN7emhash77HashMapIiiSt4hashIiESt8equal_toIiESaISt4pairIiiEEE3endEv
FNDA:193021,_ZN7emhash77HashMapIiiSt4hashIiESt8equal_toIiESaISt4pairIiiEEE3endEv
FN:728,_ZN7emhash77HashMapIliSt4hashIlESt8equal_toIlESaISt4pairIliEEE3endEv
FNDA:1502000,_ZN7emhash77HashMapIliSt4hashIlESt8equal_toIlESaISt4pairIliEEE3endEv
FN:732,_ZNK7emhash77HashMapIliSt4hashIlESt8equal_toIlESaISt4pairIliEEE4sizeEv
FNDA:3000,_ZNK7emhash77HashMapIliSt4hashIlESt8equal_toIlESaISt4pairIliEEE4sizeEv
FN:732,_ZNK7emhash77HashMapIiiSt4hashIiESt8equal_toIiESaISt4pairIiiEEE4sizeEv
FNDA:51721,_ZNK7emhash77HashMapIiiSt4hashIiESt8equal_toIiESaISt4pairIiiEEE4sizeEv
FN:735,_ZNK7emhash77HashMapIiiSt4hashIiESt8equal_toIiESaISt4pairIiiEEE12bucket_countEv
FNDA:53601,_ZNK7emhash77HashMapIiiSt4hashIiESt8equal_toIiESaISt4pairIiiEEE12bucket_countEv
FN:735,_ZNK7emhash77HashMapIliSt4hashIlESt8equal_toIlESaISt4pairIliEEE12bucket_countEv
FNDA:4000,_ZNK7emhash77HashMapIliSt4hashIlESt8equal_toIlESaISt4pairIliEEE12bucket_countEv
FN:742,_ZN7emhash77HashMapIliSt4hashIlESt8equal_toIlESaISt4pairIliEEE15max_load_factorEf
FNDA:3000,_ZN7emhash77HashMapIliSt4hashIlESt8equal_toIlESaISt4pairIliEEE15max_load_factorEf
FN:742,_ZN7emhash77HashMapIiiSt4hashIiESt8equal_toIiESaISt4pairIiiEEE15max_load_factorEf
FNDA:3000,_ZN7emhash77HashMapIiiSt4hashIiESt8equal_toIiESaISt4pairIiiEEE15max_load_factorEf
FN:748,_ZNK7emhash77HashMapIliSt4hashIlESt8equal_toIlESaISt4pairIliEEE8max_sizeEv
FNDA:78000,_ZNK7emhash77HashMapIliSt4hashIlESt8equal_toIlESaISt4pairIliEEE8max_sizeEv
FN:748,_ZNK7emhash77HashMapIiiSt4hashIiESt8equal_toIiESaISt4pairIiiEEE8max_sizeEv
FNDA:142000,_ZNK7emhash77HashMapIiiSt4hashIiESt8equal_toIiESaISt4pairIiiEEE8max_sizeEv
FN:928,_ZN7emhash77HashMapIiiSt4hashIiESt8equal_toIiESaISt4pairIiiEEE4findIiEENS8_8iteratorERKT_
FNDA:270248,_ZN7emhash77HashMapIiiSt4hashIiESt8equal_toIiESaISt4pairIiiEEE4findIiEENS8_8iteratorERKT_
FN:928,_ZN7emhash77HashMapIliSt4hashIlESt8equal_toIlESaISt4pairIliEEE4findIlEENS8_8iteratorERKT_
FNDA:1500000,_ZN7emhash77HashMapIliSt4hashIlESt8equal_toIlESaISt4pairIliEEE4findIlEENS8_8iteratorERKT_
FN:954,_ZNK7emhash77HashMapIliSt4hashIlESt8equal_toIlESaISt4pairIliEEE5countIlEEjRKT_
FNDA:33627,_ZNK7emhash77HashMapIliSt4hashIlESt8equal_toIlESaISt4pairIliEEE5countIlEEjRKT_
FN:954,_ZNK7emhash77HashMapIiiSt4hashIiESt8equal_toIiESaISt4pairIiiEEE5countIiEEjRKT_
FNDA:49696,_ZNK7emhash77HashMapIiiSt4hashIiESt8equal_toIiESaISt4pairIiiEEE5countIiEEjRKT_
FN:1045,_ZN7emhash77HashMapIiiSt4hashIiESt8equal_toIiESaISt4pairIiiEEE9do_insertEOS6_
FNDA:170335,_ZN7emhash77HashMapIiiSt4hashIiESt8equal_toIiESaISt4pairIiiEEE9do_insertEOS6_
FN:1068,_ZN7emhash77HashMapIiiSt4hashIiESt8equal_toIiESaISt4pairIiiEEE6insertEOS6_
FNDA:170335,_ZN7emhash77HashMapIiiSt4hashIiESt8equal_toIiESaISt4pairIiiEEE6insertEOS6_
FN:1135,_ZN7emhash77HashMapIliSt4hashIlESt8equal_toIlESaISt4pairIliEEEixERKl
FNDA:2483052,_ZN7emhash77HashMapIliSt4hashIlESt8equal_toIlESaISt4pairIliEEEixERKl
FN:1135,_ZN7emhash77HashMapIiiSt4hashIiESt8equal_toIiESaISt4pairIiiEEEixERKi
FNDA:5000000,_ZN7emhash77HashMapIiiSt4hashIiESt8equal_toIiESaISt4pairIiiEEEixERKi
FN:1162,_ZN7emhash77HashMapIliSt4hashIlESt8equal_toIlESaISt4pairIliEEE5eraseIlEEjRKT_
FNDA:33321,_ZN7emhash77HashMapIliSt4hashIlESt8equal_toIlESaISt4pairIliEEE5eraseIlEEjRKT_
FN:1162,_ZN7emhash77HashMapIiiSt4hashIiESt8equal_toIiESaISt4pairIiiEEE5eraseIiEEjRKT_
FNDA:2500000,_ZN7emhash77HashMapIiiSt4hashIiESt8equal_toIiESaISt4pairIiiEEE5eraseIiEEjRKT_
FN:1179,_ZN7emhash77HashMapIiiSt4hashIiESt8equal_toIiESaISt4pairIiiEEE5eraseENS8_8iteratorE
FNDA:1493,_ZN7emhash77HashMapIiiSt4hashIiESt8equal_toIiESaISt4pairIiiEEE5eraseENS8_8iteratorE
FN:1208,_ZN7emhash77HashMapIliSt4hashIlESt8equal_toIlESaISt4pairIliEEE18need_explicit_dtorEv
FNDA:1911377,_ZN7emhash77HashMapIliSt4hashIlESt8equal_toIlESaISt4pairIliEEE18need_explicit_dtorEv
FN:1208,_ZN7emhash77HashMapIiiSt4hashIiESt8equal_toIiESaISt4pairIiiEEE18need_explicit_dtorEv
FNDA:7971759,_ZN7emhash77HashMapIiiSt4hashIiESt8equal_toIiESaISt4pairIiiEEE18need_explicit_dtorEv
FN:1212,_ZN7emhash77HashMapIliSt4hashIlESt8equal_toIlESaISt4pairIliEEE21is_trivially_copyableEv
FNDA:0,_ZN7emhash77HashMapIliSt4hashIlESt8equal_toIlESaISt4pairIliEEE21is_trivially_copyableEv
FN:1212,_ZN7emhash77HashMapIiiSt4hashIiESt8equal_toIiESaISt4pairIiiEEE21is_trivially_copyableEv
FNDA:78662,_ZN7emhash77HashMapIiiSt4hashIiESt8equal_toIiESaISt4pairIiiEEE21is_trivially_copyableEv
FN:1216,_ZN7emhash77HashMapIliSt4hashIlESt8equal_toIlESaISt4pairIliEEE19prefetch_heap_blockEPc
FNDA:1515942,_ZN7emhash77HashMapIliSt4hashIlESt8equal_toIlESaISt4pairIliEEE19prefetch_heap_blockEPc
FN:1216,_ZN7emhash77HashMapIiiSt4hashIiESt8equal_toIiESaISt4pairIiiEEE19prefetch_heap_blockEPc
FNDA:194890,_ZN7emhash77HashMapIiiSt4hashIiESt8equal_toIiESaISt4pairIiiEEE19prefetch_heap_blockEPc
FN:1251,_ZN7emhash77HashMapIliSt4hashIlESt8equal_toIlESaISt4pairIliEEE7reserveEm
FNDA:2484052,_ZN7emhash77HashMapIliSt4hashIlESt8equal_toIlESaISt4pairIliEEE7reserveEm
FN:1251,_ZN7emhash77HashMapIiiSt4hashIiESt8equal_toIiESaISt4pairIiiEEE7reserveEm
FNDA:5171335,_ZN7emhash77HashMapIiiSt4hashIiESt8equal_toIiESaISt4pairIiiEEE7reserveEm
FN:1269,_ZN7emhash77HashMapIiiSt4hashIiESt8equal_toIiESaISt4pairIiiEEE6rehashEm
FNDA:26000,_ZN7emhash77HashMapIiiSt4hashIiESt8equal_toIiESaISt4pairIiiEEE6rehashEm
FN:1269,_ZN7emhash77HashMapIliSt4hashIlESt8equal_toIlESaISt4pairIliEEE6rehashEm
FNDA:13000,_ZN7emhash77HashMapIliSt4hashIlESt8equal_toIlESaISt4pairIliEEE6rehashEm
FN:1343,_ZN7emhash77HashMapIiiSt4hashIiESt8equal_toIiESaISt4pairIiiEEE17check_expand_needEv
FNDA:5170335,_ZN7emhash77HashMapIiiSt4hashIiESt8equal_toIiESaISt4pairIiiEEE17check_expand_needEv
FN:1343,_ZN7emhash77HashMapIliSt4hashIlESt8equal_toIlESaISt4pairIliEEE17check_expand_needEv
FNDA:2483052,_ZN7emhash77HashMapIliSt4hashIlESt8equal_toIlESaISt4pairIliEEE17check_expand_needEv
FN:1345,_ZN7emhash77HashMapIiiSt4hashIiESt8equal_toIiESaISt4pairIiiEEE12clear_bucketEj
FNDA:503696,_ZN7emhash77HashMapIiiSt4hashIiESt8equal_toIiESaISt4pairIiiEEE12clear_bucketEj
FN:1345,_ZN7emhash77HashMapIliSt4hashIlESt8equal_toIlESaISt4pairIliEEE12clear_bucketEj
FNDA:0,_ZN7emhash77HashMapIliSt4hashIlESt8equal_toIlESaISt4pairIliEEE12clear_bucketEj
FN:1353,_ZN7emhash77HashMapIliSt4hashIlESt8equal_toIlESaISt4pairIliEEE9erase_keyIlEEjRKT_
FNDA:33321,_ZN7emhash77HashMapIliSt4hashIlESt8equal_toIlESaISt4pairIliEEE9erase_keyIlEEjRKT_
FN:1353,_ZN7emhash77HashMapIiiSt4hashIiESt8equal_toIiESaISt4pairIiiEEE9erase_keyIiEEjRKT_
FNDA:2500000,_ZN7emhash77HashMapIiiSt4hashIiESt8equal_toIiESaISt4pairIiiEEE9erase_keyIiEEjRKT_
FN:1395,_ZN7emhash77HashMapIiiSt4hashIiESt8equal_toIiESaISt4pairIiiEEE12erase_bucketEj
FNDA:1493,_ZN7emhash77HashMapIiiSt4hashIiESt8equal_toIiESaISt4pairIiiEEE12erase_bucketEj
FN:1465,_ZN7emhash77HashMapIliSt4hashIlESt8equal_toIlESaISt4pairIliEEE14kickout_bucketEjj
FNDA:267377,_ZN7emhash77HashMapIliSt4hashIlESt8equal_toIlESaISt4pairIliEEE14kickout_bucketEjj
FN:1465,_ZN7emhash77HashMapIiiSt4hashIiESt8equal_toIiESaISt4pairIiiEEE14kickout_bucketEjj
FNDA:674063,_ZN7emhash77HashMapIiiSt4hashIiESt8equal_toIiESaISt4pairIiiEEE14kickout_bucketEjj
FN:1488,_ZN7emhash77HashMapIliSt4hashIlESt8equal_toIlESaISt4pairIliEEE16find_or_allocateIlEEjRKT_Rb
FNDA:2483052,_ZN7emhash77HashMapIliSt4hashIlESt8equal_toIlESaISt4pairIliEEE16find_or_allocateIlEEjRKT_Rb
FN:1488,_ZN7emhash77HashMapIiiSt4hashIiESt8equal_toIiESaISt4pairIiiEEE16find_or_allocateIiEEjRKT_Rb
FNDA:5170335,_ZN7emhash77HashMapIiiSt4hashIiESt8equal_toIiESaISt4pairIiiEEE16find_or_allocateIiEEjRKT_Rb
FN:1539,_ZN7emhash77HashMapIliSt4hashIlESt8equal_toIlESaISt4pairIliEEE17find_empty_bucketEjj
FNDA:1416481,_ZN7emhash77HashMapIliSt4hashIlESt8equal_toIlESaISt4pairIliEEE17find_empty_bucketEjj
FN:1539,_ZN7emhash77HashMapIiiSt4hashIiESt8equal_toIiESaISt4pairIiiEEE17find_empty_bucketEjj
FNDA:2874160,_ZN7emhash77HashMapIiiSt4hashIiESt8equal_toIiESaISt4pairIiiEEE17find_empty_bucketEjj
FN:1609,_ZNK7emhash77HashMapIiiSt4hashIiESt8equal_toIiESaISt4pairIiiEEE16find_last_bucketEj
FNDA:36799,_ZNK7emhash77HashMapIiiSt4hashIiESt8equal_toIiESaISt4pairIiiEEE16find_last_bucketEj
FN:1609,_ZNK7emhash77HashMapIliSt4hashIlESt8equal_toIlESaISt4pairIliEEE16find_last_bucketEj
FNDA:35493,_ZNK7emhash77HashMapIliSt4hashIlESt8equal_toIlESaISt4pairIliEEE16find_last_bucketEj
FN:1622,_ZNK7emhash77HashMapIliSt4hashIlESt8equal_toIlESaISt4pairIliEEE16find_prev_bucketEjj
FNDA:267377,_ZNK7emhash77HashMapIliSt4hashIlESt8equal_toIlESaISt4pairIliEEE16find_prev_bucketEjj
FN:1622,_ZNK7emhash77HashMapIiiSt4hashIiESt8equal_toIiESaISt4pairIiiEEE16find_prev_bucketEjj
FNDA:674371,_ZNK7emhash77HashMapIiiSt4hashIiESt8equal_toIiESaISt4pairIiiEEE16find_prev_bucketEjj
FN:1635,_ZN7emhash77HashMapIliSt4hashIlESt8equal_toIlESaISt4pairIliEEE18find_unique_bucketERKl
FNDA:1642000,_ZN7emhash77HashMapIliSt4hashIlESt8equal_toIlESaISt4pairIliEEE18find_unique_bucketERKl
FN:1635,_ZN7emhash77HashMapIiiSt4hashIiESt8equal_toIiESaISt4pairIiiEEE18find_unique_bucketERKi
FNDA:6791000,_ZN7emhash77HashMapIiiSt4hashIiESt8equal_toIiESaISt4pairIiiEEE18find_unique_bucketERKi
DA:181,14172183
DA:203,14172183
DA:208,14172183
DA:216,1642000
DA:217,1642000
DA:218,1642000
DA:216,6959074
DA:217,6959074
DA:218,6959074
DA:221,4010578
DA:222,4010578
DA:223,4010578
DA:221,2481973
DA:222,2481973
DA:223,2481973
DA:237,674063
DA:237,267377
DA:246,78662
DA:247,78662
DA:249,78662
DA:250,78662
DA:251,78662
DA:253,78662
DA:246,0
DA:247,0
DA:249,0
DA:250,0
DA:251,0
DA:253,0
DA:260,0
DA:261,0
DA:262,0
DA:263,0
DA:260,0
DA:261,0
DA:262,0
DA:263,0
DA:348,3004000
DA:349,3004000
DA:350,3004000
DA:348,686325
DA:349,686325
DA:350,686325
DA:353,2000
DA:354,2000
DA:355,2000
DA:356,2000
DA:357,2000
DA:358,2000
DA:360,0
DA:362,2000
DA:353,53601
DA:354,53601
DA:355,53601
DA:356,53601
DA:357,53601
DA:358,53601
DA:360,0
DA:362,53601
DA:366,279
DA:367,279
DA:368,269
DA:369,279
DA:371,0
DA:372,0
DA:373,0
DA:371,0
DA:372,0
DA:373,0
DA:376,2481973
DA:378,2481973
DA:379,2000
DA:381,2481973
DA:382,2481973
DA:383,2481973
DA:376,7344848
DA:378,7344848
DA:379,53601
DA:381,7344848
DA:382,7344848
DA:383,7344848
DA:397,7323634
DA:397,2481973
DA:399,3000000
DA:399,20000
DA:401,20000
DA:402,3983973
DA:402,7496655
DA:407,2481973
DA:408,2481973
DA:409,2417973
DA:410,2417973
DA:414,64000
DA:415,64000
DA:416,64000
DA:418,64000
DA:407,7344848
DA:408,7344848
DA:409,7110697
DA:410,7110697
DA:414,234151
DA:415,234151
DA:416,234151
DA:418,234151
DA:437,0
DA:437,0
DA:442,0
DA:443,0
DA:444,0
DA:442,0
DA:443,0
DA:444,0
DA:447,0
DA:448,0
DA:449,0
DA:450,0
DA:451,0
DA:452,0
DA:454,0
DA:456,0
DA:447,0
DA:448,0
DA:449,0
DA:450,0
DA:451,0
DA:452,0
DA:454,0
DA:456,0
DA:460,0
DA:462,0
DA:463,0
DA:465,0
DA:466,0
DA:460,0
DA:462,0
DA:463,0
DA:465,0
DA:466,0
DA:481,0
DA:481,0
DA:487,0
DA:488,0
DA:489,0
DA:490,0
DA:491,0
DA:495,0
DA:496,0
DA:497,0
DA:499,0
DA:487,0
DA:488,0
DA:489,0
DA:490,0
DA:491,0
DA:495,0
DA:496,0
DA:497,0
DA:499,0
DA:509,2000
DA:510,2000
DA:511,2000
DA:512,2000
DA:513,2000
DA:514,2000
DA:515,2000
DA:516,2000
DA:509,3000
DA:510,3000
DA:511,3000
DA:512,3000
DA:513,3000
DA:514,3000
DA:515,3000
DA:516,3000
DA:518,2000
DA:518,3000
DA:524,26000
DA:525,26000
DA:524,52000
DA:525,52000
DA:528,26000
DA:529,26000
DA:528,52000
DA:529,52000
DA:532,13000
DA:533,13000
DA:534,0
DA:535,13000
DA:536,13000
DA:537,13000
DA:538,0
DA:539,13000
DA:532,26000
DA:533,26000
DA:534,0
DA:535,26000
DA:536,26000
DA:537,26000
DA:538,0
DA:539,26000
DA:542,15000
DA:543,15000
DA:544,13000
DA:545,13000
DA:547,15000
DA:542,29000
DA:543,29000
DA:544,26000
DA:545,26000
DA:547,29000
DA:633,2000
DA:634,2000
DA:635,0
DA:636,0
DA:637,0
DA:640,2000
DA:641,2000
DA:642,2000
DA:633,3000
DA:634,3000
DA:635,0
DA:636,0
DA:637,0
DA:640,3000
DA:641,3000
DA:642,3000
DA:682,2000
DA:689,2000
DA:690,2000
DA:691,2000
DA:692,2000
DA:694,0
DA:695,0
DA:696,0
DA:682,52721
DA:689,52721
DA:690,52721
DA:691,52721
DA:692,52721
DA:694,0
DA:695,0
DA:696,0
DA:699,0
DA:706,0
DA:707,0
DA:708,0
DA:709,0
DA:711,0
DA:712,0
DA:713,0
DA:699,0
DA:706,0
DA:707,0
DA:708,0
DA:709,0
DA:711,0
DA:712,0
DA:713,0
DA:728,1502000
DA:728,193021
DA:732,51721
DA:732,3000
DA:735,53601
DA:735,4000
DA:742,3000
DA:743,3000
DA:744,3000
DA:745,3000
DA:742,3000
DA:743,3000
DA:744,3000
DA:745,3000
DA:748,78000
DA:748,142000
DA:928,1500000
DA:929,1500000
DA:928,270248
DA:929,270248
DA:954,49696
DA:955,49696
DA:954,33627
DA:955,33627
DA:1045,170335
DA:1047,170335
DA:1048,170335
DA:1049,168074
DA:1051,170335
DA:1068,170335
DA:1069,170335
DA:1070,170335
DA:1135,5000000
DA:1136,5000000
DA:1139,5000000
DA:1140,5000000
DA:1141,4010578
DA:1144,5000000
DA:1135,2483052
DA:1136,2483052
DA:1139,2483052
DA:1140,2483052
DA:1141,2481973
DA:1144,2483052
DA:1162,2500000
DA:1163,2500000
DA:1164,2500000
DA:1165,1997797
DA:1167,502203
DA:1168,502203
DA:1162,33321
DA:1163,33321
DA:1164,33321
DA:1165,33321
DA:1167,0
DA:1168,0
DA:1179,1493
DA:1180,1493
DA:1181,1493
DA:1182,1493
DA:1183,1214
DA:1186,279
DA:1187,279
DA:1208,1911377
DA:1209,1911377
DA:1208,7971759
DA:1209,7971759
DA:1212,78662
DA:1213,78662
DA:1212,0
DA:1213,0
DA:1216,1515942
DA:1222,1515942
DA:1224,1515942
DA:1216,194890
DA:1222,194890
DA:1224,194890
DA:1251,2484052
DA:1252,2484052
DA:1253,2484052
DA:1254,2473052
DA:1265,11000
DA:1266,11000
DA:1251,5171335
DA:1252,5171335
DA:1253,5171335
DA:1254,5148335
DA:1265,23000
DA:1266,23000
DA:1269,13000
DA:1270,13000
DA:1271,0
DA:1273,13000
DA:1274,78000
DA:1275,65000
DA:1276,65000
DA:1277,0
DA:1280,13000
DA:1281,13000
DA:1282,13000
DA:1283,13000
DA:1284,13000
DA:1285,13000
DA:1287,13000
DA:1288,13000
DA:1289,13000
DA:1291,13000
DA:1292,13000
DA:1294,13000
DA:1296,13000
DA:1297,13000
DA:1298,13000
DA:1299,13000
DA:1300,3000
DA:1303,2048201
DA:1304,2043858
DA:1305,401858
DA:1307,1642000
DA:1308,1642000
DA:1309,1642000
DA:1310,1642000
DA:1311,0
DA:1313,1642000
DA:1314,8657
DA:1316,0
DA:1317,0
DA:1318,0
DA:1337,13000
DA:1338,13000
DA:1269,26000
DA:1270,26000
DA:1271,0
DA:1273,26000
DA:1274,142000
DA:1275,116000
DA:1276,116000
DA:1277,0
DA:1280,26000
DA:1281,26000
DA:1282,26000
DA:1283,26000
DA:1284,26000
DA:1285,26000
DA:1287,26000
DA:1288,26000
DA:1289,26000
DA:1291,26000
DA:1292,26000
DA:1294,26000
DA:1296,26000
DA:1297,26000
DA:1298,26000
DA:1299,26000
DA:1300,6000
DA:1303,8475540
DA:1304,8469811
DA:1305,1678811
DA:1307,6791000
DA:1308,6791000
DA:1309,6791000
DA:1310,6791000
DA:1311,0
DA:1313,6791000
DA:1314,20271
DA:1316,0
DA:1317,0
DA:1318,0
DA:1337,26000
DA:1338,26000
DA:1343,2483052
DA:1343,5170335
DA:1345,503696
DA:1347,503696
DA:1348,503696
DA:1349,0
DA:1350,503696
DA:1345,0
DA:1347,0
DA:1348,0
DA:1349,0
DA:1350,0
DA:1353,2500000
DA:1354,5000000
DA:1355,2500000
DA:1356,968744
DA:1358,1531256
DA:1359,1531256
DA:1360,1531256
DA:1361,417128
DA:1362,338745
DA:1364,78383
DA:1365,78383
DA:1366,78383
DA:1368,0
DA:1370,78383
DA:1371,78383
DA:1372,1114128
DA:1373,880693
DA:1378,233435
DA:1379,22949
DA:1380,256384
DA:1381,256384
DA:1382,85075
DA:1383,85075
DA:1386,171309
DA:1387,148360
DA:1388,22949
DA:1389,22949
DA:1392,148360
DA:1353,33321
DA:1354,66642
DA:1355,33321
DA:1356,17648
DA:1358,15673
DA:1359,15673
DA:1360,15673
DA:1361,0
DA:1362,0
DA:1364,0
DA:1365,0
DA:1366,0
DA:1368,0
DA:1370,0
DA:1371,0
DA:1372,15673
DA:1373,12529
DA:1378,3144
DA:1379,515
DA:1380,3659
DA:1381,3659
DA:1382,0
DA:1383,0
DA:1386,3659
DA:1387,3144
DA:1388,515
DA:1389,515
DA:1392,3144
DA:1395,1493
DA:1396,1493
DA:1397,2986
DA:1398,1493
DA:1399,1185
DA:1400,279
DA:1401,279
DA:1402,279
DA:1404,0
DA:1405,279
DA:1407,1185
DA:1410,308
DA:1411,308
DA:1412,308
DA:1439,3707142
DA:1440,1853571
DA:1441,142739
DA:1443,1710832
DA:1444,1710832
DA:1448,605990
DA:1449,2316822
DA:1450,1524369
DA:1452,792453
DA:1453,792453
DA:1454,186463
DA:1455,605990
DA:1465,674063
DA:1466,674063
DA:1467,674063
DA:1468,674063
DA:1469,674063
DA:1470,674063
DA:1471,0
DA:1473,674063
DA:1474,605538
DA:1475,674063
DA:1478,674063
DA:1465,267377
DA:1466,267377
DA:1467,267377
DA:1468,267377
DA:1469,267377
DA:1470,267377
DA:1471,0
DA:1473,267377
DA:1474,222399
DA:1475,267377
DA:1478,267377
DA:1488,5170335
DA:1489,10340670
DA:1490,5170335
DA:1491,5170335
DA:1492,2034619
DA:1493,2034619
DA:1494,3135716
DA:1495,820233
DA:1496,820233
DA:1499,2315483
DA:1500,2315483
DA:1502,4630966
DA:1503,2315483
DA:1504,634989
DA:1505,1680494
DA:1506,1267124
DA:1512,40482
DA:1513,453852
DA:1514,171450
DA:1519,171450
DA:1527,282402
DA:1528,282402
DA:1529,241920
DA:1530,40482
DA:1534,241920
DA:1535,241920
DA:1488,2483052
DA:1489,4966104
DA:1490,2483052
DA:1491,2483052
DA:1492,1370637
DA:1493,1370637
DA:1494,1112415
DA:1495,825
DA:1496,825
DA:1499,1111590
DA:1500,1111590
DA:1502,2223180
DA:1503,1111590
DA:1504,249619
DA:1505,861971
DA:1506,655940
DA:1512,43333
DA:1513,249364
DA:1514,254
DA:1519,254
DA:1527,249110
DA:1528,249110
DA:1529,205777
DA:1530,43333
DA:1534,205777
DA:1535,205777
DA:1539,2874160
DA:1540,2874160
DA:1551,2874160
DA:1552,2874160
DA:1555,2874160
DA:1556,2874160
DA:1557,2874160
DA:1558,2806934
DA:1561,67226
DA:1562,67226
DA:1563,2
DA:1564,67228
DA:1566,67228
DA:1567,67228
DA:1568,67226
DA:1569,2284
DA:1571,2284
DA:1572,2284
DA:1573,2282
DA:1574,2282
DA:1576,2
DA:1539,1416481
DA:1540,1416481
DA:1551,1416481
DA:1552,1416481
DA:1555,1416481
DA:1556,1416481
DA:1557,1416481
DA:1558,1405599
DA:1561,10882
DA:1562,10882
DA:1563,1
DA:1564,10883
DA:1566,10883
DA:1567,10883
DA:1568,10882
DA:1569,21
DA:1571,21
DA:1572,21
DA:1573,20
DA:1574,20
DA:1576,1
DA:1609,35493
DA:1610,35493
DA:1611,35493
DA:1612,32213
DA:1614,257
DA:1615,3537
DA:1616,3537
DA:1617,3280
DA:1618,257
DA:1609,36799
DA:1610,36799
DA:1611,36799
DA:1612,35058
DA:1614,84
DA:1615,1825
DA:1616,1825
DA:1617,1741
DA:1618,84
DA:1622,267377
DA:1623,267377
DA:1624,267377
DA:1625,223095
DA:1627,6886
DA:1628,51168
DA:1629,51168
DA:1630,44282
DA:1631,6886
DA:1622,674371
DA:1623,674371
DA:1624,674371
DA:1625,606442
DA:1627,4691
DA:1628,72620
DA:1629,72620
DA:1630,67929
DA:1631,4691
DA:1635,1642000
DA:1636,3284000
DA:1637,1642000
DA:1638,1336855
DA:1641,610290
DA:1642,305145
DA:1643,17758
DA:1645,287387
DA:1646,287387
DA:1647,35493
DA:1650,287387
DA:1635,6791000
DA:1636,13582000
DA:1637,6791000
DA:1638,6060873
DA:1641,1460254
DA:1642,730127
DA:1643,39074
DA:1645,691053
DA:1646,691053
DA:1647,36799
DA:1650,691053
DA:1700,24937117
DA:1722,16035065
DA:1723,503696
DA:1725,20473279
end_of_record
SF:/mnt/d/emhash/include/emhash/hash_table5.hpp
FN:136,_ZN7emhash55entryIiiEC2EOiS2_i
FNDA:168074,_ZN7emhash55entryIiiEC2EOiS2_i
FN:141,_ZN7emhash55entryIiiEC2IRKiiEEOT_OT0_i
FNDA:4010578,_ZN7emhash55entryIiiEC2IRKiiEEOT_OT0_i
FN:141,_ZN7emhash55entryIliEC2IRKliEEOT_OT0_i
FNDA:2481973,_ZN7emhash55entryIliEC2IRKliEEOT_OT0_i
FN:162,_ZN7emhash55entryIiiEC2EOS1_
FNDA:7474737,_ZN7emhash55entryIiiEC2EOS1_
FN:162,_ZN7emhash55entryIliEC2EOS1_
FNDA:1899972,_ZN7emhash55entryIliEC2EOS1_
FN:164,_ZN7emhash55entryIiiEaSEOS1_
FNDA:78880,_ZN7emhash55entryIiiEaSEOS1_
FN:164,_ZN7emhash55entryIliEaSEOS1_
FNDA:0,_ZN7emhash55entryIliEaSEOS1_
FN:292,_ZN7emhash57HashMapIliSt4hashIlESt8equal_toIlESaISt4pairIliEEE8iteratorC2EPKS8_i
FNDA:3004000,_ZN7emhash57HashMapIliSt4hashIlESt8equal_toIlESaISt4pairIliEEE8iteratorC2EPKS8_i
FN:292,_ZN7emhash57HashMapIiiSt4hashIiESt8equal_toIiESaISt4pairIiiEEE8iteratorC2EPKS8_i
FNDA:687818,_ZN7emhash57HashMapIiiSt4hashIiESt8equal_toIiESaISt4pairIiiEEE8iteratorC2EPKS8_i
FN:294,_ZN7emhash57HashMapIiiSt4hashIiESt8equal_toIiESaISt4pairIiiEEE8iteratorppEv
FNDA:7344812,_ZN7emhash57HashMapIiiSt4hashIiESt8equal_toIiESaISt4pairIiiEEE8iteratorppEv
FN:294,_ZN7emhash57HashMapIliSt4hashIlESt8equal_toIlESaISt4pairIliEEE8iteratorppEv
FNDA:2481973,_ZN7emhash57HashMapIliSt4hashIlESt8equal_toIlESaISt4pairIliEEE8iteratorppEv
FN:305,_ZNK7emhash57HashMapIiiSt4hashIiESt8equal_toIiESaISt4pairIiiEEE8iteratordeEv
FNDA:7323634,_ZNK7emhash57HashMapIiiSt4hashIiESt8equal_toIiESaISt4pairIiiEEE8iteratordeEv
FN:305,_ZNK7emhash57HashMapIliSt4hashIlESt8equal_toIlESaISt4pairIliEEE8iteratordeEv
FNDA:2481973,_ZNK7emhash57HashMapIliSt4hashIlESt8equal_toIlESaISt4pairIliEEE8iteratordeEv
FN:306,_ZNK7emhash57HashMapIliSt4hashIlESt8equal_toIlESaISt4pairIliEEE8iteratorptEv
FNDA:3000000,_ZNK7emhash57HashMapIliSt4hashIlESt8equal_toIlESaISt4pairIliEEE8iteratorptEv
FN:306,_ZNK7emhash57HashMapIiiSt4hashIiESt8equal_toIiESaISt4pairIiiEEE8iteratorptEv
FNDA:20000,_ZNK7emhash57HashMapIiiSt4hashIiESt8equal_toIiESaISt4pairIiiEEE8iteratorptEv
FN:308,_ZNK7emhash57HashMapIiiSt4hashIiESt8equal_toIiESaISt4pairIiiEEE8iteratoreqERKS9_
FNDA:20000,_ZNK7emhash57HashMapIiiSt4hashIiESt8equal_toIiESaISt4pairIiiEEE8iteratoreqERKS9_
FN:309,_ZNK7emhash57HashMapIliSt4hashIlESt8equal_toIlESaISt4pairIliEEE8iteratorneERKS9_
FNDA:3983973,_ZNK7emhash57HashMapIliSt4hashIlESt8equal_toIlESaISt4pairIliEEE8iteratorneERKS9_
FN:309,_ZNK7emhash57HashMapIiiSt4hashIiESt8equal_toIiESaISt4pairIiiEEE8iteratorneERKS9_
FNDA:7496655,_ZNK7emhash57HashMapIiiSt4hashIiESt8equal_toIiESaISt4pairIiiEEE8iteratorneERKS9_
FN:317,_ZN7emhash57HashMapIiiSt4hashIiESt8equal_toIiESaISt4pairIiiEEE8iterator17goto_next_elementEv
FNDA:7344812,_ZN7emhash57HashMapIiiSt4hashIiESt8equal_toIiESaISt4pairIiiEEE8iterator17goto_next_elementEv
FN:317,_ZN7emhash57HashMapIliSt4hashIlESt8equal_toIlESaISt4pairIliEEE8iterator17goto_next_elementEv
FNDA:2481973,_ZN7emhash57HashMapIliSt4hashIlESt8equal_toIlESaISt4pairIliEEE8iterator17goto_next_elementEv
FN:337,_ZN7emhash57HashMapIiiSt4hashIiESt8equal_toIiESaISt4pairIiiEEE14const_iteratorC2ERKNS8_8iteratorE
FNDA:1493,_ZN7emhash57HashMapIiiSt4hashIiESt8equal_toIiESaISt4pairIiiEEE14const_iteratorC2ERKNS8_8iteratorE
FN:370,_ZN7emhash57HashMapIiiSt4hashIiESt8equal_toIiESaISt4pairIiiEEE4initEif
FNDA:3000,_ZN7emhash57HashMapIiiSt4hashIiESt8equal_toIiESaISt4pairIiiEEE4initEif
FN:370,_ZN7emhash57HashMapIliSt4hashIlESt8equal_toIlESaISt4pairIliEEE4initEif
FNDA:2000,_ZN7emhash57HashMapIliSt4hashIlESt8equal_toIlESaISt4pairIliEEE4initEif
FN:382,_ZN7emhash57HashMapIiiSt4hashIiESt8equal_toIiESaISt4pairIiiEEEC2Eif
FNDA:3000,_ZN7emhash57HashMapIiiSt4hashIiESt8equal_toIiESaISt4pairIiiEEEC2Eif
FN:382,_ZN7emhash57HashMapIliSt4hashIlESt8equal_toIlESaISt4pairIliEEEC2Eif
FNDA:2000,_ZN7emhash57HashMapIliSt4hashIlESt8equal_toIlESaISt4pairIliEEEC2Eif
FN:490,_ZN7emhash57HashMapIliSt4hashIlESt8equal_toIlESaISt4pairIliEEED2Ev
FNDA:2000,_ZN7emhash57HashMapIliSt4hashIlESt8equal_toIlESaISt4pairIliEEED2Ev
FN:490,_ZN7emhash57HashMapIiiSt4hashIiESt8equal_toIiESaISt4pairIiiEEED2Ev
FNDA:3000,_ZN7emhash57HashMapIiiSt4hashIiESt8equal_toIiESaISt4pairIiiEEED2Ev
FN:590,_ZN7emhash57HashMapIliSt4hashIlESt8equal_toIlESaISt4pairIliEEE5beginEv
FNDA:2000,_ZN7emhash57HashMapIliSt4hashIlESt8equal_toIlESaISt4pairIliEEE5beginEv
FN:590,_ZN7emhash57HashMapIiiSt4hashIiESt8equal_toIiESaISt4pairIiiEEE5beginEv
FNDA:52721,_ZN7emhash57HashMapIiiSt4hashIiESt8equal_toIiESaISt4pairIiiEEE5beginEv
FN:614,_ZN7emhash57HashMapIiiSt4hashIiESt8equal_toIiESaISt4pairIiiEEE3endEv
FNDA:193355,_ZN7emhash57HashMapIiiSt4hashIiESt8equal_toIiESaISt4pairIiiEEE3endEv
FN:614,_ZN7emhash57HashMapIliSt4hashIlESt8equal_toIlESaISt4pairIliEEE3endEv
FNDA:1502000,_ZN7emhash57HashMapIliSt4hashIlESt8equal_toIlESaISt4pairIliEEE3endEv
FN:618,_ZNK7emhash57HashMapIiiSt4hashIiESt8equal_toIiESaISt4pairIiiEEE4sizeEv
FNDA:51721,_ZNK7emhash57HashMapIiiSt4hashIiESt8equal_toIiESaISt4pairIiiEEE4sizeEv
FN:618,_ZNK7emhash57HashMapIliSt4hashIlESt8equal_toIlESaISt4pairIliEEE4sizeEv
FNDA:3000,_ZNK7emhash57HashMapIliSt4hashIlESt8equal_toIlESaISt4pairIliEEE4sizeEv
FN:620,_ZNK7emhash57HashMapIliSt4hashIlESt8equal_toIlESaISt4pairIliEEE12bucket_countEv
FNDA:2000,_ZNK7emhash57HashMapIliSt4hashIlESt8equal_toIlESaISt4pairIliEEE12bucket_countEv
FN:630,_ZN7emhash57HashMapIliSt4hashIlESt8equal_toIlESaISt4pairIliEEE15max_load_factorEf
FNDA:3000,_ZN7emhash57HashMapIliSt4hashIlESt8equal_toIlESaISt4pairIliEEE15max_load_factorEf
FN:630,_ZN7emhash57HashMapIiiSt4hashIiESt8equal_toIiESaISt4pairIiiEEE15max_load_factorEf
FNDA:3000,_ZN7emhash57HashMapIiiSt4hashIiESt8equal_toIiESaISt4pairIiiEEE15max_load_factorEf
FN:635,_ZNK7emhash57HashMapIliSt4hashIlESt8equal_toIlESaISt4pairIliEEE8max_sizeEv
FNDA:26000,_ZNK7emhash57HashMapIliSt4hashIlESt8equal_toIlESaISt4pairIliEEE8max_sizeEv
FN:635,_ZNK7emhash57HashMapIiiSt4hashIiESt8equal_toIiESaISt4pairIiiEEE8max_sizeEv
FNDA:52000,_ZNK7emhash57HashMapIiiSt4hashIiESt8equal_toIiESaISt4pairIiiEEE8max_sizeEv
FN:763,_ZN7emhash57HashMapIiiSt4hashIiESt8equal_toIiESaISt4pairIiiEEE4findIiEENS8_8iteratorERKT_
FNDA:270248,_ZN7emhash57HashMapIiiSt4hashIiESt8equal_toIiESaISt4pairIiiEEE4findIiEENS8_8iteratorERKT_
FN:763,_ZN7emhash57HashMapIliSt4hashIlESt8equal_toIlESaISt4pairIliEEE4findIlEENS8_8iteratorERKT_
FNDA:1500000,_ZN7emhash57HashMapIliSt4hashIlESt8equal_toIlESaISt4pairIliEEE4findIlEENS8_8iteratorERKT_
FN:818,_ZNK7emhash57HashMapIiiSt4hashIiESt8equal_toIiESaISt4pairIiiEEE5countIiEEiRKT_
FNDA:49696,_ZNK7emhash57HashMapIiiSt4hashIiESt8equal_toIiESaISt4pairIiiEEE5countIiEEiRKT_
FN:818,_ZNK7emhash57HashMapIliSt4hashIlESt8equal_toIlESaISt4pairIliEEE5countIlEEiRKT_
FNDA:33627,_ZNK7emhash57HashMapIliSt4hashIlESt8equal_toIlESaISt4pairIliEEE5countIlEEiRKT_
FN:951,_ZN7emhash57HashMapIiiSt4hashIiESt8equal_toIiESaISt4pairIiiEEE9do_insertEOS6_
FNDA:170335,_ZN7emhash57HashMapIiiSt4hashIiESt8equal_toIiESaISt4pairIiiEEE9do_insertEOS6_
FN:986,_ZN7emhash57HashMapIiiSt4hashIiESt8equal_toIiESaISt4pairIiiEEE6insertEOS6_
FNDA:170335,_ZN7emhash57HashMapIiiSt4hashIiESt8equal_toIiESaISt4pairIiiEEE6insertEOS6_
FN:1114,_ZN7emhash57HashMapIliSt4hashIlESt8equal_toIlESaISt4pairIliEEEixERKl
FNDA:2483052,_ZN7emhash57HashMapIliSt4hashIlESt8equal_toIlESaISt4pairIliEEEixERKl
FN:1114,_ZN7emhash57HashMapIiiSt4hashIiESt8equal_toIiESaISt4pairIiiEEEixERKi
FNDA:5000000,_ZN7emhash57HashMapIiiSt4hashIiESt8equal_toIiESaISt4pairIiiEEEixERKi
FN:1139,_ZN7emhash57HashMapIliSt4hashIlESt8equal_toIlESaISt4pairIliEEE5eraseERKl
FNDA:33321,_ZN7emhash57HashMapIliSt4hashIlESt8equal_toIlESaISt4pairIliEEE5eraseERKl
FN:1139,_ZN7emhash57HashMapIiiSt4hashIiESt8equal_toIiESaISt4pairIiiEEE5eraseERKi
FNDA:2500000,_ZN7emhash57HashMapIiiSt4hashIiESt8equal_toIiESaISt4pairIiiEEE5eraseERKi
FN:1149,_ZN7emhash57HashMapIiiSt4hashIiESt8equal_toIiESaISt4pairIiiEEE5eraseENS8_14const_iteratorE
FNDA:1493,_ZN7emhash57HashMapIiiSt4hashIiESt8equal_toIiESaISt4pairIiiEEE5eraseENS8_14const_iteratorE
FN:1174,_ZN7emhash57HashMapIiiSt4hashIiESt8equal_toIiESaISt4pairIiiEEE18need_explicit_dtorEv
FNDA:7981433,_ZN7emhash57HashMapIiiSt4hashIiESt8equal_toIiESaISt4pairIiiEEE18need_explicit_dtorEv
FN:1174,_ZN7emhash57HashMapIliSt4hashIlESt8equal_toIlESaISt4pairIliEEE18need_explicit_dtorEv
FNDA:1901972,_ZN7emhash57HashMapIliSt4hashIlESt8equal_toIlESaISt4pairIliEEE18need_explicit_dtorEv
FN:1190,_ZN7emhash57HashMapIliSt4hashIlESt8equal_toIlESaISt4pairIliEEE7clearkvEv
FNDA:2000,_ZN7emhash57HashMapIliSt4hashIlESt8equal_toIlESaISt4pairIliEEE7clearkvEv
FN:1190,_ZN7emhash57HashMapIiiSt4hashIiESt8equal_toIiESaISt4pairIiiEEE7clearkvEv
FNDA:3000,_ZN7emhash57HashMapIiiSt4hashIiESt8equal_toIiESaISt4pairIiiEEE7clearkvEv
FN:1243,_ZN7emhash57HashMapIliSt4hashIlESt8equal_toIlESaISt4pairIliEEE7reserveEm
FNDA:2484052,_ZN7emhash57HashMapIliSt4hashIlESt8equal_toIlESaISt4pairIliEEE7reserveEm
FN:1243,_ZN7emhash57HashMapIiiSt4hashIiESt8equal_toIiESaISt4pairIiiEEE7reserveEm
FNDA:5171335,_ZN7emhash57HashMapIiiSt4hashIiESt8equal_toIiESaISt4pairIiiEEE7reserveEm
FN:1273,_ZN7emhash57HashMapIiiSt4hashIiESt8equal_toIiESaISt4pairIiiEEE6rehashEm
FNDA:26000,_ZN7emhash57HashMapIiiSt4hashIiESt8equal_toIiESaISt4pairIiiEEE6rehashEm
FN:1273,_ZN7emhash57HashMapIliSt4hashIlESt8equal_toIlESaISt4pairIliEEE6rehashEm
FNDA:13000,_ZN7emhash57HashMapIliSt4hashIlESt8equal_toIlESaISt4pairIliEEE6rehashEm
FN:1385,_ZN7emhash57HashMapIliSt4hashIlESt8equal_toIlESaISt4pairIliEEE12alloc_bucketEi
FNDA:13000,_ZN7emhash57HashMapIliSt4hashIlESt8equal_toIlESaISt4pairIliEEE12alloc_bucketEi
FN:1385,_ZN7emhash57HashMapIiiSt4hashIiESt8equal_toIiESaISt4pairIiiEEE12alloc_bucketEi
FNDA:26000,_ZN7emhash57HashMapIiiSt4hashIiESt8equal_toIiESaISt4pairIiiEEE12alloc_bucketEi
FN:1395,_ZN7emhash57HashMapIliSt4hashIlESt8equal_toIlESaISt4pairIliEEE14dealloc_bucketEPNS_5entryIliEEi
FNDA:15000,_ZN7emhash57HashMapIliSt4hashIlESt8equal_toIlESaISt4pairIliEEE14dealloc_bucketEPNS_5entryIliEEi
